 PhysXCommon_64

 Timestamp is 66fa082f (Sun Sep 29 22:08:47 2024)

 Preferred load address is 0000000180000000

 Start         Length     Name                   Class
 0001:00000000 00003530H .text$di                CODE
 0001:00003530 001d8020H .text$mn                CODE
 0001:001db550 00000040H .text$mn$00             CODE
 0001:001db590 00000a70H .text$mn$21             CODE
 0001:001dc000 00000690H .text$x                 CODE
 0001:001dc690 0000000fH .text$yd                CODE
 0002:00000000 00000280H .idata$5                DATA
 0002:00000280 00000038H .00cfg                  DATA
 0002:000002b8 00000008H .CRT$XCA                DATA
 0002:000002c0 000019d0H .CRT$XCU                DATA
 0002:00001c90 00000008H .CRT$XCZ                DATA
 0002:00001c98 00000008H .CRT$XIA                DATA
 0002:00001ca0 00000018H .CRT$XIC                DATA
 0002:00001cb8 00000008H .CRT$XIZ                DATA
 0002:00001cc0 00000008H .CRT$XPA                DATA
 0002:00001cc8 00000010H .CRT$XPX                DATA
 0002:00001cd8 00000008H .CRT$XPXA               DATA
 0002:00001ce0 00000008H .CRT$XPZ                DATA
 0002:00001ce8 00000008H .CRT$XTA                DATA
 0002:00001cf0 00000010H .CRT$XTZ                DATA
 0002:00001cf8 00000000H .gehcont$y              DATA
 0002:00001cf8 00000000H .gfids$y                DATA
 0002:00001d00 000117a0H .rdata                  DATA
 0002:000134a0 00000160H .rdata$00               DATA
 0002:00013600 00000000H .rdata$CastGuardVftablesA DATA
 0002:00013600 00000000H .rdata$CastGuardVftablesC DATA
 0002:00013600 0000043cH .rdata$r                DATA
 0002:00013a3c 00000248H .rdata$voltmd           DATA
 0002:00013c84 0000047cH .rdata$zzzdbg           DATA
 0002:00014100 00000008H .rtc$IAA                DATA
 0002:00014108 00000008H .rtc$IZZ                DATA
 0002:00014110 00000008H .rtc$TAA                DATA
 0002:00014118 00000008H .rtc$TZZ                DATA
 0002:00014120 00014f20H .xdata                  DATA
 0002:00029040 00000084H .xdata$x                DATA
 0002:000290c4 00000020H .didat$2                DATA
 0002:000290e4 00000024H .didat$3                DATA
 0002:00029108 000000c8H .didat$4                DATA
 0002:000291d0 00000418H .didat$6                DATA
 0002:000295e8 000001e8H .didat$7                DATA
 0002:000297d0 0000c154H .edata                  DATA
 0002:00035924 00000014H .idata$2                DATA
 0002:00035938 00000018H .idata$3                DATA
 0002:00035950 00000280H .idata$4                DATA
 0002:00035bd0 000005beH .idata$6                DATA
 0003:00000000 00001cb0H .data                   DATA
 0003:00001cb0 000011d8H .data$r                 DATA
 0003:00002e88 000000f0H .data$rs                DATA
 0003:00002f78 000000c8H .didat$5                DATA
 0003:00003040 0000462cH .bss                    DATA
 0004:00000000 0000c654H .pdata                  DATA
 0005:00000000 00002208H _RDATA                  DATA
 0006:00000000 000000a0H .rsrc$01                DATA
 0006:000000a0 000004b0H .rsrc$02                DATA

  Address         Publics by Value              Rva+Base               Lib:Object

 0000:00000000       __AbsoluteZero             0000000000000000     <absolute>
 0000:00000000       ___safe_se_handler_count   0000000000000000     <absolute>
 0000:00000000       ___safe_se_handler_table   0000000000000000     <absolute>
 0000:00000000       __arm64x_extra_rfe_table   0000000000000000     <absolute>
 0000:00000000       __arm64x_extra_rfe_table_size 0000000000000000     <absolute>
 0000:00000000       __arm64x_native_entrypoint 0000000000000000     <absolute>
 0000:00000000       __arm64x_redirection_metadata 0000000000000000     <absolute>
 0000:00000000       __arm64x_redirection_metadata_count 0000000000000000     <absolute>
 0000:00000000       __dynamic_value_reloc_table 0000000000000000     <absolute>
 0000:00000000       __enclave_config           0000000000000000     <absolute>
 0000:00000000       __guard_check_icall_a64n_fptr 0000000000000000     <absolute>
 0000:00000000       __guard_eh_cont_count      0000000000000000     <absolute>
 0000:00000000       __guard_eh_cont_table      0000000000000000     <absolute>
 0000:00000000       __guard_fids_count         0000000000000000     <absolute>
 0000:00000000       __guard_fids_table         0000000000000000     <absolute>
 0000:00000000       __guard_iat_count          0000000000000000     <absolute>
 0000:00000000       __guard_iat_table          0000000000000000     <absolute>
 0000:00000000       __guard_longjmp_count      0000000000000000     <absolute>
 0000:00000000       __guard_longjmp_table      0000000000000000     <absolute>
 0000:00000000       __hybrid_auxiliary_delayload_iat 0000000000000000     <absolute>
 0000:00000000       __hybrid_auxiliary_delayload_iat_copy 0000000000000000     <absolute>
 0000:00000000       __hybrid_auxiliary_iat     0000000000000000     <absolute>
 0000:00000000       __hybrid_auxiliary_iat_copy 0000000000000000     <absolute>
 0000:00000000       __hybrid_code_map          0000000000000000     <absolute>
 0000:00000000       __hybrid_code_map_count    0000000000000000     <absolute>
 0000:00000000       __hybrid_image_info_bitfield 0000000000000000     <absolute>
 0000:00000000       __x64_code_ranges_to_entry_points 0000000000000000     <absolute>
 0000:00000000       __x64_code_ranges_to_entry_points_count 0000000000000000     <absolute>
 0000:00000100       __guard_flags              0000000000000100     <absolute>
 0000:00000000       __ImageBase                0000000180000000     <linker-defined>
 0001:00003530       ??0PtrTable@Cm@physx@@QEAA@W4PxEMPTY@2@@Z 0000000180004530 f i CmPtrTable.obj
 0001:00003550       ??0PtrTable@Cm@physx@@QEAA@XZ 0000000180004550 f   CmPtrTable.obj
 0001:00003560       ??1AABBTreeBuildNode@Gu@physx@@QEAA@XZ 0000000180004560 f   GuMeshFactory.obj
 0001:00003560       ??1BigConvexDataBuilder@physx@@QEAA@XZ 0000000180004560 f   GuCookingBigConvexDataBuilder.obj
 0001:00003560       ??1Box@Gu@physx@@QEAA@XZ   0000000180004560 f   GuBox.obj
 0001:00003560       ??1HeightFieldData@Gu@physx@@QEAA@XZ 0000000180004560 f   GuCCTSweepTests.obj
 0001:00003560       ??1PtrTable@Cm@physx@@QEAA@XZ 0000000180004560 f   CmPtrTable.obj
 0001:00003560       ?build@CompanionPrunerIncremental@@UEAAXXZ 0000000180004560 f   GuSecondaryPruner.obj
 0001:00003560       ?checkTreeLeaf@IncrementalAABBTree@Gu@physx@@QEAAXPEAVIncrementalAABBTreeNode@23@I@Z 0000000180004560 f   GuIncrementalAABBTree.obj
 0001:00003560       ?execute@?$PxThreadT@V?$PxReflectionAllocator@VPxThreadImpl@physx@@@physx@@@physx@@UEAAXXZ 0000000180004560 f   GuSDF.obj
 0001:00003560       ?execute@PxRunnable@physx@@UEAAXXZ 0000000180004560 f   GuSDF.obj
 0001:00003560       ?merge@BucketPruner@Gu@physx@@UEAAXPEBX@Z 0000000180004560 f   GuBucketPruner.obj
 0001:00003560       ?merge@IncrementalAABBPruner@Gu@physx@@UEAAXPEBX@Z 0000000180004560 f   GuIncrementalAABBPruner.obj
 0001:00003560       ?onMeshIndexFormatChange@TriangleMeshBuilder@physx@@UEAAXXZ 0000000180004560 f   GuCookingTriangleMesh.obj
 0001:00003560       ?profile@Callback@RTree@Gu@physx@@UEAAXXZ 0000000180004560 f   GuMidphaseRTree.obj
 0001:00003560       ?purge@BucketPruner@Gu@physx@@UEAAXXZ 0000000180004560 f   GuBucketPruner.obj
 0001:00003560       ?requiresObjects@ConvexMesh@Gu@physx@@UEAAXAEAVPxProcessPxBaseCallback@3@@Z 0000000180004560 f   GuConvexMesh.obj
 0001:00003560       ?requiresObjects@HeightField@Gu@physx@@UEAAXAEAVPxProcessPxBaseCallback@3@@Z 0000000180004560 f   GuHeightField.obj
 0001:00003560       ?requiresObjects@SoftBodyMesh@Gu@physx@@UEAAXAEAVPxProcessPxBaseCallback@3@@Z 0000000180004560 f   GuTetrahedronMesh.obj
 0001:00003560       ?requiresObjects@TriangleMesh@Gu@physx@@UEAAXAEAVPxProcessPxBaseCallback@3@@Z 0000000180004560 f   GuTriangleMesh.obj
 0001:00003560       ?swapIndex@CompanionPrunerAABBTree@@UEAAXII@Z 0000000180004560 f   GuSecondaryPruner.obj
 0001:00003560       ?swapIndex@CompanionPrunerBucket@@UEAAXII@Z 0000000180004560 f   GuSecondaryPruner.obj
 0001:00003560       ?timeStampChange@CompanionPrunerAABBTree@@UEAAXXZ 0000000180004560 f   GuSecondaryPruner.obj
 0001:00003560       ?timeStampChange@CompanionPrunerBucket@@UEAAXXZ 0000000180004560 f   GuSecondaryPruner.obj
 0001:00003560       ?visualize@BasePruner@Gu@physx@@UEBAXAEAVPxRenderOutput@3@II@Z 0000000180004560 f   GuIncrementalAABBPruner.obj
 0001:00003560       _guard_check_icall_nop     0000000180004560 f   LIBCMT:guard_support.obj
 0001:00003570       ??4AABBTreeBounds@Gu@physx@@QEAAAEAV012@AEBV012@@Z 0000000180004570 f i GuMeshFactory.obj
 0001:00003570       ??4CmModuleUpdateLoader@Cm@physx@@QEAAAEAV012@AEBV012@@Z 0000000180004570 f i CmWindowsModuleUpdateLoader.obj
 0001:00003570       ??4PtrTable@Cm@physx@@QEAAAEAU012@AEBU012@@Z 0000000180004570 f i CmPtrTable.obj
 0001:00003580       ?add@PtrTable@Cm@physx@@QEAAXPEAXAEAVPtrTableStorageManager@23@@Z 0000000180004580 f   CmPtrTable.obj
 0001:00003690       ?clear@PtrTable@Cm@physx@@QEAAXAEAVPtrTableStorageManager@23@@Z 0000000180004690 f   CmPtrTable.obj
 0001:00003700       ?exportExtraData@PtrTable@Cm@physx@@QEAAXAEAVPxSerializationContext@3@@Z 0000000180004700 f   CmPtrTable.obj
 0001:00003750       ?find@PtrTable@Cm@physx@@QEBAIPEBX@Z 0000000180004750 f   CmPtrTable.obj
 0001:00003780       ?getBinaryMetaData@PtrTable@Cm@physx@@SAXAEAVPxOutputStream@3@@Z 0000000180004780 f   CmPtrTable.obj
 0001:00003980       ?getCount@PtrTable@Cm@physx@@QEBAIXZ 0000000180004980 f i CmPtrTable.obj
 0001:00003990       ?getPtrs@PtrTable@Cm@physx@@QEAAPEAPEAXXZ 0000000180004990 f i CmPtrTable.obj
 0001:00003990       ?getPtrs@PtrTable@Cm@physx@@QEBAPEBQEAXXZ 0000000180004990 f i CmPtrTable.obj
 0001:000039a0       ?importExtraData@PtrTable@Cm@physx@@QEAAXAEAVPxDeserializationContext@3@@Z 00000001800049a0 f   CmPtrTable.obj
 0001:000039d0       ?realloc@PtrTable@Cm@physx@@AEAAXIIAEAVPtrTableStorageManager@23@@Z 00000001800049d0 f   CmPtrTable.obj
 0001:00003a60       ?replaceWithLast@PtrTable@Cm@physx@@QEAAXIAEAVPtrTableStorageManager@23@@Z 0000000180004a60 f   CmPtrTable.obj
 0001:00003b60       ??_ECollection@Cm@physx@@UEAAPEAXI@Z 0000000180004b60 f i CmCollection.obj
 0001:00003b60       ??_GCollection@Cm@physx@@UEAAPEAXI@Z 0000000180004b60 f i CmCollection.obj
 0001:00003c10       ??_EPxCollection@physx@@MEAAPEAXI@Z 0000000180004c10 f i CmCollection.obj
 0001:00003c10       ??_GPxCollection@physx@@MEAAPEAXI@Z 0000000180004c10 f i CmCollection.obj
 0001:00003c40       ?add@Collection@Cm@physx@@UEAAXAEAVPxBase@3@_K@Z 0000000180004c40 f   CmCollection.obj
 0001:00003d30       ?add@Collection@Cm@physx@@UEAAXAEAVPxCollection@3@@Z 0000000180004d30 f   CmCollection.obj
 0001:00003ed0       ?addId@Collection@Cm@physx@@UEAAXAEAVPxBase@3@_K@Z 0000000180004ed0 f   CmCollection.obj
 0001:00004000       ?contains@Collection@Cm@physx@@UEBA_NAEAVPxBase@3@@Z 0000000180005000 f   CmCollection.obj
 0001:000040b0       ?create@?$PxHashBase@V?$PxPair@$$CB_KPEAVPxBase@physx@@@physx@@_KU?$PxHash@_K@2@UGetKey@?$PxHashMapBase@_KPEAVPxBase@physx@@U?$PxHash@_K@2@VPxAllocator@2@@2@VPxAllocator@2@$00@physx@@QEAAPEAV?$PxPair@$$CB_KPEAVPxBase@physx@@@2@AEB_KAEA_N@Z 00000001800050b0 f i CmCollection.obj
 0001:000040b0       ?create@?$PxHashBase@V?$PxPair@QEAVPxBase@physx@@_K@physx@@PEAVPxBase@2@U?$PxHash@PEAVPxBase@physx@@@2@UGetKey@?$PxHashMapBase@PEAVPxBase@physx@@_KU?$PxHash@PEAVPxBase@physx@@@2@VPxAllocator@2@@2@VPxAllocator@2@$00@physx@@QEAAPEAV?$PxPair@QEAVPxBase@physx@@_K@2@AEBQEAVPxBase@2@AEA_N@Z 00000001800050b0 f i CmCollection.obj
 0001:00004240       ?erase@?$PxHashBase@V?$PxPair@$$CB_KPEAVPxBase@physx@@@physx@@_KU?$PxHash@_K@2@UGetKey@?$PxHashMapBase@_KPEAVPxBase@physx@@U?$PxHash@_K@2@VPxAllocator@2@@2@VPxAllocator@2@$00@physx@@QEAA_NAEB_K@Z 0000000180005240 f i CmCollection.obj
 0001:00004240       ?erase@?$PxHashBase@V?$PxPair@QEAVPxBase@physx@@_K@physx@@PEAVPxBase@2@U?$PxHash@PEAVPxBase@physx@@@2@UGetKey@?$PxHashMapBase@PEAVPxBase@physx@@_KU?$PxHash@PEAVPxBase@physx@@@2@VPxAllocator@2@@2@VPxAllocator@2@$00@physx@@QEAA_NAEBQEAVPxBase@2@@Z 0000000180005240 f i CmCollection.obj
 0001:000043e0       ?find@?$PxHashMapBase@_KPEAVPxBase@physx@@U?$PxHash@_K@2@VPxAllocator@2@@physx@@QEBAPEBV?$PxPair@$$CB_KPEAVPxBase@physx@@@2@AEB_K@Z 00000001800053e0 f i CmCollection.obj
 0001:00004480       ?find@Collection@Cm@physx@@UEBAPEAVPxBase@3@_K@Z 0000000180005480 f   CmCollection.obj
 0001:000044b0       ?getId@Collection@Cm@physx@@UEBA_KAEBVPxBase@3@@Z 00000001800054b0 f   CmCollection.obj
 0001:00004560       ?getIds@Collection@Cm@physx@@UEBAIPEA_KII@Z 0000000180005560 f   CmCollection.obj
 0001:00004630       ?getNbIds@Collection@Cm@physx@@UEBAIXZ 0000000180005630 f   CmCollection.obj
 0001:00004640       ?getNbObjects@Collection@Cm@physx@@UEBAIXZ 0000000180005640 f   CmCollection.obj
 0001:00004650       ?getObject@Collection@Cm@physx@@UEBAAEAVPxBase@3@I@Z 0000000180005650 f   CmCollection.obj
 0001:00004660       ?getObjects@Collection@Cm@physx@@UEBAIPEAPEAVPxBase@3@II@Z 0000000180005660 f   CmCollection.obj
 0001:000046a0       ?release@Collection@Cm@physx@@UEAAXXZ 00000001800056a0 f i CmCollection.obj
 0001:000046c0       ?remove@Collection@Cm@physx@@UEAAXAEAVPxBase@3@@Z 00000001800056c0 f   CmCollection.obj
 0001:000047b0       ?remove@Collection@Cm@physx@@UEAAXAEAVPxCollection@3@@Z 00000001800057b0 f   CmCollection.obj
 0001:000048c0       ?removeId@Collection@Cm@physx@@UEAAX_K@Z 00000001800058c0 f   CmCollection.obj
 0001:00004940       ?reserveInternal@?$PxHashBase@V?$PxPair@$$CB_KPEAVPxBase@physx@@@physx@@_KU?$PxHash@_K@2@UGetKey@?$PxHashMapBase@_KPEAVPxBase@physx@@U?$PxHash@_K@2@VPxAllocator@2@@2@VPxAllocator@2@$00@physx@@AEAAXI@Z 0000000180005940 f i CmCollection.obj
 0001:00004940       ?reserveInternal@?$PxHashBase@V?$PxPair@QEAVPxBase@physx@@_K@physx@@PEAVPxBase@2@U?$PxHash@PEAVPxBase@physx@@@2@UGetKey@?$PxHashMapBase@PEAVPxBase@physx@@_KU?$PxHash@PEAVPxBase@physx@@@2@VPxAllocator@2@@2@VPxAllocator@2@$00@physx@@AEAAXI@Z 0000000180005940 f i CmCollection.obj
 0001:00004b20       PxCreateCollection         0000000180005b20 f   CmCollection.obj
 0001:00004c20       ??0RadixSort@Cm@physx@@QEAA@XZ 0000000180005c20 f   CmRadixSort.obj
 0001:00004c50       ??0RadixSortBuffered@Cm@physx@@QEAA@XZ 0000000180005c50 f   CmRadixSort.obj
 0001:00004c80       ??1RadixSort@Cm@physx@@UEAA@XZ 0000000180005c80 f   CmRadixSort.obj
 0001:00004c90       ??1RadixSortBuffered@Cm@physx@@UEAA@XZ 0000000180005c90 f   CmRadixSort.obj
 0001:00004cc0       ??_ERadixSort@Cm@physx@@UEAAPEAXI@Z 0000000180005cc0 f i CmRadixSort.obj
 0001:00004d50       ??_ERadixSortBuffered@Cm@physx@@UEAAPEAXI@Z 0000000180005d50 f i CmRadixSort.obj
 0001:00004e40       ?CheckResize@RadixSortBuffered@Cm@physx@@AEAAXI@Z 0000000180005e40 f i CmRadixSort.obj
 0001:00004e80       ?GetNbHits@RadixSort@Cm@physx@@QEBAIXZ 0000000180005e80 f i CmRadixSort.obj
 0001:00004e90       ?GetNbTotalCalls@RadixSort@Cm@physx@@QEBAIXZ 0000000180005e90 f i CmRadixSort.obj
 0001:00004ea0       ?GetRanks@RadixSort@Cm@physx@@QEBAPEBIXZ 0000000180005ea0 f i CmRadixSort.obj
 0001:00004ea0       ?getGridModelInvMass@SoftBodyAuxData@Gu@physx@@UEAAPEAMXZ 0000000180005ea0 f i GuTetrahedronMesh.obj
 0001:00004ea0       ?getHeightField@HeightFieldUtil@Gu@physx@@QEBAAEBVHeightField@23@XZ 0000000180005ea0 f i GuCCTSweepTests.obj
 0001:00004ea0       ?getSimulationMesh@SoftBodyMesh@Gu@physx@@UEAAPEAVPxTetrahedronMesh@3@XZ 0000000180005ea0 f i GuTetrahedronMesh.obj
 0001:00004ea0       ?getSimulationMesh@SoftBodyMesh@Gu@physx@@UEBAPEBVPxTetrahedronMesh@3@XZ 0000000180005ea0 f i GuTetrahedronMesh.obj
 0001:00004eb0       ?GetRecyclable@RadixSort@Cm@physx@@QEBAPEAIXZ 0000000180005eb0 f i CmRadixSort.obj
 0001:00004eb0       ?GetValencies@BigConvexData@physx@@QEBAPEBUValency@Gu@2@XZ 0000000180005eb0 f i GuMetaData.obj
 0001:00004eb0       ?getCollisionMesh@SoftBodyMesh@Gu@physx@@UEAAPEAVPxTetrahedronMesh@3@XZ 0000000180005eb0 f i GuTetrahedronMesh.obj
 0001:00004eb0       ?getCollisionMesh@SoftBodyMesh@Gu@physx@@UEBAPEBVPxTetrahedronMesh@3@XZ 0000000180005eb0 f i GuTetrahedronMesh.obj
 0001:00004eb0       ?getHeightFieldGeometry@HeightFieldUtil@Gu@physx@@QEBAAEBVPxHeightFieldGeometry@3@XZ 0000000180005eb0 f i GuCCTSweepTests.obj
 0001:00004eb0       ?getObjects@PruningPool@Gu@physx@@QEBAPEAUPrunerPayload@23@XZ 0000000180005eb0 f i GuIncrementalAABBPrunerCore.obj
 0001:00004eb0       ?getPos@AABBTreeBuildNode@Gu@physx@@QEBAPEBV123@XZ 0000000180005eb0 f i GuMeshFactory.obj
 0001:00004eb0       ?getVertices@TetrahedronMesh@Gu@physx@@UEBAPEBV?$PxVec3T@M@3@XZ 0000000180005eb0 f i GuTetrahedronMesh.obj
 0001:00004eb0       ?getVertices@TriangleMesh@Gu@physx@@UEBAPEBV?$PxVec3T@M@3@XZ 0000000180005eb0 f i GuTriangleMesh.obj
 0001:00004ec0       ?Resize@RadixSortBuffered@Cm@physx@@AEAA_NI@Z 0000000180005ec0 f   CmRadixSort.obj
 0001:00004fc0       ?SetBuffers@RadixSort@Cm@physx@@QEAA_NPEAI00PEAPEAI@Z 0000000180005fc0 f   CmRadixSort.obj
 0001:00005000       ?Sort@RadixSort@Cm@physx@@QEAAAEAV123@PEBIIW4RadixHint@23@@Z 0000000180006000 f   CmRadixSort.obj
 0001:000056b0       ?Sort@RadixSort@Cm@physx@@QEAAAEAV123@PEBMI@Z 00000001800066b0 f   CmRadixSort.obj
 0001:00005e40       ?Sort@RadixSortBuffered@Cm@physx@@QEAAAEAV123@PEBIIW4RadixHint@23@@Z 0000000180006e40 f   CmRadixSort.obj
 0001:00005ee0       ?Sort@RadixSortBuffered@Cm@physx@@QEAAAEAV123@PEBMI@Z 0000000180006ee0 f   CmRadixSort.obj
 0001:00005f70       ?invalidateRanks@RadixSort@Cm@physx@@QEAAXXZ 0000000180006f70 f i CmRadixSort.obj
 0001:00005f80       ?reset@RadixSortBuffered@Cm@physx@@QEAAXXZ 0000000180006f80 f   CmRadixSort.obj
 0001:00006000       ?ReadHeader@Cm@physx@@YA_NEEEEAEAIAEA_NAEAVPxInputStream@2@@Z 0000000180007000 f   CmSerialize.obj
 0001:00006160       ?ReadIndices@Cm@physx@@YAXGIPEAGAEAVPxInputStream@2@_N@Z 0000000180007160 f   CmSerialize.obj
 0001:000062f0       ?StoreIndices@Cm@physx@@YAXGIPEBGAEAVPxOutputStream@2@_N@Z 00000001800072f0 f   CmSerialize.obj
 0001:000063e0       ?WriteHeader@Cm@physx@@YA_NEEEEI_NAEAVPxOutputStream@2@@Z 00000001800073e0 f   CmSerialize.obj
 0001:00006510       ?computeMaxIndex@physx@@YAGPEBGI@Z 0000000180007510 f   CmSerialize.obj
 0001:00006540       ?computeMaxIndex@physx@@YAIPEBII@Z 0000000180007540 f   CmSerialize.obj
 0001:00006570       ?readByteBuffer@physx@@YAXPEAEIAEAVPxInputStream@1@@Z 0000000180007570 f   CmSerialize.obj
 0001:00006570       ?writeByteBuffer@physx@@YAXPEBEIAEAVPxOutputStream@1@@Z 0000000180007570 f   CmSerialize.obj
 0001:00006590       ?readChunk@physx@@YAXAEAC000AEAVPxInputStream@1@@Z 0000000180007590 f   CmSerialize.obj
 0001:00006610       ?readDword@physx@@YAI_NAEAVPxInputStream@1@@Z 0000000180007610 f   CmSerialize.obj
 0001:00006670       ?readFloat@physx@@YAM_NAEAVPxInputStream@1@@Z 0000000180007670 f   CmSerialize.obj
 0001:000066d0       ?readFloatBuffer@physx@@YA_NPEAMI_NAEAVPxInputStream@1@@Z 00000001800076d0 f   CmSerialize.obj
 0001:00006750       ?readHeader@physx@@YA_NCCCCAEAIAEA_NAEAVPxInputStream@1@@Z 0000000180007750 f   CmSerialize.obj
 0001:000068a0       ?readIndices@physx@@YAXIIPEAIAEAVPxInputStream@1@_N@Z 00000001800078a0 f   CmSerialize.obj
 0001:000069d0       ?readWord@physx@@YAG_NAEAVPxInputStream@1@@Z 00000001800079d0 f   CmSerialize.obj
 0001:00006a10       ?readWordBuffer@physx@@YAXPEAGI_NAEAVPxInputStream@1@@Z 0000000180007a10 f   CmSerialize.obj
 0001:00006a80       ?storeIndices@physx@@YAXIIPEBIAEAVPxOutputStream@1@_N@Z 0000000180007a80 f   CmSerialize.obj
 0001:00006c10       ?writeDword@physx@@YAXI_NAEAVPxOutputStream@1@@Z 0000000180007c10 f   CmSerialize.obj
 0001:00006c60       ?writeFloat@physx@@YAXM_NAEAVPxOutputStream@1@@Z 0000000180007c60 f   CmSerialize.obj
 0001:00006cb0       ?writeFloatBuffer@physx@@YAXPEBMI_NAEAVPxOutputStream@1@@Z 0000000180007cb0 f   CmSerialize.obj
 0001:00006d50       ?writeHeader@physx@@YA_NCCCCI_NAEAVPxOutputStream@1@@Z 0000000180007d50 f   CmSerialize.obj
 0001:00006e80       ?writeWord@physx@@YAXG_NAEAVPxOutputStream@1@@Z 0000000180007e80 f   CmSerialize.obj
 0001:00006ec0       ?writeWordBuffer@physx@@YAXPEBGI_NAEAVPxOutputStream@1@@Z 0000000180007ec0 f   CmSerialize.obj
 0001:00006f40       ??6PxRenderOutput@physx@@QEAAAEAV01@AEBV?$PxTransformT@M@1@@Z 0000000180007f40 f i CmVisualization.obj
 0001:000070c0       ??6PxRenderOutput@physx@@QEAAAEAV01@AEBV?$PxVec3T@M@1@@Z 00000001800080c0 f i CmVisualization.obj
 0001:000073c0       ?renderOutputDebugArrow@Cm@physx@@YAXAEAVPxRenderOutput@2@AEBUPxDebugArrow@2@@Z 00000001800083c0 f   CmVisualization.obj
 0001:00007760       ?renderOutputDebugBasis@Cm@physx@@YAXAEAVPxRenderOutput@2@AEBUPxDebugBasis@2@@Z 0000000180008760 f   CmVisualization.obj
 0001:00007d00       ?renderOutputDebugBox@Cm@physx@@YAXAEAVPxRenderOutput@2@AEBVPxBounds3@2@@Z 0000000180008d00 f   CmVisualization.obj
 0001:00007f70       ?renderOutputDebugCircle@Cm@physx@@YAXAEAVPxRenderOutput@2@IM@Z 0000000180008f70 f   CmVisualization.obj
 0001:00008050       ?visualizeAngularLimit@Cm@physx@@YAXAEAVPxRenderOutput@2@MAEBV?$PxTransformT@M@2@MM@Z 0000000180009050 f   CmVisualization.obj
 0001:000081e0       ?visualizeDoubleCone@Cm@physx@@YAXAEAVPxRenderOutput@2@MAEBV?$PxTransformT@M@2@M@Z 00000001800091e0 f   CmVisualization.obj
 0001:00008400       ?visualizeJointFrames@Cm@physx@@YAXAEAVPxRenderOutput@2@MAEBV?$PxTransformT@M@2@1@Z 0000000180009400 f   CmVisualization.obj
 0001:00009190       ?visualizeLimitCone@Cm@physx@@YAXAEAVPxRenderOutput@2@MAEBV?$PxTransformT@M@2@MM@Z 000000018000a190 f   CmVisualization.obj
 0001:000093d0       ?visualizeLinearLimit@Cm@physx@@YAXAEAVPxRenderOutput@2@MAEBV?$PxTransformT@M@2@1M@Z 000000018000a3d0 f   CmVisualization.obj
 0001:000099f0       ??0CmModuleUpdateLoader@Cm@physx@@QEAA@PEBD@Z 000000018000a9f0 f   CmWindowsModuleUpdateLoader.obj
 0001:00009a30       ??1CmModuleUpdateLoader@Cm@physx@@QEAA@XZ 000000018000aa30 f   CmWindowsModuleUpdateLoader.obj
 0001:00009a60       ?LoadModule@CmModuleUpdateLoader@Cm@physx@@QEAAPEAUHINSTANCE__@@PEBD0@Z 000000018000aa60 f   CmWindowsModuleUpdateLoader.obj
 0001:00009ad0       __local_stdio_printf_options 000000018000aad0 f i CmWindowsModuleUpdateLoader.obj
 0001:00009ae0       printf                     000000018000aae0 f i CmWindowsModuleUpdateLoader.obj
 0001:00009b40       ?commonDelayHook@@YAP6A_JXZIPEAUDelayLoadInfo@@@Z 000000018000ab40 f   CmWindowsDelayLoadHook.obj
 0001:00009c20       PxSetPhysXCommonDelayLoadHook 000000018000ac20 f   CmWindowsDelayLoadHook.obj
 0001:00009c30       ??0?$PxQuatT@M@physx@@QEAA@AEBV?$PxMat33T@M@1@@Z 000000018000ac30 f i GuBox.obj
 0001:00009e60       ??0Box@Gu@physx@@QEAA@AEBV012@@Z 000000018000ae60 f i GuBox.obj
 0001:00009e60       ??4Box@Gu@physx@@QEAAAEBV012@AEBV012@@Z 000000018000ae60 f i GuBox.obj
 0001:00009ec0       ??0Box@Gu@physx@@QEAA@AEBV?$PxVec3T@M@2@0AEBV?$PxMat33T@M@2@@Z 000000018000aec0 f i GuBox.obj
 0001:00009f30       ??0AABBTreeBuildNode@Gu@physx@@QEAA@XZ 000000018000af30 f i GuMeshFactory.obj
 0001:00009f30       ??0BigConvexData@physx@@QEAA@W4PxEMPTY@1@@Z 000000018000af30 f i GuMetaData.obj
 0001:00009f30       ??0Box@Gu@physx@@QEAA@XZ   000000018000af30 f i GuBox.obj
 0001:00009f30       ??0HeightFieldData@Gu@physx@@QEAA@W4PxEMPTY@2@@Z 000000018000af30 f i GuCCTSweepTests.obj
 0001:00009f30       ?getAABB@AABBTreeBuildNode@Gu@physx@@QEBAAEBVPxBounds3@3@XZ 000000018000af30 f i GuMeshFactory.obj
 0001:00009f30       ?getPaddedBounds@HeightFieldData@Gu@physx@@QEBAAEBVCenterExtentsPadded@23@XZ 000000018000af30 f i GuCCTSweepTests.obj
 0001:00009f40       ?computeAABBExtent@Box@Gu@physx@@QEBA?AV?$PxVec3T@M@3@XZ 000000018000af40 f i GuBox.obj
 0001:0000a000       ?computeBoxPoints@Box@Gu@physx@@QEBAXPEIAV?$PxVec3T@M@3@@Z 000000018000b000 f i GuBox.obj
 0001:0000a040       ?computeOBBPoints@Gu@physx@@YAXPEIAV?$PxVec3T@M@2@AEBV32@1111@Z 000000018000b040 f   GuBox.obj
 0001:0000a2c0       ?create@Box@Gu@physx@@QEAAXAEBVCapsule@23@@Z 000000018000b2c0 f   GuBox.obj
 0001:0000a500       ?getBoxEdges@Gu@physx@@YAPEBEXZ 000000018000b500 f   GuBox.obj
 0001:0000a510       ?getTransform@Box@Gu@physx@@QEBA?AV?$PxTransformT@M@3@XZ 000000018000b510 f i GuBox.obj
 0001:0000a570       ?isValid@Box@Gu@physx@@QEBA_NXZ 000000018000b570 f i GuBox.obj
 0001:0000a590       ?rotate@Box@Gu@physx@@QEBA?AV?$PxVec3T@M@3@AEBV43@@Z 000000018000b590 f i GuBox.obj
 0001:0000a620       ?rotateInv@Box@Gu@physx@@QEBA?AV?$PxVec3T@M@3@AEBV43@@Z 000000018000b620 f i GuBox.obj
 0001:0000a6b0       ?setAxes@Box@Gu@physx@@QEAAXAEBV?$PxVec3T@M@3@00@Z 000000018000b6b0 f i GuBox.obj
 0001:0000a6f0       ?setEmpty@Box@Gu@physx@@QEAAXXZ 000000018000b6f0 f i GuBox.obj
 0001:0000a730       ?transform@Box@Gu@physx@@QEBA?AV?$PxVec3T@M@3@AEBV43@@Z 000000018000b730 f i GuBox.obj
 0001:0000a7d0       ?PxComputeBasisVectors@physx@@YAXAEBV?$PxVec3T@M@1@0AEAV21@11@Z 000000018000b7d0 f i GuCapsule.obj
 0001:0000a980       ?computeBoxAroundCapsule@Gu@physx@@YAXAEBVCapsule@12@AEAVBox@12@@Z 000000018000b980 f   GuCapsule.obj
 0001:0000aae0       ??0HeightFieldData@Gu@physx@@QEAA@$$QEAU012@@Z 000000018000bae0 f i GuCCTSweepTests.obj
 0001:0000aae0       ??0HeightFieldData@Gu@physx@@QEAA@AEBU012@@Z 000000018000bae0 f i GuCCTSweepTests.obj
 0001:0000aae0       ??4HeightFieldData@Gu@physx@@QEAAAEAU012@$$QEAU012@@Z 000000018000bae0 f i GuCCTSweepTests.obj
 0001:0000aae0       ??4HeightFieldData@Gu@physx@@QEAAAEAU012@AEBU012@@Z 000000018000bae0 f i GuCCTSweepTests.obj
 0001:0000ab40       ??0HeightFieldData@Gu@physx@@QEAA@XZ 000000018000bb40 f i GuCCTSweepTests.obj
 0001:0000ab50       ??0HeightFieldTraceUtil@Gu@physx@@QEAA@AEBVPxHeightFieldGeometry@2@@Z 000000018000bb50 f i GuCCTSweepTests.obj
 0001:0000ab50       ??0HeightFieldUtil@Gu@physx@@QEAA@AEBVPxHeightFieldGeometry@2@@Z 000000018000bb50 f i GuCCTSweepTests.obj
 0001:0000ab90       ??4AABBTreeBuildParams@Gu@physx@@QEAAAEAV012@AEBV012@@Z 000000018000bb90 f i GuMeshFactory.obj
 0001:0000ab90       ??4HeightFieldTraceUtil@Gu@physx@@QEAAAEAV012@$$QEAV012@@Z 000000018000bb90 f i GuCCTSweepTests.obj
 0001:0000ab90       ??4HeightFieldTraceUtil@Gu@physx@@QEAAAEAV012@AEBV012@@Z 000000018000bb90 f i GuCCTSweepTests.obj
 0001:0000ab90       ??4HeightFieldUtil@Gu@physx@@QEAAAEAV012@AEBV012@@Z 000000018000bb90 f i GuCCTSweepTests.obj
 0001:0000abb0       ??4HeightFieldUtil@Gu@physx@@QEAAAEAV012@$$QEAV012@@Z 000000018000bbb0 f i GuCCTSweepTests.obj
 0001:0000ac10       ??_EEntityReport@Gu@physx@@UEAAPEAXI@Z 000000018000bc10 f i GuSweepsHF.obj
 0001:0000ac10       ??_EOverlapCallback@PxBVH@physx@@UEAAPEAXI@Z 000000018000bc10 f i GuQuerySystem.obj
 0001:0000ac10       ??_EOverlapReport@Gu@physx@@UEAAPEAXI@Z 000000018000bc10 f i GuCCTSweepTests.obj
 0001:0000ac10       ??_ERaycastCallback@PxBVH@physx@@UEAAPEAXI@Z 000000018000bc10 f i GuQuerySystem.obj
 0001:0000ac10       ??_ERemapCallback@RTreeCooker@physx@@UEAAPEAXI@Z 000000018000bc10 f i GuCookingTriangleMesh.obj
 0001:0000ac10       ??_GEntityReport@Gu@physx@@UEAAPEAXI@Z 000000018000bc10 f i GuSweepsHF.obj
 0001:0000ac10       ??_GOverlapCallback@PxBVH@physx@@UEAAPEAXI@Z 000000018000bc10 f i GuQuerySystem.obj
 0001:0000ac10       ??_GOverlapReport@Gu@physx@@UEAAPEAXI@Z 000000018000bc10 f i GuCCTSweepTests.obj
 0001:0000ac10       ??_GRaycastCallback@PxBVH@physx@@UEAAPEAXI@Z 000000018000bc10 f i GuQuerySystem.obj
 0001:0000ac10       ??_GRemapCallback@RTreeCooker@physx@@UEAAPEAXI@Z 000000018000bc10 f i GuCookingTriangleMesh.obj
 0001:0000ac40       ??_H@YAXPEAX_K1P6APEAX0@Z@Z 000000018000bc40 f i GuCCTSweepTests.obj
 0001:0000ac90       ?ceilUp@HeightFieldTraceUtil@Gu@physx@@SAMM@Z 000000018000bc90 f i GuCCTSweepTests.obj
 0001:0000acd0       ?floorDown@HeightFieldTraceUtil@Gu@physx@@SAMM@Z 000000018000bcd0 f i GuCCTSweepTests.obj
 0001:0000ad10       ?getHeightAtShapePoint@HeightFieldUtil@Gu@physx@@QEBAMMM@Z 000000018000bd10 f i GuCCTSweepTests.obj
 0001:0000ad70       ?getHeightInternal2@HeightField@Gu@physx@@QEBAMIMM@Z 000000018000bd70 f i GuCCTSweepTests.obj
 0001:0000aee0       ?getNormalAtShapePoint@HeightFieldUtil@Gu@physx@@QEBA?AV?$PxVec3T@M@3@MM@Z 000000018000bee0 f i GuCCTSweepTests.obj
 0001:0000afa0       ?getNormal_2@HeightField@Gu@physx@@QEBA?AV?$PxVec3T@M@3@IMMMMM@Z 000000018000bfa0 f i GuCCTSweepTests.obj
 0001:0000b080       ?getOneOverColumnScale@HeightFieldUtil@Gu@physx@@QEBAMXZ 000000018000c080 f i GuCCTSweepTests.obj
 0001:0000b090       ?getOneOverHeightScale@HeightFieldUtil@Gu@physx@@QEBAMXZ 000000018000c090 f i GuCCTSweepTests.obj
 0001:0000b0a0       ?getOneOverRowScale@HeightFieldUtil@Gu@physx@@QEBAMXZ 000000018000c0a0 f i GuCCTSweepTests.obj
 0001:0000b0b0       ?hf2shapen@HeightFieldUtil@Gu@physx@@QEBA?AV?$PxVec3T@M@3@AEBV43@@Z 000000018000c0b0 f i GuCCTSweepTests.obj
 0001:0000b0b0       ?shape2hfp@HeightFieldUtil@Gu@physx@@QEBA?AV?$PxVec3T@M@3@AEBV43@@Z 000000018000c0b0 f i GuCCTSweepTests.obj
 0001:0000b0f0       ?hf2shapep@HeightFieldUtil@Gu@physx@@QEBA?AV?$PxVec3T@M@3@AEBV43@@Z 000000018000c0f0 f i GuCCTSweepTests.obj
 0001:0000b130       ?hf2worldn@HeightFieldUtil@Gu@physx@@QEBA?AV?$PxVec3T@M@3@AEBV?$PxTransformT@M@3@AEBV43@@Z 000000018000c130 f i GuCCTSweepTests.obj
 0001:0000b2a0       ?hf2worldp@HeightFieldUtil@Gu@physx@@QEBA?AV?$PxVec3T@M@3@AEBV?$PxTransformT@M@3@AEBV43@@Z 000000018000c2a0 f i GuCCTSweepTests.obj
 0001:0000b420       ?overlapAABBTriangles0to1@HeightFieldUtil@Gu@physx@@QEBAXAEBV?$PxTransformT@M@3@AEBVPxBounds3@3@AEAVOverlapReport@23@I@Z 000000018000c420 f i GuCCTSweepTests.obj
 0001:0000b770       ?overlapAABBTriangles@HeightFieldUtil@Gu@physx@@QEBAXAEBV?$PxTransformT@M@3@0AEBVPxBounds3@3@AEAVOverlapReport@23@I@Z 000000018000c770 f i GuCCTSweepTests.obj
 0001:0000bd60       ?overlapAABBTriangles@HeightFieldUtil@Gu@physx@@QEBAXAEBV?$PxTransformT@M@3@AEBVPxBounds3@3@AEAVOverlapReport@23@I@Z 000000018000cd60 f i GuCCTSweepTests.obj
 0001:0000c400       ?sweepBoxTriangles_Precise@Gu@physx@@YA_NIPEBVPxTriangle@2@_NAEBVPxBoxGeometry@2@AEBV?$PxTransformT@M@2@AEBV?$PxVec3T@M@2@MAEAUPxGeomSweepHit@2@PEBIMV?$PxFlags@W4Enum@PxHitFlag@physx@@G@2@@Z 000000018000d400 f   GuCCTSweepTests.obj
 0001:0000d220       ?sweepBox_BoxGeom_Precise@@YA_NAEBVPxGeometry@physx@@AEBV?$PxTransformT@M@2@AEBVPxBoxGeometry@2@1AEBVBox@Gu@2@AEBV?$PxVec3T@M@2@MAEAUPxGeomSweepHit@2@V?$PxFlags@W4Enum@PxHitFlag@physx@@G@2@MPEAUPxQueryThreadContext@2@@Z 000000018000e220 f   GuCCTSweepTests.obj
 0001:0000d3e0       ?sweepBox_CapsuleGeom_Precise@@YA_NAEBVPxGeometry@physx@@AEBV?$PxTransformT@M@2@AEBVPxBoxGeometry@2@1AEBVBox@Gu@2@AEBV?$PxVec3T@M@2@MAEAUPxGeomSweepHit@2@V?$PxFlags@W4Enum@PxHitFlag@physx@@G@2@MPEAUPxQueryThreadContext@2@@Z 000000018000e3e0 f   GuCCTSweepTests.obj
 0001:0000d7b0       ?sweepBox_HeightFieldGeom_Precise@@YA_NAEBVPxGeometry@physx@@AEBV?$PxTransformT@M@2@AEBVPxBoxGeometry@2@1AEBVBox@Gu@2@AEBV?$PxVec3T@M@2@MAEAUPxGeomSweepHit@2@V?$PxFlags@W4Enum@PxHitFlag@physx@@G@2@MPEAUPxQueryThreadContext@2@@Z 000000018000e7b0 f   GuCCTSweepTests.obj
 0001:0000dfb0       ?sweepBox_SphereGeom_Precise@@YA_NAEBVPxGeometry@physx@@AEBV?$PxTransformT@M@2@AEBVPxBoxGeometry@2@1AEBVBox@Gu@2@AEBV?$PxVec3T@M@2@MAEAUPxGeomSweepHit@2@V?$PxFlags@W4Enum@PxHitFlag@physx@@G@2@MPEAUPxQueryThreadContext@2@@Z 000000018000efb0 f   GuCCTSweepTests.obj
 0001:0000e280       ?sweepCapsule_BoxGeom_Precise@@YA_NAEBVPxGeometry@physx@@AEBV?$PxTransformT@M@2@AEBVPxCapsuleGeometry@2@1AEBVCapsule@Gu@2@AEBV?$PxVec3T@M@2@MAEAUPxGeomSweepHit@2@V?$PxFlags@W4Enum@PxHitFlag@physx@@G@2@MPEAUPxQueryThreadContext@2@@Z 000000018000f280 f   GuCCTSweepTests.obj
 0001:0000e920       ??0?$CacheMap@UCachedEdge@Gu@physx@@$0IA@@Gu@physx@@QEAA@XZ 000000018000f920 f i GuGeometryQuery.obj
 0001:0000e9e0       ??0?$CacheMap@UCachedVertex@Gu@physx@@$0IA@@Gu@physx@@QEAA@XZ 000000018000f9e0 f i GuGeometryQuery.obj
 0001:0000eaa0       ??0MultiplePersistentContactManifold@Gu@physx@@QEAA@XZ 000000018000faa0 f i GuGeometryQuery.obj
 0001:0000eb00       ??0PCMMeshContactGeneration@Gu@physx@@QEAA@AEBT__m128@@0AEBVPxTransformV@aos@2@1AEAVMultiplePersistentContactManifold@12@AEAVPxContactBuffer@2@PEAV?$PxInlineArray@I$0DMA@V?$PxReflectionAllocator@I@physx@@@2@PEAVPxRenderOutput@2@@Z 000000018000fb00 f i GuGeometryQuery.obj
 0001:0000f430       ??4MultiplePersistentContactManifold@Gu@physx@@QEAAAEAV012@$$QEAV012@@Z 0000000180010430 f i GuGeometryQuery.obj
 0001:0000f740       ??4MultiplePersistentContactManifold@Gu@physx@@QEAAAEAV012@AEBV012@@Z 0000000180010740 f i GuGeometryQuery.obj
 0001:0000f760       ??_E?$SupportLocalImpl@VBoxV@Gu@physx@@@Gu@physx@@UEAAPEAXI@Z 0000000180010760 f i GuGeometryQuery.obj
 0001:0000f760       ??_E?$SupportLocalImpl@VConvexHullNoScaleV@Gu@physx@@@Gu@physx@@UEAAPEAXI@Z 0000000180010760 f i GuMTD.obj
 0001:0000f760       ??_E?$SupportLocalImpl@VConvexHullV@Gu@physx@@@Gu@physx@@UEAAPEAXI@Z 0000000180010760 f i GuGeometryQuery.obj
 0001:0000f760       ??_E?$SupportLocalImpl@VTriangleV@Gu@physx@@@Gu@physx@@UEAAPEAXI@Z 0000000180010760 f i GuPCMContactConvexCommon.obj
 0001:0000f760       ??_G?$SupportLocalImpl@VBoxV@Gu@physx@@@Gu@physx@@UEAAPEAXI@Z 0000000180010760 f i GuGeometryQuery.obj
 0001:0000f760       ??_G?$SupportLocalImpl@VConvexHullNoScaleV@Gu@physx@@@Gu@physx@@UEAAPEAXI@Z 0000000180010760 f i GuMTD.obj
 0001:0000f760       ??_G?$SupportLocalImpl@VConvexHullV@Gu@physx@@@Gu@physx@@UEAAPEAXI@Z 0000000180010760 f i GuGeometryQuery.obj
 0001:0000f760       ??_G?$SupportLocalImpl@VTriangleV@Gu@physx@@@Gu@physx@@UEAAPEAXI@Z 0000000180010760 f i GuPCMContactConvexCommon.obj
 0001:0000f790       ??_ESupportLocal@Gu@physx@@UEAAPEAXI@Z 0000000180010790 f i GuGeometryQuery.obj
 0001:0000f790       ??_GSupportLocal@Gu@physx@@UEAAPEAXI@Z 0000000180010790 f i GuGeometryQuery.obj
 0001:0000f7c0       ?clearManifold@MultiplePersistentContactManifold@Gu@physx@@QEAAXXZ 00000001800107c0 f i GuGeometryQuery.obj
 0001:0000f820       ?computeGeomBounds@PxGeometryQuery@physx@@SAXAEAVPxBounds3@2@AEBVPxGeometry@2@AEBV?$PxTransformT@M@2@MMV?$PxFlags@W4Enum@PxGeometryQueryFlag@physx@@I@2@@Z 0000000180010820 f   GuGeometryQuery.obj
 0001:0000f8a0       ?computePenetration@PxGeometryQuery@physx@@SA_NAEAV?$PxVec3T@M@2@AEAMAEBVPxGeometry@2@AEBV?$PxTransformT@M@2@23V?$PxFlags@W4Enum@PxGeometryQueryFlag@physx@@I@2@@Z 00000001800108a0 f   GuGeometryQuery.obj
 0001:0000fa20       ?doSupport@?$SupportLocalImpl@VBoxV@Gu@physx@@@Gu@physx@@UEBA?AT__m128@@AEBT4@@Z 0000000180010a20 f i GuGeometryQuery.obj
 0001:0000fa50       ?doSupport@?$SupportLocalImpl@VBoxV@Gu@physx@@@Gu@physx@@UEBAXAEBT__m128@@AEAT4@1@Z 0000000180010a50 f i GuGeometryQuery.obj
 0001:0000faa0       ?doSupport@?$SupportLocalImpl@VConvexHullV@Gu@physx@@@Gu@physx@@UEBA?AT__m128@@AEBT4@@Z 0000000180010aa0 f i GuGeometryQuery.obj
 0001:0000fb80       ?doSupport@?$SupportLocalImpl@VConvexHullV@Gu@physx@@@Gu@physx@@UEBAXAEBT__m128@@AEAT4@1@Z 0000000180010b80 f i GuGeometryQuery.obj
 0001:0000fee0       ?generateTriangleContacts@PxGeometryQuery@physx@@SA_NAEBVPxGeometry@2@AEBV?$PxTransformT@M@2@QEBV?$PxVec3T@M@2@IMMMAEAVPxContactBuffer@2@@Z 0000000180010ee0 f   GuGeometryQuery.obj
 0001:000118d0       ?getEmptyManifold@MultiplePersistentContactManifold@Gu@physx@@QEAAPEAVSinglePersistentContactManifold@23@XZ 00000001800128d0 f i GuGeometryQuery.obj
 0001:000118f0       ?getManifold@MultiplePersistentContactManifold@Gu@physx@@QEAAPEAVSinglePersistentContactManifold@23@I@Z 00000001800128f0 f i GuGeometryQuery.obj
 0001:000118f0       ?getManifold@MultiplePersistentContactManifold@Gu@physx@@QEBAPEBVSinglePersistentContactManifold@23@I@Z 00000001800128f0 f i GuGeometryQuery.obj
 0001:00011910       ?getUniqueID@PxCustomGeometry@physx@@SAIXZ 0000000180012910 f   GuGeometryQuery.obj
 0001:00011930       ?hillClimbing@ConvexHullV@Gu@physx@@QEBAIAEBT__m128@@@Z 0000000180012930 f i GuGeometryQuery.obj
 0001:00011b60       ?initialize@MultiplePersistentContactManifold@Gu@physx@@QEAAXXZ 0000000180012b60 f i GuGeometryQuery.obj
 0001:00011bc0       ?invalidate@MultiplePersistentContactManifold@Gu@physx@@QEBAIAEBVPxTransformV@aos@3@AEBT__m128@@1@Z 0000000180012bc0 f i GuGeometryQuery.obj
 0001:00011c30       ?invalidate@MultiplePersistentContactManifold@Gu@physx@@QEBAIAEBVPxTransformV@aos@3@AEBT__m128@@@Z 0000000180012c30 f i GuGeometryQuery.obj
 0001:00011ca0       ?isUnit@?$PxQuatT@M@physx@@QEBA_NXZ 0000000180012ca0 f i GuGeometryQuery.obj
 0001:00011d60       ?isValid@PxGeometryQuery@physx@@SA_NAEBVPxGeometry@2@@Z 0000000180012d60 f   GuGeometryQuery.obj
 0001:00012070       ?maxTransformPositionDelta@MultiplePersistentContactManifold@Gu@physx@@QEBA?AT__m128@@AEBT4@@Z 0000000180013070 f i GuGeometryQuery.obj
 0001:000120b0       ?maxTransformQuatDelta@MultiplePersistentContactManifold@Gu@physx@@QEBA?AT__m128@@AEBT4@@Z 00000001800130b0 f i GuGeometryQuery.obj
 0001:000120f0       ?overlap@PxGeometryQuery@physx@@SA_NAEBVPxGeometry@2@AEBV?$PxTransformT@M@2@01V?$PxFlags@W4Enum@PxGeometryQueryFlag@physx@@I@2@PEAUPxQueryThreadContext@2@@Z 00000001800130f0 f   GuGeometryQuery.obj
 0001:000121c0       ?pointDistance@PxGeometryQuery@physx@@SAMAEBV?$PxVec3T@M@2@AEBVPxGeometry@2@AEBV?$PxTransformT@M@2@PEAV32@PEAIV?$PxFlags@W4Enum@PxGeometryQueryFlag@physx@@I@2@@Z 00000001800131c0 f   GuGeometryQuery.obj
 0001:00012960       ?populateVerts@?$SupportLocalImpl@VBoxV@Gu@physx@@@Gu@physx@@UEBAXPEBEIPEBV?$PxVec3T@M@3@PEAT__m128@@@Z 0000000180013960 f i GuGeometryQuery.obj
 0001:000129a0       ?populateVerts@?$SupportLocalImpl@VConvexHullV@Gu@physx@@@Gu@physx@@UEBAXPEBEIPEBV?$PxVec3T@M@3@PEAT__m128@@@Z 00000001800139a0 f i GuGeometryQuery.obj
 0001:00012a00       ?raycast@PxGeometryQuery@physx@@SAIAEBV?$PxVec3T@M@2@0AEBVPxGeometry@2@AEBV?$PxTransformT@M@2@MV?$PxFlags@W4Enum@PxHitFlag@physx@@G@2@IPEIAUPxGeomRaycastHit@2@IV?$PxFlags@W4Enum@PxGeometryQueryFlag@physx@@I@2@PEAUPxQueryThreadContext@2@@Z 0000000180013a00 f   GuGeometryQuery.obj
 0001:00012b10       ?reduceManifoldContactsInDifferentPatches@MultiplePersistentContactManifold@Gu@physx@@QEBAIPEAPEAUPCMContactPatch@23@IPEAVMeshPersistentContact@23@IAEBT__m128@@@Z 0000000180013b10 f i GuGeometryQuery.obj
 0001:00012c80       ?refineContactPatchConnective@MultiplePersistentContactManifold@Gu@physx@@QEBAXPEAPEAUPCMContactPatch@23@IPEAVMeshPersistentContact@23@AEBT__m128@@@Z 0000000180013c80 f i GuGeometryQuery.obj
 0001:00012d70       ?refreshManifold@MultiplePersistentContactManifold@Gu@physx@@QEAAXAEBVPxMatTransformV@aos@3@AEBT__m128@@1@Z 0000000180013d70 f i GuGeometryQuery.obj
 0001:00012e70       ?setRelativeTransform@MultiplePersistentContactManifold@Gu@physx@@QEAAXAEBVPxTransformV@aos@3@@Z 0000000180013e70 f i GuGeometryQuery.obj
 0001:00012e80       ?supportVertexIndex@ConvexHullV@Gu@physx@@QEBAIAEBT__m128@@@Z 0000000180013e80 f i GuGeometryQuery.obj
 0001:00013100       ?sweep@PxGeometryQuery@physx@@SA_NAEBV?$PxVec3T@M@2@MAEBVPxGeometry@2@AEBV?$PxTransformT@M@2@12AEAUPxGeomSweepHit@2@V?$PxFlags@W4Enum@PxHitFlag@physx@@G@2@MV?$PxFlags@W4Enum@PxGeometryQueryFlag@physx@@I@2@PEAUPxQueryThreadContext@2@@Z 0000000180014100 f   GuGeometryQuery.obj
 0001:00013540       ?computeBoxPoints@Gu@physx@@YAXAEBVPxBounds3@2@PEIAV?$PxVec3T@M@2@@Z 0000000180014540 f   GuInternal.obj
 0001:000135e0       ?computeSweptBox@Gu@physx@@YAXAEAVBox@12@AEBV?$PxVec3T@M@2@1AEBV?$PxMat33T@M@2@1M@Z 00000001800145e0 f   GuInternal.obj
 0001:00013b00       ?getPlane@Gu@physx@@YA?AVPxPlane@2@AEBV?$PxTransformT@M@2@@Z 0000000180014b00 f   GuInternal.obj
 0001:00013f50       ??_ECallbackRaycast@RTree@Gu@physx@@UEAAPEAXI@Z 0000000180014f50 f i GuMidphaseRTree.obj
 0001:00013f50       ??_ECallbackRefit@RTree@Gu@physx@@UEAAPEAXI@Z 0000000180014f50 f i GuTriangleMeshRTree.obj
 0001:00013f50       ??_EPxInsertionCallback@physx@@MEAAPEAXI@Z 0000000180014f50 f i GuMeshFactory.obj
 0001:00013f50       ??_GCallbackRaycast@RTree@Gu@physx@@UEAAPEAXI@Z 0000000180014f50 f i GuMidphaseRTree.obj
 0001:00013f50       ??_GCallbackRefit@RTree@Gu@physx@@UEAAPEAXI@Z 0000000180014f50 f i GuTriangleMeshRTree.obj
 0001:00013f50       ??_GPxInsertionCallback@physx@@MEAAPEAXI@Z 0000000180014f50 f i GuMeshFactory.obj
 0001:00013f80       ??$copy@V?$PxReflectionAllocator@USlab@NodeAllocator@Gu@physx@@@physx@@@?$PxArray@USlab@NodeAllocator@Gu@physx@@V?$PxReflectionAllocator@USlab@NodeAllocator@Gu@physx@@@4@@physx@@IEAAXAEBV01@@Z 0000000180014f80 f i GuMeshFactory.obj
 0001:00014040       ??0AABBTreeBounds@Gu@physx@@QEAA@XZ 0000000180015040 f i GuMeshFactory.obj
 0001:00014050       ??0AABBTreeBuildNode@Gu@physx@@QEAA@AEBV012@@Z 0000000180015050 f i GuMeshFactory.obj
 0001:00014050       ??4AABBTreeBuildNode@Gu@physx@@QEAAAEAV012@AEBV012@@Z 0000000180015050 f i GuMeshFactory.obj
 0001:00014090       ??0AABBTreeBuildParams@Gu@physx@@QEAA@IIPEBVAABBTreeBounds@12@W4BVHBuildStrategy@12@@Z 0000000180015090 f i GuMeshFactory.obj
 0001:000140b0       ??0MeshFactory@Gu@physx@@QEAA@XZ 00000001800150b0 f   GuMeshFactory.obj
 0001:000142b0       ??0NodeAllocator@Gu@physx@@QEAA@AEBV012@@Z 00000001800152b0 f i GuMeshFactory.obj
 0001:000142f0       ??0TriangleMeshData@Gu@physx@@QEAA@XZ 00000001800152f0 f i GuMeshFactory.obj
 0001:00014410       ??1AABBTreeBounds@Gu@physx@@QEAA@XZ 0000000180015410 f i GuMeshFactory.obj
 0001:00014420       ??1AABBTreeBuildParams@Gu@physx@@QEAA@XZ 0000000180015420 f i GuMeshFactory.obj
 0001:00014420       ?reset@AABBTreeBuildParams@Gu@physx@@QEAAXXZ 0000000180015420 f i GuMeshFactory.obj
 0001:00014470       ??1CollisionMeshMappingData@Gu@physx@@UEAA@XZ 0000000180015470 f i GuMeshFactory.obj
 0001:000145c0       ??1MeshDataBase@Gu@physx@@UEAA@XZ 00000001800155c0 f i GuMeshFactory.obj
 0001:00014700       ??1MeshFactory@Gu@physx@@MEAA@XZ 0000000180015700 f   GuMeshFactory.obj
 0001:00014840       ??1RTreeTriangleData@Gu@physx@@UEAA@XZ 0000000180015840 f i GuMeshFactory.obj
 0001:000148b0       ??1SoftBodyCollisionData@Gu@physx@@UEAA@XZ 00000001800158b0 f i GuMeshFactory.obj
 0001:000149f0       ??1SoftBodySimulationData@Gu@physx@@UEAA@XZ 00000001800159f0 f i GuMeshFactory.obj
 0001:00014b10       ??1TetrahedronMeshData@Gu@physx@@QEAA@XZ 0000000180015b10 f i GuMeshFactory.obj
 0001:00014ba0       ??1TriangleMeshData@Gu@physx@@UEAA@XZ 0000000180015ba0 f i GuMeshFactory.obj
 0001:00014cd0       ??4NodeAllocator@Gu@physx@@QEAAAEAV012@AEBV012@@Z 0000000180015cd0 f i GuMeshFactory.obj
 0001:00014d80       ??_EMeshFactory@Gu@physx@@MEAAPEAXI@Z 0000000180015d80 f i GuMeshFactory.obj
 0001:00014ea0       ??_FAABBTreeBuildParams@Gu@physx@@QEAAXXZ 0000000180015ea0 f i GuMeshFactory.obj
 0001:00014ec0       ??_EBV4TriangleData@Gu@physx@@UEAAPEAXI@Z 0000000180015ec0 f i GuMeshFactory.obj
 0001:00014ec0       ??_GBV4TriangleData@Gu@physx@@UEAAPEAXI@Z 0000000180015ec0 f i GuMeshFactory.obj
 0001:00014f50       ??_ECollisionMeshMappingData@Gu@physx@@UEAAPEAXI@Z 0000000180015f50 f i GuMeshFactory.obj
 0001:00014f50       ??_GCollisionMeshMappingData@Gu@physx@@UEAAPEAXI@Z 0000000180015f50 f i GuMeshFactory.obj
 0001:00014fc0       ??_EMeshDataBase@Gu@physx@@UEAAPEAXI@Z 0000000180015fc0 f i GuMeshFactory.obj
 0001:00014fc0       ??_GMeshDataBase@Gu@physx@@UEAAPEAXI@Z 0000000180015fc0 f i GuMeshFactory.obj
 0001:00015030       ??_EPxCollisionMeshMappingData@physx@@UEAAPEAXI@Z 0000000180016030 f i GuMeshFactory.obj
 0001:00015030       ??_GPxCollisionMeshMappingData@physx@@UEAAPEAXI@Z 0000000180016030 f i GuMeshFactory.obj
 0001:00015080       ??_ERTreeTriangleData@Gu@physx@@UEAAPEAXI@Z 0000000180016080 f i GuMeshFactory.obj
 0001:00015080       ??_GRTreeTriangleData@Gu@physx@@UEAAPEAXI@Z 0000000180016080 f i GuMeshFactory.obj
 0001:00015130       ??_ESoftBodyCollisionData@Gu@physx@@UEAAPEAXI@Z 0000000180016130 f i GuMeshFactory.obj
 0001:00015130       ??_GSoftBodyCollisionData@Gu@physx@@UEAAPEAXI@Z 0000000180016130 f i GuMeshFactory.obj
 0001:000151a0       ??_ESoftBodySimulationData@Gu@physx@@UEAAPEAXI@Z 00000001800161a0 f i GuMeshFactory.obj
 0001:000151a0       ??_GSoftBodySimulationData@Gu@physx@@UEAAPEAXI@Z 00000001800161a0 f i GuMeshFactory.obj
 0001:00015210       ??_ETriangleMeshData@Gu@physx@@UEAAPEAXI@Z 0000000180016210 f i GuMeshFactory.obj
 0001:00015210       ??_GTriangleMeshData@Gu@physx@@UEAAPEAXI@Z 0000000180016210 f i GuMeshFactory.obj
 0001:00015280       ??_V@YAXPEAX_K@Z           0000000180016280 f i LIBCMT:delete_array_size.obj
 0001:00015280       ?__global_delete@@YAXPEAX_K@Z 0000000180016280 f i GuMeshFactory.obj
 0001:00015290       ?addBVH@MeshFactory@Gu@physx@@QEAAXPEAVBVH@23@_N@Z 0000000180016290 f   GuMeshFactory.obj
 0001:00015310       ?addConvexMesh@MeshFactory@Gu@physx@@QEAAXPEAVConvexMesh@23@_N@Z 0000000180016310 f   GuMeshFactory.obj
 0001:00015390       ?addFactoryListener@MeshFactory@Gu@physx@@QEAAXAEAVMeshFactoryListener@23@@Z 0000000180016390 f   GuMeshFactory.obj
 0001:00015400       ?addHeightField@MeshFactory@Gu@physx@@QEAAXPEAVHeightField@23@_N@Z 0000000180016400 f   GuMeshFactory.obj
 0001:00015480       ?addSoftBodyMesh@MeshFactory@Gu@physx@@QEAAXPEAVSoftBodyMesh@23@_N@Z 0000000180016480 f   GuMeshFactory.obj
 0001:00015500       ?addTetrahedronMesh@MeshFactory@Gu@physx@@QEAAXPEAVTetrahedronMesh@23@_N@Z 0000000180016500 f   GuMeshFactory.obj
 0001:00015580       ?addTriangleMesh@MeshFactory@Gu@physx@@QEAAXPEAVTriangleMesh@23@_N@Z 0000000180016580 f   GuMeshFactory.obj
 0001:00015600       ?allocate@?$PxArray@USlab@NodeAllocator@Gu@physx@@V?$PxReflectionAllocator@USlab@NodeAllocator@Gu@physx@@@4@@physx@@IEAAPEAUSlab@NodeAllocator@Gu@2@IPEAI@Z 0000000180016600 f i GuMeshFactory.obj
 0001:00015690       ?allocateAdjacencies@TriangleMeshData@Gu@physx@@QEAAPEAIXZ 0000000180016690 f i GuMeshFactory.obj
 0001:00015700       ?allocateExtraTrigData@TriangleMeshData@Gu@physx@@QEAAPEAEXZ 0000000180016700 f i GuMeshFactory.obj
 0001:00015770       ?allocateFaceRemap@TriangleMeshData@Gu@physx@@QEAAPEAIXZ 0000000180016770 f i GuMeshFactory.obj
 0001:000157e0       ?allocateGridModelData@SoftBodySimulationData@Gu@physx@@QEAAXIIIIIII@Z 00000001800167e0 f i GuMeshFactory.obj
 0001:00015a50       ?allocateMaterials@TetrahedronMeshData@Gu@physx@@QEAAPEAGXZ 0000000180016a50 f i GuMeshFactory.obj
 0001:00015ac0       ?allocateMaterials@TriangleMeshData@Gu@physx@@QEAAPEAGXZ 0000000180016ac0 f i GuMeshFactory.obj
 0001:00015b30       ?allocateTetrahedrons@TetrahedronMeshData@Gu@physx@@QEAAXII@Z 0000000180016b30 f i GuMeshFactory.obj
 0001:00015bc0       ?allocateTriangles@TriangleMeshData@Gu@physx@@QEAAPEAXI_NI@Z 0000000180016bc0 f i GuMeshFactory.obj
 0001:00015cb0       ?allocateVertices@MeshDataBase@Gu@physx@@QEAAPEAV?$PxVec3T@M@3@I@Z 0000000180016cb0 f i GuMeshFactory.obj
 0001:00015d20       ?allocateVertices@TetrahedronMeshData@Gu@physx@@QEAAPEAV?$PxVec3T@M@3@II@Z 0000000180016d20 f i GuMeshFactory.obj
 0001:00015dc0       ?allocatemappingData@CollisionMeshMappingData@Gu@physx@@QEAAXIIII@Z 0000000180016dc0 f i GuMeshFactory.obj
 0001:00015fa0       ?create@?$PxHashBase@PEAVBVH@Gu@physx@@PEAV123@U?$PxHash@PEAVBVH@Gu@physx@@@3@UGetKey@?$PxHashSetBase@PEAVBVH@Gu@physx@@U?$PxHash@PEAVBVH@Gu@physx@@@3@VPxAllocator@3@$00@3@VPxAllocator@3@$00@physx@@QEAAPEAPEAVBVH@Gu@2@AEBQEAV342@AEA_N@Z 0000000180016fa0 f i GuMeshFactory.obj
 0001:00015fa0       ?create@?$PxHashBase@PEAVConvexMesh@Gu@physx@@PEAV123@U?$PxHash@PEAVConvexMesh@Gu@physx@@@3@UGetKey@?$PxHashSetBase@PEAVConvexMesh@Gu@physx@@U?$PxHash@PEAVConvexMesh@Gu@physx@@@3@VPxAllocator@3@$00@3@VPxAllocator@3@$00@physx@@QEAAPEAPEAVConvexMesh@Gu@2@AEBQEAV342@AEA_N@Z 0000000180016fa0 f i GuMeshFactory.obj
 0001:00015fa0       ?create@?$PxHashBase@PEAVHeightField@Gu@physx@@PEAV123@U?$PxHash@PEAVHeightField@Gu@physx@@@3@UGetKey@?$PxHashSetBase@PEAVHeightField@Gu@physx@@U?$PxHash@PEAVHeightField@Gu@physx@@@3@VPxAllocator@3@$00@3@VPxAllocator@3@$00@physx@@QEAAPEAPEAVHeightField@Gu@2@AEBQEAV342@AEA_N@Z 0000000180016fa0 f i GuMeshFactory.obj
 0001:00015fa0       ?create@?$PxHashBase@PEAVSoftBodyMesh@Gu@physx@@PEAV123@U?$PxHash@PEAVSoftBodyMesh@Gu@physx@@@3@UGetKey@?$PxHashSetBase@PEAVSoftBodyMesh@Gu@physx@@U?$PxHash@PEAVSoftBodyMesh@Gu@physx@@@3@VPxAllocator@3@$00@3@VPxAllocator@3@$00@physx@@QEAAPEAPEAVSoftBodyMesh@Gu@2@AEBQEAV342@AEA_N@Z 0000000180016fa0 f i GuMeshFactory.obj
 0001:00015fa0       ?create@?$PxHashBase@PEAVTetrahedronMesh@Gu@physx@@PEAV123@U?$PxHash@PEAVTetrahedronMesh@Gu@physx@@@3@UGetKey@?$PxHashSetBase@PEAVTetrahedronMesh@Gu@physx@@U?$PxHash@PEAVTetrahedronMesh@Gu@physx@@@3@VPxAllocator@3@$00@3@VPxAllocator@3@$00@physx@@QEAAPEAPEAVTetrahedronMesh@Gu@2@AEBQEAV342@AEA_N@Z 0000000180016fa0 f i GuMeshFactory.obj
 0001:00015fa0       ?create@?$PxHashBase@PEAVTriangleMesh@Gu@physx@@PEAV123@U?$PxHash@PEAVTriangleMesh@Gu@physx@@@3@UGetKey@?$PxHashSetBase@PEAVTriangleMesh@Gu@physx@@U?$PxHash@PEAVTriangleMesh@Gu@physx@@@3@VPxAllocator@3@$00@3@VPxAllocator@3@$00@physx@@QEAAPEAPEAVTriangleMesh@Gu@2@AEBQEAV342@AEA_N@Z 0000000180016fa0 f i GuMeshFactory.obj
 0001:00016130       ?createBVH@MeshFactory@Gu@physx@@IEAAPEAVPxBVH@3@AEAVBVHData@23@@Z 0000000180017130 f   GuMeshFactory.obj
 0001:00016220       ?createBVH@MeshFactory@Gu@physx@@QEAAPEAVPxBVH@3@AEAVPxInputStream@3@@Z 0000000180017220 f   GuMeshFactory.obj
 0001:00016340       ?createBVH@MeshFactory@Gu@physx@@QEAAPEAVPxBVH@3@PEAX@Z 0000000180017340 f   GuMeshFactory.obj
 0001:00016350       ?createConvexMesh@MeshFactory@Gu@physx@@IEAAPEAVPxConvexMesh@3@AEAUConvexHullInitData@23@@Z 0000000180017350 f   GuMeshFactory.obj
 0001:00016440       ?createConvexMesh@MeshFactory@Gu@physx@@QEAAPEAVPxConvexMesh@3@AEAVPxInputStream@3@@Z 0000000180017440 f   GuMeshFactory.obj
 0001:00016560       ?createConvexMesh@MeshFactory@Gu@physx@@QEAAPEAVPxConvexMesh@3@PEAX@Z 0000000180017560 f   GuMeshFactory.obj
 0001:00016570       ?createHeightField@MeshFactory@Gu@physx@@QEAAPEAVPxHeightField@3@AEAVPxInputStream@3@@Z 0000000180017570 f   GuMeshFactory.obj
 0001:00016690       ?createHeightField@MeshFactory@Gu@physx@@QEAAPEAVPxHeightField@3@PEAX@Z 0000000180017690 f   GuMeshFactory.obj
 0001:00016780       ?createSoftBodyMesh@MeshFactory@Gu@physx@@IEAAPEAVPxSoftBodyMesh@3@AEAVSoftBodyMeshData@23@@Z 0000000180017780 f   GuMeshFactory.obj
 0001:00016870       ?createSoftBodyMesh@MeshFactory@Gu@physx@@QEAAPEAVPxSoftBodyMesh@3@AEAVPxInputStream@3@@Z 0000000180017870 f   GuMeshFactory.obj
 0001:00016e60       ?createSoftBodyMesh@MeshFactory@Gu@physx@@QEAAPEAVPxSoftBodyMesh@3@PEAX@Z 0000000180017e60 f   GuMeshFactory.obj
 0001:00016e70       ?createTetrahedronMesh@MeshFactory@Gu@physx@@IEAAPEAVPxTetrahedronMesh@3@AEAVTetrahedronMeshData@23@@Z 0000000180017e70 f   GuMeshFactory.obj
 0001:00016f60       ?createTetrahedronMesh@MeshFactory@Gu@physx@@QEAAPEAVPxTetrahedronMesh@3@AEAVPxInputStream@3@@Z 0000000180017f60 f   GuMeshFactory.obj
 0001:00016fd0       ?createTetrahedronMesh@MeshFactory@Gu@physx@@QEAAPEAVPxTetrahedronMesh@3@PEAX@Z 0000000180017fd0 f   GuMeshFactory.obj
 0001:00016fe0       ?createTriangleMesh@MeshFactory@Gu@physx@@IEAAPEAVPxTriangleMesh@3@AEAVTriangleMeshData@23@@Z 0000000180017fe0 f   GuMeshFactory.obj
 0001:00017160       ?createTriangleMesh@MeshFactory@Gu@physx@@QEAAPEAVPxTriangleMesh@3@AEAVPxInputStream@3@@Z 0000000180018160 f   GuMeshFactory.obj
 0001:000171c0       ?createTriangleMesh@MeshFactory@Gu@physx@@QEAAPEAVPxTriangleMesh@3@PEAX@Z 00000001800181c0 f   GuMeshFactory.obj
 0001:000171d0       ?erase@?$PxHashBase@PEAVBVH@Gu@physx@@PEAV123@U?$PxHash@PEAVBVH@Gu@physx@@@3@UGetKey@?$PxHashSetBase@PEAVBVH@Gu@physx@@U?$PxHash@PEAVBVH@Gu@physx@@@3@VPxAllocator@3@$00@3@VPxAllocator@3@$00@physx@@QEAA_NAEBQEAVBVH@Gu@2@@Z 00000001800181d0 f i GuMeshFactory.obj
 0001:000171d0       ?erase@?$PxHashBase@PEAVConvexMesh@Gu@physx@@PEAV123@U?$PxHash@PEAVConvexMesh@Gu@physx@@@3@UGetKey@?$PxHashSetBase@PEAVConvexMesh@Gu@physx@@U?$PxHash@PEAVConvexMesh@Gu@physx@@@3@VPxAllocator@3@$00@3@VPxAllocator@3@$00@physx@@QEAA_NAEBQEAVConvexMesh@Gu@2@@Z 00000001800181d0 f i GuMeshFactory.obj
 0001:000171d0       ?erase@?$PxHashBase@PEAVHeightField@Gu@physx@@PEAV123@U?$PxHash@PEAVHeightField@Gu@physx@@@3@UGetKey@?$PxHashSetBase@PEAVHeightField@Gu@physx@@U?$PxHash@PEAVHeightField@Gu@physx@@@3@VPxAllocator@3@$00@3@VPxAllocator@3@$00@physx@@QEAA_NAEBQEAVHeightField@Gu@2@@Z 00000001800181d0 f i GuMeshFactory.obj
 0001:000171d0       ?erase@?$PxHashBase@PEAVSoftBodyMesh@Gu@physx@@PEAV123@U?$PxHash@PEAVSoftBodyMesh@Gu@physx@@@3@UGetKey@?$PxHashSetBase@PEAVSoftBodyMesh@Gu@physx@@U?$PxHash@PEAVSoftBodyMesh@Gu@physx@@@3@VPxAllocator@3@$00@3@VPxAllocator@3@$00@physx@@QEAA_NAEBQEAVSoftBodyMesh@Gu@2@@Z 00000001800181d0 f i GuMeshFactory.obj
 0001:000171d0       ?erase@?$PxHashBase@PEAVTetrahedronMesh@Gu@physx@@PEAV123@U?$PxHash@PEAVTetrahedronMesh@Gu@physx@@@3@UGetKey@?$PxHashSetBase@PEAVTetrahedronMesh@Gu@physx@@U?$PxHash@PEAVTetrahedronMesh@Gu@physx@@@3@VPxAllocator@3@$00@3@VPxAllocator@3@$00@physx@@QEAA_NAEBQEAVTetrahedronMesh@Gu@2@@Z 00000001800181d0 f i GuMeshFactory.obj
 0001:000171d0       ?erase@?$PxHashBase@PEAVTriangleMesh@Gu@physx@@PEAV123@U?$PxHash@PEAVTriangleMesh@Gu@physx@@@3@UGetKey@?$PxHashSetBase@PEAVTriangleMesh@Gu@physx@@U?$PxHash@PEAVTriangleMesh@Gu@physx@@@3@VPxAllocator@3@$00@3@VPxAllocator@3@$00@physx@@QEAA_NAEBQEAVTriangleMesh@Gu@2@@Z 00000001800181d0 f i GuMeshFactory.obj
 0001:00017350       ?getBVHs@MeshFactory@Gu@physx@@QEBAIPEAPEAVPxBVH@3@II@Z 0000000180018350 f   GuMeshFactory.obj
 0001:000173f0       ?getBounds@AABBTreeBounds@Gu@physx@@QEAAPEAVPxBounds3@3@XZ 00000001800183f0 f i GuMeshFactory.obj
 0001:000173f0       ?getBounds@AABBTreeBounds@Gu@physx@@QEBAPEBVPxBounds3@3@XZ 00000001800183f0 f i GuMeshFactory.obj
 0001:00017400       ?getConvexMeshes@MeshFactory@Gu@physx@@QEBAIPEAPEAVPxConvexMesh@3@II@Z 0000000180018400 f   GuMeshFactory.obj
 0001:000174a0       ?getHeightFields@MeshFactory@Gu@physx@@QEBAIPEAPEAVPxHeightField@3@II@Z 00000001800184a0 f   GuMeshFactory.obj
 0001:00017540       ?getNbBVHs@MeshFactory@Gu@physx@@QEBAIXZ 0000000180018540 f   GuMeshFactory.obj
 0001:00017580       ?getNbConvexMeshes@MeshFactory@Gu@physx@@QEBAIXZ 0000000180018580 f   GuMeshFactory.obj
 0001:000175c0       ?getNbHeightFields@MeshFactory@Gu@physx@@QEBAIXZ 00000001800185c0 f   GuMeshFactory.obj
 0001:00017600       ?getNbPrimitives@AABBTreeBuildNode@Gu@physx@@QEBAIXZ 0000000180018600 f i GuMeshFactory.obj
 0001:00017600       ?getNbRuntimePrimitives@AABBTreeBuildNode@Gu@physx@@QEBAIXZ 0000000180018600 f i GuMeshFactory.obj
 0001:00017610       ?getNbSoftBodyMeshes@MeshFactory@Gu@physx@@QEBAIXZ 0000000180018610 f   GuMeshFactory.obj
 0001:00017650       ?getNbTetrahedronMeshes@MeshFactory@Gu@physx@@QEBAIXZ 0000000180018650 f   GuMeshFactory.obj
 0001:00017690       ?getNbTriangleMeshes@MeshFactory@Gu@physx@@QEBAIXZ 0000000180018690 f   GuMeshFactory.obj
 0001:000176d0       ?getNeg@AABBTreeBuildNode@Gu@physx@@QEBAPEBV123@XZ 00000001800186d0 f i GuMeshFactory.obj
 0001:000176f0       ?getPrimitives@AABBTreeBuildNode@Gu@physx@@QEAAPEAIPEAI@Z 00000001800186f0 f i GuMeshFactory.obj
 0001:000176f0       ?getPrimitives@AABBTreeBuildNode@Gu@physx@@QEBAPEBIPEBI@Z 00000001800186f0 f i GuMeshFactory.obj
 0001:00017700       ?getSoftBodyMeshes@MeshFactory@Gu@physx@@QEBAIPEAPEAVPxSoftBodyMesh@3@II@Z 0000000180018700 f   GuMeshFactory.obj
 0001:000177a0       ?getTetrahedronMeshes@MeshFactory@Gu@physx@@QEBAIPEAPEAVPxTetrahedronMesh@3@II@Z 00000001800187a0 f   GuMeshFactory.obj
 0001:00017830       ?getTriangleMeshes@MeshFactory@Gu@physx@@QEBAIPEAPEAVPxTriangleMesh@3@II@Z 0000000180018830 f   GuMeshFactory.obj
 0001:000178c0       ?growAndPushBack@?$PxArray@PEAVMeshFactoryListener@Gu@physx@@V?$PxReflectionAllocator@PEAVMeshFactoryListener@Gu@physx@@@3@@physx@@IEAAAEAPEAVMeshFactoryListener@Gu@2@AEBQEAV342@@Z 00000001800188c0 f i GuMeshFactory.obj
 0001:000179e0       ?isLeaf@AABBTreeBuildNode@Gu@physx@@QEBA_NXZ 00000001800189e0 f i GuMeshFactory.obj
 0001:00019490       ?moveFrom@AABBTreeBounds@Gu@physx@@QEAAXAEAV123@@Z 000000018001a490 f i GuMeshFactory.obj
 0001:000194a0       ?notifyFactoryListener@MeshFactory@Gu@physx@@QEAAXPEBVPxBase@3@G@Z 000000018001a4a0 f   GuMeshFactory.obj
 0001:00019510       ?ownsMemory@AABBTreeBounds@Gu@physx@@QEBA_NXZ 000000018001a510 f i GuMeshFactory.obj
 0001:000197f0       ?recreate@?$PxArray@USlab@NodeAllocator@Gu@physx@@V?$PxReflectionAllocator@USlab@NodeAllocator@Gu@physx@@@4@@physx@@IEAAXI@Z 000000018001a7f0 f i GuMeshFactory.obj
 0001:000198e0       ?release@CollisionMeshMappingData@Gu@physx@@UEAAXXZ 000000018001a8e0 f i GuMeshFactory.obj
 0001:00019900       ?release@MeshFactory@Gu@physx@@QEAAXXZ 000000018001a900 f   GuMeshFactory.obj
 0001:00019a00       ?remove@MeshFactory@Gu@physx@@QEAA_NAEAVPxBase@3@@Z 000000018001aa00 f   GuMeshFactory.obj
 0001:00019b00       ?removeBVH@MeshFactory@Gu@physx@@QEAA_NAEAVPxBVH@3@@Z 000000018001ab00 f   GuMeshFactory.obj
 0001:00019b50       ?removeConvexMesh@MeshFactory@Gu@physx@@QEAA_NAEAVPxConvexMesh@3@@Z 000000018001ab50 f   GuMeshFactory.obj
 0001:00019ba0       ?removeFactoryListener@MeshFactory@Gu@physx@@QEAAXAEAVMeshFactoryListener@23@@Z 000000018001aba0 f   GuMeshFactory.obj
 0001:00019c30       ?removeHeightField@MeshFactory@Gu@physx@@QEAA_NAEAVPxHeightField@3@@Z 000000018001ac30 f   GuMeshFactory.obj
 0001:00019c80       ?removeSoftBodyMesh@MeshFactory@Gu@physx@@QEAA_NAEAVPxSoftBodyMesh@3@@Z 000000018001ac80 f   GuMeshFactory.obj
 0001:00019cd0       ?removeTetrahedronMesh@MeshFactory@Gu@physx@@QEAA_NAEAVPxTetrahedronMesh@3@@Z 000000018001acd0 f   GuMeshFactory.obj
 0001:00019d20       ?removeTriangleMesh@MeshFactory@Gu@physx@@QEAA_NAEAVPxTriangleMesh@3@@Z 000000018001ad20 f   GuMeshFactory.obj
 0001:00019d70       ?reserveInternal@?$PxHashBase@PEAVBVH@Gu@physx@@PEAV123@U?$PxHash@PEAVBVH@Gu@physx@@@3@UGetKey@?$PxHashSetBase@PEAVBVH@Gu@physx@@U?$PxHash@PEAVBVH@Gu@physx@@@3@VPxAllocator@3@$00@3@VPxAllocator@3@$00@physx@@AEAAXI@Z 000000018001ad70 f i GuMeshFactory.obj
 0001:00019d70       ?reserveInternal@?$PxHashBase@PEAVConvexMesh@Gu@physx@@PEAV123@U?$PxHash@PEAVConvexMesh@Gu@physx@@@3@UGetKey@?$PxHashSetBase@PEAVConvexMesh@Gu@physx@@U?$PxHash@PEAVConvexMesh@Gu@physx@@@3@VPxAllocator@3@$00@3@VPxAllocator@3@$00@physx@@AEAAXI@Z 000000018001ad70 f i GuMeshFactory.obj
 0001:00019d70       ?reserveInternal@?$PxHashBase@PEAVHeightField@Gu@physx@@PEAV123@U?$PxHash@PEAVHeightField@Gu@physx@@@3@UGetKey@?$PxHashSetBase@PEAVHeightField@Gu@physx@@U?$PxHash@PEAVHeightField@Gu@physx@@@3@VPxAllocator@3@$00@3@VPxAllocator@3@$00@physx@@AEAAXI@Z 000000018001ad70 f i GuMeshFactory.obj
 0001:00019d70       ?reserveInternal@?$PxHashBase@PEAVSoftBodyMesh@Gu@physx@@PEAV123@U?$PxHash@PEAVSoftBodyMesh@Gu@physx@@@3@UGetKey@?$PxHashSetBase@PEAVSoftBodyMesh@Gu@physx@@U?$PxHash@PEAVSoftBodyMesh@Gu@physx@@@3@VPxAllocator@3@$00@3@VPxAllocator@3@$00@physx@@AEAAXI@Z 000000018001ad70 f i GuMeshFactory.obj
 0001:00019d70       ?reserveInternal@?$PxHashBase@PEAVTetrahedronMesh@Gu@physx@@PEAV123@U?$PxHash@PEAVTetrahedronMesh@Gu@physx@@@3@UGetKey@?$PxHashSetBase@PEAVTetrahedronMesh@Gu@physx@@U?$PxHash@PEAVTetrahedronMesh@Gu@physx@@@3@VPxAllocator@3@$00@3@VPxAllocator@3@$00@physx@@AEAAXI@Z 000000018001ad70 f i GuMeshFactory.obj
 0001:00019d70       ?reserveInternal@?$PxHashBase@PEAVTriangleMesh@Gu@physx@@PEAV123@U?$PxHash@PEAVTriangleMesh@Gu@physx@@@3@UGetKey@?$PxHashSetBase@PEAVTriangleMesh@Gu@physx@@U?$PxHash@PEAVTriangleMesh@Gu@physx@@@3@VPxAllocator@3@$00@3@VPxAllocator@3@$00@physx@@AEAAXI@Z 000000018001ad70 f i GuMeshFactory.obj
 0001:00019f40       ?setBounds@AABBTreeBounds@Gu@physx@@QEAAXPEAVPxBounds3@3@@Z 000000018001af40 f i GuMeshFactory.obj
 0001:00019f50       ?setNbRunTimePrimitives@AABBTreeBuildNode@Gu@physx@@QEAAXI@Z 000000018001af50 f i GuMeshFactory.obj
 0001:00019f60       ?takeOwnership@AABBTreeBounds@Gu@physx@@QEAAXXZ 000000018001af60 f i GuMeshFactory.obj
 0001:00019f70       getInsertionCallback       000000018001af70 f   GuMeshFactory.obj
 0001:00019f80       ??4BigConvexData@physx@@QEAAAEAV01@AEBV01@@Z 000000018001af80 f i GuMetaData.obj
 0001:00019fa0       ?GetAdjacentVerts@BigConvexData@physx@@QEBAPEBEXZ 000000018001afa0 f i GuMetaData.obj
 0001:00019fa0       ?getSoftBodyAuxData@SoftBodyMesh@Gu@physx@@UEAAPEAVPxSoftBodyAuxData@3@XZ 000000018001afa0 f i GuTetrahedronMesh.obj
 0001:00019fa0       ?getSoftBodyAuxData@SoftBodyMesh@Gu@physx@@UEBAPEBVPxSoftBodyAuxData@3@XZ 000000018001afa0 f i GuTetrahedronMesh.obj
 0001:00019fa0       ?getTransforms@PruningPool@Gu@physx@@QEAAPEAV?$PxTransformT@M@3@XZ 000000018001afa0 f i GuIncrementalAABBPrunerCore.obj
 0001:00019fa0       ?getTransforms@PruningPool@Gu@physx@@QEBAPEBV?$PxTransformT@M@3@XZ 000000018001afa0 f i GuIncrementalAABBPrunerCore.obj
 0001:00019fa0       ?getTriangles@TriangleMesh@Gu@physx@@UEBAPEBXXZ 000000018001afa0 f i GuTriangleMesh.obj
 0001:00019fb0       ?GetNbNeighbors@BigConvexData@physx@@QEBAGI@Z 000000018001afb0 f i GuMetaData.obj
 0001:00019fb0       ?GetValency@BigConvexData@physx@@QEBAGI@Z 000000018001afb0 f i GuMetaData.obj
 0001:00019fc0       ?GetNbSamples@BigConvexData@physx@@QEBAIXZ 000000018001afc0 f i GuMetaData.obj
 0001:00019fd0       ?GetNbVerts@BigConvexData@physx@@QEBAIXZ 000000018001afd0 f i GuMetaData.obj
 0001:00019fd0       ?getNbVertices@TetrahedronMesh@Gu@physx@@UEBAIXZ 000000018001afd0 f i GuTetrahedronMesh.obj
 0001:00019fd0       ?getNbVertices@TriangleMesh@Gu@physx@@UEBAIXZ 000000018001afd0 f i GuTriangleMesh.obj
 0001:00019fd0       ?length@pcharNode@@UEBAHXZ 000000018001afd0 f i libvcruntime:undname.obj
 0001:00019fd0       ?raw_length@pcharNode@@UEBAHXZ 000000018001afd0 f i libvcruntime:undname.obj
 0001:00019fe0       ?GetNeighbors@BigConvexData@physx@@QEBAPEBEI@Z 000000018001afe0 f i GuMetaData.obj
 0001:00019ff0       ?GetOffset@BigConvexData@physx@@QEBAGI@Z 000000018001aff0 f i GuMetaData.obj
 0001:0001a000       ?GetSubdiv@BigConvexData@physx@@QEBAIXZ 000000018001b000 f i GuMetaData.obj
 0001:0001a010       ?getBinaryMetaData@BV4Tree@Gu@physx@@SAXAEAVPxOutputStream@3@@Z 000000018001b010 f   GuMetaData.obj
 0001:0001a5d0       ?getBinaryMetaData@BV4TriangleMesh@Gu@physx@@SAXAEAVPxOutputStream@3@@Z 000000018001b5d0 f   GuMetaData.obj
 0001:0001a970       ?getBinaryMetaData@BigConvexData@physx@@SAXAEAVPxOutputStream@2@@Z 000000018001b970 f   GuMetaData.obj
 0001:0001ac50       ?getBinaryMetaData@ConvexMesh@Gu@physx@@SAXAEAVPxOutputStream@3@@Z 000000018001bc50 f   GuMetaData.obj
 0001:0001b300       ?getBinaryMetaData@HeightField@Gu@physx@@SAXAEAVPxOutputStream@3@@Z 000000018001c300 f   GuMetaData.obj
 0001:0001b710       ?getBinaryMetaData@RTree@Gu@physx@@SAXAEAVPxOutputStream@3@@Z 000000018001c710 f   GuMetaData.obj
 0001:0001ba60       ?getBinaryMetaData@RTreeTriangleMesh@Gu@physx@@SAXAEAVPxOutputStream@3@@Z 000000018001ca60 f   GuMetaData.obj
 0001:0001bb50       ?getBinaryMetaData@SDF@Gu@physx@@SAXAEAVPxOutputStream@3@@Z 000000018001cb50 f   GuMetaData.obj
 0001:0001c050       ?getBinaryMetaData@TriangleMesh@Gu@physx@@SAXAEAVPxOutputStream@3@@Z 000000018001d050 f   GuMetaData.obj
 0001:0001d7b0       ?doSupport@?$SupportLocalImpl@VConvexHullNoScaleV@Gu@physx@@@Gu@physx@@UEBA?AT__m128@@AEBT4@@Z 000000018001e7b0 f i GuMTD.obj
 0001:0001d800       ?doSupport@?$SupportLocalImpl@VConvexHullNoScaleV@Gu@physx@@@Gu@physx@@UEBAXAEBT__m128@@AEAT4@1@Z 000000018001e800 f i GuMTD.obj
 0001:0001d980       ?populateVerts@?$SupportLocalImpl@VConvexHullNoScaleV@Gu@physx@@@Gu@physx@@UEBAXPEBEIPEBV?$PxVec3T@M@3@PEAT__m128@@@Z 000000018001e980 f i GuMTD.obj
 0001:0001d9c0       ?getInternalData@TriangleMesh@Gu@physx@@UEBA_NAEAUPxTriangleMeshInternalData@3@_N@Z 000000018001e9c0 f   GuTriangleMesh.obj
 0001:0001d9c0       ?isDynamic@Pruner@Gu@physx@@UEBA_NXZ 000000018001e9c0 f   GuIncrementalAABBPruner.obj
 0001:0001f810       ??$gjk@U?$LocalConvex@VCapsuleV@Gu@physx@@@Gu@physx@@U?$LocalConvex@VConvexHullV@Gu@physx@@@23@@Gu@physx@@YA?AW4GjkStatus@01@AEBU?$LocalConvex@VCapsuleV@Gu@physx@@@01@AEBU?$LocalConvex@VConvexHullV@Gu@physx@@@01@AEBT__m128@@2AEAT5@333@Z 0000000180020810 f i GuMTD.obj
 0001:00020480       ??_E?$LocalConvex@UCustomConvexV@@@Gu@physx@@UEAAPEAXI@Z 0000000180021480 f i GuGjkQuery.obj
 0001:00020480       ??_E?$LocalConvex@UPointConvexV@@@Gu@physx@@UEAAPEAXI@Z 0000000180021480 f i GuGjkQuery.obj
 0001:00020480       ??_E?$LocalConvex@VBoxV@Gu@physx@@@Gu@physx@@UEAAPEAXI@Z 0000000180021480 f i GuSweepTests.obj
 0001:00020480       ??_E?$LocalConvex@VCapsuleV@Gu@physx@@@Gu@physx@@UEAAPEAXI@Z 0000000180021480 f i GuMTD.obj
 0001:00020480       ??_E?$LocalConvex@VConvexHullNoScaleV@Gu@physx@@@Gu@physx@@UEAAPEAXI@Z 0000000180021480 f i GuPCMContactBoxConvex.obj
 0001:00020480       ??_E?$LocalConvex@VConvexHullV@Gu@physx@@@Gu@physx@@UEAAPEAXI@Z 0000000180021480 f i GuMTD.obj
 0001:00020480       ??_E?$LocalConvex@VTetrahedronV@Gu@physx@@@Gu@physx@@UEAAPEAXI@Z 0000000180021480 f i GuCookingTetrahedronMesh.obj
 0001:00020480       ??_E?$LocalConvex@VTriangleV@Gu@physx@@@Gu@physx@@UEAAPEAXI@Z 0000000180021480 f i GuSweepTests.obj
 0001:00020480       ??_EGjkConvex@Gu@physx@@UEAAPEAXI@Z 0000000180021480 f i GuMTD.obj
 0001:00020480       ??_G?$LocalConvex@UCustomConvexV@@@Gu@physx@@UEAAPEAXI@Z 0000000180021480 f i GuGjkQuery.obj
 0001:00020480       ??_G?$LocalConvex@UPointConvexV@@@Gu@physx@@UEAAPEAXI@Z 0000000180021480 f i GuGjkQuery.obj
 0001:00020480       ??_G?$LocalConvex@VBoxV@Gu@physx@@@Gu@physx@@UEAAPEAXI@Z 0000000180021480 f i GuSweepTests.obj
 0001:00020480       ??_G?$LocalConvex@VCapsuleV@Gu@physx@@@Gu@physx@@UEAAPEAXI@Z 0000000180021480 f i GuMTD.obj
 0001:00020480       ??_G?$LocalConvex@VConvexHullNoScaleV@Gu@physx@@@Gu@physx@@UEAAPEAXI@Z 0000000180021480 f i GuPCMContactBoxConvex.obj
 0001:00020480       ??_G?$LocalConvex@VConvexHullV@Gu@physx@@@Gu@physx@@UEAAPEAXI@Z 0000000180021480 f i GuMTD.obj
 0001:00020480       ??_G?$LocalConvex@VTetrahedronV@Gu@physx@@@Gu@physx@@UEAAPEAXI@Z 0000000180021480 f i GuCookingTetrahedronMesh.obj
 0001:00020480       ??_G?$LocalConvex@VTriangleV@Gu@physx@@@Gu@physx@@UEAAPEAXI@Z 0000000180021480 f i GuSweepTests.obj
 0001:00020480       ??_GGjkConvex@Gu@physx@@UEAAPEAXI@Z 0000000180021480 f i GuMTD.obj
 0001:00024400       ?getCenter@?$LocalConvex@UCustomConvexV@@@Gu@physx@@UEBA?AT__m128@@XZ 0000000180025400 f i GuGjkQuery.obj
 0001:00024400       ?getCenter@?$LocalConvex@UPointConvexV@@@Gu@physx@@UEBA?AT__m128@@XZ 0000000180025400 f i GuGjkQuery.obj
 0001:00024400       ?getCenter@?$LocalConvex@VBoxV@Gu@physx@@@Gu@physx@@UEBA?AT__m128@@XZ 0000000180025400 f i GuSweepTests.obj
 0001:00024400       ?getCenter@?$LocalConvex@VCapsuleV@Gu@physx@@@Gu@physx@@UEBA?AT__m128@@XZ 0000000180025400 f i GuMTD.obj
 0001:00024400       ?getCenter@?$LocalConvex@VConvexHullNoScaleV@Gu@physx@@@Gu@physx@@UEBA?AT__m128@@XZ 0000000180025400 f i GuPCMContactBoxConvex.obj
 0001:00024400       ?getCenter@?$LocalConvex@VConvexHullV@Gu@physx@@@Gu@physx@@UEBA?AT__m128@@XZ 0000000180025400 f i GuMTD.obj
 0001:00024400       ?getCenter@?$LocalConvex@VTetrahedronV@Gu@physx@@@Gu@physx@@UEBA?AT__m128@@XZ 0000000180025400 f i GuCookingTetrahedronMesh.obj
 0001:00024400       ?getCenter@?$LocalConvex@VTriangleV@Gu@physx@@@Gu@physx@@UEBA?AT__m128@@XZ 0000000180025400 f i GuSweepTests.obj
 0001:00024410       ?getSweepMargin@?$LocalConvex@VCapsuleV@Gu@physx@@@Gu@physx@@UEBA?AT__m128@@XZ 0000000180025410 f i GuMTD.obj
 0001:00024410       ?getSweepMargin@?$RelativeConvex@VCapsuleV@Gu@physx@@@Gu@physx@@UEBA?AT__m128@@XZ 0000000180025410 f i GuCCDSweepPrimitives.obj
 0001:00024420       ?getSweepMargin@?$LocalConvex@UCustomConvexV@@@Gu@physx@@UEBA?AT__m128@@XZ 0000000180025420 f i GuGjkQuery.obj
 0001:00024420       ?getSweepMargin@?$LocalConvex@UPointConvexV@@@Gu@physx@@UEBA?AT__m128@@XZ 0000000180025420 f i GuGjkQuery.obj
 0001:00024420       ?getSweepMargin@?$LocalConvex@VBoxV@Gu@physx@@@Gu@physx@@UEBA?AT__m128@@XZ 0000000180025420 f i GuSweepTests.obj
 0001:00024420       ?getSweepMargin@?$LocalConvex@VConvexHullNoScaleV@Gu@physx@@@Gu@physx@@UEBA?AT__m128@@XZ 0000000180025420 f i GuPCMContactBoxConvex.obj
 0001:00024420       ?getSweepMargin@?$LocalConvex@VConvexHullV@Gu@physx@@@Gu@physx@@UEBA?AT__m128@@XZ 0000000180025420 f i GuMTD.obj
 0001:00024420       ?getSweepMargin@?$RelativeConvex@UCustomConvexV@@@Gu@physx@@UEBA?AT__m128@@XZ 0000000180025420 f i GuGjkQuery.obj
 0001:00024420       ?getSweepMargin@?$RelativeConvex@VBoxV@Gu@physx@@@Gu@physx@@UEBA?AT__m128@@XZ 0000000180025420 f i GuOverlapTests.obj
 0001:00024420       ?getSweepMargin@?$RelativeConvex@VConvexHullNoScaleV@Gu@physx@@@Gu@physx@@UEBA?AT__m128@@XZ 0000000180025420 f i GuPCMContactConvexConvex.obj
 0001:00024420       ?getSweepMargin@?$RelativeConvex@VConvexHullV@Gu@physx@@@Gu@physx@@UEBA?AT__m128@@XZ 0000000180025420 f i GuOverlapTests.obj
 0001:00024440       ?getSweepMargin@GjkConvex@Gu@physx@@UEBA?AT__m128@@XZ 0000000180025440 f i GuMTD.obj
 0001:00024460       ?pointConvexDistance@@YA_NAEAV?$PxVec3T@M@physx@@0AEAMAEBV12@PEBVConvexMesh@Gu@2@AEBVPxMeshScale@2@AEBUPxTransformPadded@2@@Z 0000000180025460 f   GuMTD.obj
 0001:00025200       ?support@?$LocalConvex@VCapsuleV@Gu@physx@@@Gu@physx@@UEBA?AT__m128@@AEBT4@@Z 0000000180026200 f i GuMTD.obj
 0001:00025260       ?support@?$LocalConvex@VCapsuleV@Gu@physx@@@Gu@physx@@UEBA?AT__m128@@AEBT4@AEAH@Z 0000000180026260 f i GuMTD.obj
 0001:000252d0       ?support@?$LocalConvex@VConvexHullV@Gu@physx@@@Gu@physx@@UEBA?AT__m128@@AEBT4@@Z 00000001800262d0 f i GuMTD.obj
 0001:000253b0       ?support@?$LocalConvex@VConvexHullV@Gu@physx@@@Gu@physx@@UEBA?AT__m128@@AEBT4@AEAH@Z 00000001800263b0 f i GuMTD.obj
 0001:00025480       ?support@GjkConvex@Gu@physx@@UEBA?AT__m128@@AEBT4@@Z 0000000180026480 f i GuMTD.obj
 0001:000254a0       ?support@GjkConvex@Gu@physx@@UEBA?AT__m128@@AEBT4@AEAH@Z 00000001800264a0 f i GuMTD.obj
 0001:000254c0       ?supportPoint@?$LocalConvex@VCapsuleV@Gu@physx@@@Gu@physx@@UEBA?AT__m128@@H@Z 00000001800264c0 f i GuMTD.obj
 0001:000254f0       ?supportPoint@?$LocalConvex@VConvexHullV@Gu@physx@@@Gu@physx@@UEBA?AT__m128@@H@Z 00000001800264f0 f i GuMTD.obj
 0001:00025540       ?supportPoint@GjkConvex@Gu@physx@@UEBA?AT__m128@@H@Z 0000000180026540 f i GuMTD.obj
 0001:00025560       ?supportPoint@?$RelativeConvex@VBoxV@Gu@physx@@@Gu@physx@@UEBA?AT__m128@@H@Z 0000000180026560 f i GuOverlapTests.obj
 0001:000255c0       ?support@?$RelativeConvex@VBoxV@Gu@physx@@@Gu@physx@@UEBA?AT__m128@@AEBT4@@Z 00000001800265c0 f i GuOverlapTests.obj
 0001:00025640       ?support@?$RelativeConvex@VBoxV@Gu@physx@@@Gu@physx@@UEBA?AT__m128@@AEBT4@AEAH@Z 0000000180026640 f i GuOverlapTests.obj
 0001:000256d0       ?getCenter@?$RelativeConvex@UCustomConvexV@@@Gu@physx@@UEBA?AT__m128@@XZ 00000001800266d0 f i GuGjkQuery.obj
 0001:000256d0       ?getCenter@?$RelativeConvex@VBoxV@Gu@physx@@@Gu@physx@@UEBA?AT__m128@@XZ 00000001800266d0 f i GuOverlapTests.obj
 0001:000256d0       ?getCenter@?$RelativeConvex@VCapsuleV@Gu@physx@@@Gu@physx@@UEBA?AT__m128@@XZ 00000001800266d0 f i GuCCDSweepPrimitives.obj
 0001:000256d0       ?getCenter@?$RelativeConvex@VConvexHullNoScaleV@Gu@physx@@@Gu@physx@@UEBA?AT__m128@@XZ 00000001800266d0 f i GuPCMContactConvexConvex.obj
 0001:000256d0       ?getCenter@?$RelativeConvex@VConvexHullV@Gu@physx@@@Gu@physx@@UEBA?AT__m128@@XZ 00000001800266d0 f i GuOverlapTests.obj
 0001:000256d0       ?getCenter@?$RelativeConvex@VTriangleV@Gu@physx@@@Gu@physx@@UEBA?AT__m128@@XZ 00000001800266d0 f i GuCCDSweepPrimitives.obj
 0001:00025710       ??_E?$RelativeConvex@UCustomConvexV@@@Gu@physx@@UEAAPEAXI@Z 0000000180026710 f i GuGjkQuery.obj
 0001:00025710       ??_E?$RelativeConvex@VBoxV@Gu@physx@@@Gu@physx@@UEAAPEAXI@Z 0000000180026710 f i GuOverlapTests.obj
 0001:00025710       ??_E?$RelativeConvex@VCapsuleV@Gu@physx@@@Gu@physx@@UEAAPEAXI@Z 0000000180026710 f i GuCCDSweepPrimitives.obj
 0001:00025710       ??_E?$RelativeConvex@VConvexHullNoScaleV@Gu@physx@@@Gu@physx@@UEAAPEAXI@Z 0000000180026710 f i GuPCMContactConvexConvex.obj
 0001:00025710       ??_E?$RelativeConvex@VConvexHullV@Gu@physx@@@Gu@physx@@UEAAPEAXI@Z 0000000180026710 f i GuOverlapTests.obj
 0001:00025710       ??_E?$RelativeConvex@VTriangleV@Gu@physx@@@Gu@physx@@UEAAPEAXI@Z 0000000180026710 f i GuCCDSweepPrimitives.obj
 0001:00025710       ??_G?$RelativeConvex@UCustomConvexV@@@Gu@physx@@UEAAPEAXI@Z 0000000180026710 f i GuGjkQuery.obj
 0001:00025710       ??_G?$RelativeConvex@VBoxV@Gu@physx@@@Gu@physx@@UEAAPEAXI@Z 0000000180026710 f i GuOverlapTests.obj
 0001:00025710       ??_G?$RelativeConvex@VCapsuleV@Gu@physx@@@Gu@physx@@UEAAPEAXI@Z 0000000180026710 f i GuCCDSweepPrimitives.obj
 0001:00025710       ??_G?$RelativeConvex@VConvexHullNoScaleV@Gu@physx@@@Gu@physx@@UEAAPEAXI@Z 0000000180026710 f i GuPCMContactConvexConvex.obj
 0001:00025710       ??_G?$RelativeConvex@VConvexHullV@Gu@physx@@@Gu@physx@@UEAAPEAXI@Z 0000000180026710 f i GuOverlapTests.obj
 0001:00025710       ??_G?$RelativeConvex@VTriangleV@Gu@physx@@@Gu@physx@@UEAAPEAXI@Z 0000000180026710 f i GuCCDSweepPrimitives.obj
 0001:00027820       ?supportPoint@?$RelativeConvex@VConvexHullV@Gu@physx@@@Gu@physx@@UEBA?AT__m128@@H@Z 0000000180028820 f i GuOverlapTests.obj
 0001:000278a0       ?support@?$RelativeConvex@VConvexHullV@Gu@physx@@@Gu@physx@@UEBA?AT__m128@@AEBT4@@Z 00000001800288a0 f i GuOverlapTests.obj
 0001:000279d0       ?support@?$RelativeConvex@VConvexHullV@Gu@physx@@@Gu@physx@@UEBA?AT__m128@@AEBT4@AEAH@Z 00000001800289d0 f i GuOverlapTests.obj
 0001:00027b60       ??$gjk@U?$RelativeConvex@VBoxV@Gu@physx@@@Gu@physx@@U?$LocalConvex@VConvexHullV@Gu@physx@@@23@@Gu@physx@@YA?AW4GjkStatus@01@AEBU?$RelativeConvex@VBoxV@Gu@physx@@@01@AEBU?$LocalConvex@VConvexHullV@Gu@physx@@@01@AEBT__m128@@2AEAT5@333@Z 0000000180028b60 f i GuOverlapTests.obj
 0001:00028810       ??$gjk@U?$RelativeConvex@VConvexHullV@Gu@physx@@@Gu@physx@@U?$LocalConvex@VConvexHullV@Gu@physx@@@23@@Gu@physx@@YA?AW4GjkStatus@01@AEBU?$RelativeConvex@VConvexHullV@Gu@physx@@@01@AEBU?$LocalConvex@VConvexHullV@Gu@physx@@@01@AEBT__m128@@2AEAT5@333@Z 0000000180029810 f i GuOverlapTests.obj
 0001:00029510       ?ComputeCubemapNearestOffset@physx@@YAIAEBV?$PxVec3T@M@1@I@Z 000000018002a510 f i GuOverlapTests.obj
 0001:00029620       ?getOverlapFuncTable@Gu@physx@@YAPEAY0L@Q6A_NAEBVPxGeometry@2@AEBV?$PxTransformT@M@2@01PEAUTriggerCache@12@PEAUPxQueryThreadContext@2@@ZXZ 000000018002a620 f   GuOverlapTests.obj
 0001:0002b290       ?raycast_box@@YAIAEBVPxGeometry@physx@@AEBV?$PxTransformT@M@2@AEBV?$PxVec3T@M@2@2MV?$PxFlags@W4Enum@PxHitFlag@physx@@G@2@IPEIAUPxGeomRaycastHit@2@IPEAUPxQueryThreadContext@2@@Z 000000018002c290 f   GuRaycastTests.obj
 0001:0002b8d0       ?raycast_sphere@@YAIAEBVPxGeometry@physx@@AEBV?$PxTransformT@M@2@AEBV?$PxVec3T@M@2@2MV?$PxFlags@W4Enum@PxHitFlag@physx@@G@2@IPEIAUPxGeomRaycastHit@2@IPEAUPxQueryThreadContext@2@@Z 000000018002c8d0 f   GuRaycastTests.obj
 0001:0002ba50       ?raycast_capsule@@YAIAEBVPxGeometry@physx@@AEBV?$PxTransformT@M@2@AEBV?$PxVec3T@M@2@2MV?$PxFlags@W4Enum@PxHitFlag@physx@@G@2@IPEIAUPxGeomRaycastHit@2@IPEAUPxQueryThreadContext@2@@Z 000000018002ca50 f   GuRaycastTests.obj
 0001:0002bfb0       ?raycast_plane@@YAIAEBVPxGeometry@physx@@AEBV?$PxTransformT@M@2@AEBV?$PxVec3T@M@2@2MV?$PxFlags@W4Enum@PxHitFlag@physx@@G@2@IPEIAUPxGeomRaycastHit@2@IPEAUPxQueryThreadContext@2@@Z 000000018002cfb0 f   GuRaycastTests.obj
 0001:0002c120       ?raycast_convexMesh@@YAIAEBVPxGeometry@physx@@AEBV?$PxTransformT@M@2@AEBV?$PxVec3T@M@2@2MV?$PxFlags@W4Enum@PxHitFlag@physx@@G@2@IPEIAUPxGeomRaycastHit@2@IPEAUPxQueryThreadContext@2@@Z 000000018002d120 f   GuRaycastTests.obj
 0001:0002cbc0       ?getMidphaseID@RTreeTriangleMesh@Gu@physx@@UEBA?AW4Enum@PxMeshMidPhase@3@XZ 000000018002dbc0 f   GuTriangleMeshRTree.obj
 0001:0002cbc0       ?getMidphaseID@RTreeTriangleMeshBuilder@physx@@UEBA?AW4Enum@PxMeshMidPhase@2@XZ 000000018002dbc0 f   GuCookingTriangleMesh.obj
 0001:0002cbc0       ?getTetrahedraRemap@TetrahedronMesh@Gu@physx@@UEBAPEBIXZ 000000018002dbc0 f   GuTetrahedronMesh.obj
 0001:0002cbc0       ?raycast_hairsystem@@YAIAEBVPxGeometry@physx@@AEBV?$PxTransformT@M@2@AEBV?$PxVec3T@M@2@2MV?$PxFlags@W4Enum@PxHitFlag@physx@@G@2@IPEIAUPxGeomRaycastHit@2@IPEAUPxQueryThreadContext@2@@Z 000000018002dbc0 f   GuRaycastTests.obj
 0001:0002cbc0       ?raycast_particlesystem@@YAIAEBVPxGeometry@physx@@AEBV?$PxTransformT@M@2@AEBV?$PxVec3T@M@2@2MV?$PxFlags@W4Enum@PxHitFlag@physx@@G@2@IPEIAUPxGeomRaycastHit@2@IPEAUPxQueryThreadContext@2@@Z 000000018002dbc0 f   GuRaycastTests.obj
 0001:0002cbc0       ?raycast_softbody@@YAIAEBVPxGeometry@physx@@AEBV?$PxTransformT@M@2@AEBV?$PxVec3T@M@2@2MV?$PxFlags@W4Enum@PxHitFlag@physx@@G@2@IPEIAUPxGeomRaycastHit@2@IPEAUPxQueryThreadContext@2@@Z 000000018002dbc0 f   GuRaycastTests.obj
 0001:0002cbd0       ?raycast_triangleMesh@@YAIAEBVPxGeometry@physx@@AEBV?$PxTransformT@M@2@AEBV?$PxVec3T@M@2@2MV?$PxFlags@W4Enum@PxHitFlag@physx@@G@2@IPEIAUPxGeomRaycastHit@2@IPEAUPxQueryThreadContext@2@@Z 000000018002dbd0 f   GuRaycastTests.obj
 0001:0002cc60       ?raycast_heightField@@YAIAEBVPxGeometry@physx@@AEBV?$PxTransformT@M@2@AEBV?$PxVec3T@M@2@2MV?$PxFlags@W4Enum@PxHitFlag@physx@@G@2@IPEIAUPxGeomRaycastHit@2@IPEAUPxQueryThreadContext@2@@Z 000000018002dc60 f   GuRaycastTests.obj
 0001:0002e700       ??Dphysx@@YA?AV?$PxMat34T@M@0@AEBVPxMeshScale@0@AEBV?$PxTransformT@M@0@@Z 000000018002f700 f i GuRaycastTests.obj
 0001:0002f1c0       ?getRaycastFuncTable@Gu@physx@@YAAEAY0L@Q6AIAEBVPxGeometry@2@AEBV?$PxTransformT@M@2@AEBV?$PxVec3T@M@2@2MV?$PxFlags@W4Enum@PxHitFlag@physx@@G@2@IPEIAUPxGeomRaycastHit@2@IPEAUPxQueryThreadContext@2@@ZXZ 00000001800301c0 f   GuRaycastTests.obj
 0001:0002f1d0       ??D?$PxMat33T@M@physx@@QEBA?BV?$PxVec3T@M@1@AEBV21@@Z 00000001800301d0 f i GuSweepMTD.obj
 0001:0002f260       ??Dphysx@@YA?AV?$PxMat34T@M@0@AEBV?$PxTransformT@M@0@AEBVPxMeshScale@0@@Z 0000000180030260 f i GuSweepMTD.obj
 0001:0002f7e0       ??_E?$MeshHitCallback@UPxGeomRaycastHit@physx@@@Gu@physx@@UEAAPEAXI@Z 00000001800307e0 f i GuSweepMTD.obj
 0001:0002f7e0       ??_G?$MeshHitCallback@UPxGeomRaycastHit@physx@@@Gu@physx@@UEAAPEAXI@Z 00000001800307e0 f i GuSweepMTD.obj
 0001:0002f810       ??_EMeshMTDGenerationCallback@@UEAAPEAXI@Z 0000000180030810 f i GuSweepMTD.obj
 0001:0002f810       ??_GMeshMTDGenerationCallback@@UEAAPEAXI@Z 0000000180030810 f i GuSweepMTD.obj
 0001:0002f840       ??_EMidPhaseQueryLocalReport@@UEAAPEAXI@Z 0000000180030840 f i GuSweepMTD.obj
 0001:0002f840       ??_ERTreeCookerRemap@@UEAAPEAXI@Z 0000000180030840 f i GuCookingTriangleMesh.obj
 0001:0002f840       ??_GMidPhaseQueryLocalReport@@UEAAPEAXI@Z 0000000180030840 f i GuSweepMTD.obj
 0001:0002f840       ??_GRTreeCookerRemap@@UEAAPEAXI@Z 0000000180030840 f i GuCookingTriangleMesh.obj
 0001:0002f870       ?computeBox_HeightFieldMTD@Gu@physx@@YA_NAEBVPxHeightFieldGeometry@2@AEBV?$PxTransformT@M@2@AEBVBox@12@1M_NAEAUPxGeomSweepHit@2@@Z 0000000180030870 f   GuSweepMTD.obj
 0001:00030630       ?computeBox_TriangleMeshMTD@Gu@physx@@YA_NAEBVPxTriangleMeshGeometry@2@AEBV?$PxTransformT@M@2@AEBVBox@12@1M_NAEAUPxGeomSweepHit@2@@Z 0000000180031630 f   GuSweepMTD.obj
 0001:00031650       ?computeCapsule_CapsuleMTD@Gu@physx@@YA_NAEBVCapsule@12@0AEAUPxGeomSweepHit@2@@Z 0000000180032650 f   GuSweepMTD.obj
 0001:00031890       ?computeCapsule_HeightFieldMTD@Gu@physx@@YA_NAEBVPxHeightFieldGeometry@2@AEBV?$PxTransformT@M@2@AEAVCapsuleV@12@M_NAEAUPxGeomSweepHit@2@@Z 0000000180032890 f   GuSweepMTD.obj
 0001:00032060       ?computeCapsule_TriangleMeshMTD@Gu@physx@@YA_NAEBVPxTriangleMeshGeometry@2@AEBV?$PxTransformT@M@2@AEAVCapsuleV@12@M_NAEAUPxGeomSweepHit@2@@Z 0000000180033060 f   GuSweepMTD.obj
 0001:00032910       ?computeConvex_HeightFieldMTD@Gu@physx@@YA_NAEBVPxHeightFieldGeometry@2@AEBV?$PxTransformT@M@2@AEBVPxConvexMeshGeometry@2@1M_NAEAUPxGeomSweepHit@2@@Z 0000000180033910 f   GuSweepMTD.obj
 0001:00033bc0       ?computeConvex_TriangleMeshMTD@Gu@physx@@YA_NAEBVPxTriangleMeshGeometry@2@AEBV?$PxTransformT@M@2@AEBVPxConvexMeshGeometry@2@1M_NAEAUPxGeomSweepHit@2@@Z 0000000180034bc0 f   GuSweepMTD.obj
 0001:00035150       ?computePlane_BoxMTD@Gu@physx@@YA_NAEBVPxPlane@2@AEBVBox@12@AEAUPxGeomSweepHit@2@@Z 0000000180036150 f   GuSweepMTD.obj
 0001:00035400       ?computePlane_CapsuleMTD@Gu@physx@@YA_NAEBVPxPlane@2@AEBVCapsule@12@AEAUPxGeomSweepHit@2@@Z 0000000180036400 f   GuSweepMTD.obj
 0001:00035520       ?computePlane_ConvexMTD@Gu@physx@@YA_NAEBVPxPlane@2@AEBVPxConvexMeshGeometry@2@AEBV?$PxTransformT@M@2@AEAUPxGeomSweepHit@2@@Z 0000000180036520 f   GuSweepMTD.obj
 0001:000359e0       ?computeSphere_CapsuleMTD@Gu@physx@@YA_NAEBVSphere@12@AEBVCapsule@12@AEAUPxGeomSweepHit@2@@Z 00000001800369e0 f   GuSweepMTD.obj
 0001:00035b90       ?computeSphere_SphereMTD@Gu@physx@@YA_NAEBVSphere@12@0AEAUPxGeomSweepHit@2@@Z 0000000180036b90 f   GuSweepMTD.obj
 0001:00035c90       ?getInverse@?$PxMat33T@M@physx@@QEBA?BV12@XZ 0000000180036c90 f i GuSweepMTD.obj
 0001:00035ee0       ?growAndPushBack@?$PxArray@IV?$PxReflectionAllocator@I@physx@@@physx@@IEAAAEAIAEBI@Z 0000000180036ee0 f i GuSweepMTD.obj
 0001:00036000       ?init@FastVertex2ShapeScaling@Cm@physx@@QEAAXAEBV?$PxVec3T@M@3@AEBV?$PxQuatT@M@3@@Z 0000000180037000 f i GuSweepMTD.obj
 0001:000368e0       ?processHit@MeshMTDGenerationCallback@@UEAA_NAEBUPxGeomRaycastHit@physx@@AEBV?$PxVec3T@M@3@11AEAMPEBI@Z 00000001800378e0 f i GuSweepMTD.obj
 0001:00036930       ?recreate@?$PxArray@IV?$PxReflectionAllocator@I@physx@@@physx@@IEAAXI@Z 0000000180037930 f i GuSweepMTD.obj
 0001:00036a20       ?reportTouchedTris@MidPhaseQueryLocalReport@@UEAA_NIPEBI@Z 0000000180037a20 f i GuSweepMTD.obj
 0001:00036a90       ??$gjkPenetration@U?$LocalConvex@VCapsuleV@Gu@physx@@@Gu@physx@@U?$LocalConvex@VConvexHullV@Gu@physx@@@23@@Gu@physx@@YA?AW4GjkStatus@01@AEBU?$LocalConvex@VCapsuleV@Gu@physx@@@01@AEBU?$LocalConvex@VConvexHullV@Gu@physx@@@01@AEBT__m128@@2_NPEIAE4AEAEAEAUGjkOutput@01@@Z 0000000180037a90 f i GuSweepSharedTests.obj
 0001:00036b00       ??$gjkPenetration@U?$LocalConvex@VCapsuleV@Gu@physx@@@Gu@physx@@U?$LocalConvex@VConvexHullV@Gu@physx@@@23@@Gu@physx@@YA?AW4GjkStatus@01@AEBU?$LocalConvex@VCapsuleV@Gu@physx@@@01@AEBU?$LocalConvex@VConvexHullV@Gu@physx@@@01@AEBT__m128@@2_NPEIAE4PEIAT5@5AEAEAEAUGjkOutput@01@@Z 0000000180037b00 f i GuSweepSharedTests.obj
 0001:000385f0       ??$gjkPenetration@U?$RelativeConvex@VBoxV@Gu@physx@@@Gu@physx@@U?$LocalConvex@VConvexHullV@Gu@physx@@@23@@Gu@physx@@YA?AW4GjkStatus@01@AEBU?$RelativeConvex@VBoxV@Gu@physx@@@01@AEBU?$LocalConvex@VConvexHullV@Gu@physx@@@01@AEBT__m128@@2_NPEIAE4AEAEAEAUGjkOutput@01@@Z 00000001800395f0 f i GuSweepSharedTests.obj
 0001:00038660       ??$gjkPenetration@U?$RelativeConvex@VBoxV@Gu@physx@@@Gu@physx@@U?$LocalConvex@VConvexHullV@Gu@physx@@@23@@Gu@physx@@YA?AW4GjkStatus@01@AEBU?$RelativeConvex@VBoxV@Gu@physx@@@01@AEBU?$LocalConvex@VConvexHullV@Gu@physx@@@01@AEBT__m128@@2_NPEIAE4PEIAT5@5AEAEAEAUGjkOutput@01@@Z 0000000180039660 f i GuSweepSharedTests.obj
 0001:0003a190       ??$gjkPenetration@U?$RelativeConvex@VConvexHullV@Gu@physx@@@Gu@physx@@U?$LocalConvex@VConvexHullV@Gu@physx@@@23@@Gu@physx@@YA?AW4GjkStatus@01@AEBU?$RelativeConvex@VConvexHullV@Gu@physx@@@01@AEBU?$LocalConvex@VConvexHullV@Gu@physx@@@01@AEBT__m128@@2_NPEIAE4AEAEAEAUGjkOutput@01@@Z 000000018003b190 f i GuSweepSharedTests.obj
 0001:0003a200       ??$gjkPenetration@U?$RelativeConvex@VConvexHullV@Gu@physx@@@Gu@physx@@U?$LocalConvex@VConvexHullV@Gu@physx@@@23@@Gu@physx@@YA?AW4GjkStatus@01@AEBU?$RelativeConvex@VConvexHullV@Gu@physx@@@01@AEBU?$LocalConvex@VConvexHullV@Gu@physx@@@01@AEBT__m128@@2_NPEIAE4PEIAT5@5AEAEAEAUGjkOutput@01@@Z 000000018003b200 f i GuSweepSharedTests.obj
 0001:0003bdf0       ??$gjkRaycast@U?$LocalConvex@VCapsuleV@Gu@physx@@@Gu@physx@@U?$LocalConvex@VConvexHullV@Gu@physx@@@23@@Gu@physx@@YA_NAEBU?$LocalConvex@VCapsuleV@Gu@physx@@@01@AEBU?$LocalConvex@VConvexHullV@Gu@physx@@@01@AEBT__m128@@222AEAT4@33M@Z 000000018003cdf0 f i GuSweepSharedTests.obj
 0001:0003cb70       ??$gjkRaycast@U?$RelativeConvex@VBoxV@Gu@physx@@@Gu@physx@@U?$LocalConvex@VConvexHullV@Gu@physx@@@23@@Gu@physx@@YA_NAEBU?$RelativeConvex@VBoxV@Gu@physx@@@01@AEBU?$LocalConvex@VConvexHullV@Gu@physx@@@01@AEBT__m128@@222AEAT4@33M@Z 000000018003db70 f i GuSweepSharedTests.obj
 0001:0003d950       ??$gjkRaycast@U?$RelativeConvex@VConvexHullV@Gu@physx@@@Gu@physx@@U?$LocalConvex@VConvexHullV@Gu@physx@@@23@@Gu@physx@@YA_NAEBU?$RelativeConvex@VConvexHullV@Gu@physx@@@01@AEBU?$LocalConvex@VConvexHullV@Gu@physx@@@01@AEBT__m128@@222AEAT4@33M@Z 000000018003e950 f i GuSweepSharedTests.obj
 0001:0003e770       ??$gjkRaycastPenetration@U?$LocalConvex@VCapsuleV@Gu@physx@@@Gu@physx@@U?$LocalConvex@VConvexHullV@Gu@physx@@@23@@Gu@physx@@YA_NAEBU?$LocalConvex@VCapsuleV@Gu@physx@@@01@AEBU?$LocalConvex@VConvexHullV@Gu@physx@@@01@AEBT__m128@@222AEAT4@33M_N@Z 000000018003f770 f i GuSweepSharedTests.obj
 0001:0003e9a0       ??$gjkRaycastPenetration@U?$RelativeConvex@VBoxV@Gu@physx@@@Gu@physx@@U?$LocalConvex@VConvexHullV@Gu@physx@@@23@@Gu@physx@@YA_NAEBU?$RelativeConvex@VBoxV@Gu@physx@@@01@AEBU?$LocalConvex@VConvexHullV@Gu@physx@@@01@AEBT__m128@@222AEAT4@33M_N@Z 000000018003f9a0 f i GuSweepSharedTests.obj
 0001:0003ec30       ??$gjkRaycastPenetration@U?$RelativeConvex@VConvexHullV@Gu@physx@@@Gu@physx@@U?$LocalConvex@VConvexHullV@Gu@physx@@@23@@Gu@physx@@YA_NAEBU?$RelativeConvex@VConvexHullV@Gu@physx@@@01@AEBU?$LocalConvex@VConvexHullV@Gu@physx@@@01@AEBT__m128@@222AEAT4@33M_N@Z 000000018003fc30 f i GuSweepSharedTests.obj
 0001:0003f810       ?sweepBox_ConvexGeom@@YA_NAEBVPxGeometry@physx@@AEBV?$PxTransformT@M@2@AEBVPxBoxGeometry@2@1AEBVBox@Gu@2@AEBV?$PxVec3T@M@2@MAEAUPxGeomSweepHit@2@V?$PxFlags@W4Enum@PxHitFlag@physx@@G@2@MPEAUPxQueryThreadContext@2@@Z 0000000180040810 f   GuSweepSharedTests.obj
 0001:00040430       ?sweepBox_PlaneGeom@@YA_NAEBVPxGeometry@physx@@AEBV?$PxTransformT@M@2@AEBVPxBoxGeometry@2@1AEBVBox@Gu@2@AEBV?$PxVec3T@M@2@MAEAUPxGeomSweepHit@2@V?$PxFlags@W4Enum@PxHitFlag@physx@@G@2@MPEAUPxQueryThreadContext@2@@Z 0000000180041430 f   GuSweepSharedTests.obj
 0001:000407f0       ?sweepCapsuleTriangles@Gu@physx@@YA_NIPEBVPxTriangle@2@_NAEBVPxCapsuleGeometry@2@AEBV?$PxTransformT@M@2@AEBV?$PxVec3T@M@2@MAEAUPxGeomSweepHit@2@PEBIMV?$PxFlags@W4Enum@PxHitFlag@physx@@G@2@@Z 00000001800417f0 f   GuSweepSharedTests.obj
 0001:000409e0       ?sweepCapsule_CapsuleGeom@@YA_NAEBVPxGeometry@physx@@AEBV?$PxTransformT@M@2@AEBVPxCapsuleGeometry@2@1AEBVCapsule@Gu@2@AEBV?$PxVec3T@M@2@MAEAUPxGeomSweepHit@2@V?$PxFlags@W4Enum@PxHitFlag@physx@@G@2@MPEAUPxQueryThreadContext@2@@Z 00000001800419e0 f   GuSweepSharedTests.obj
 0001:00040bc0       ?sweepCapsule_ConvexGeom@@YA_NAEBVPxGeometry@physx@@AEBV?$PxTransformT@M@2@AEBVPxCapsuleGeometry@2@1AEBVCapsule@Gu@2@AEBV?$PxVec3T@M@2@MAEAUPxGeomSweepHit@2@V?$PxFlags@W4Enum@PxHitFlag@physx@@G@2@MPEAUPxQueryThreadContext@2@@Z 0000000180041bc0 f   GuSweepSharedTests.obj
 0001:000417a0       ?sweepCapsule_PlaneGeom@@YA_NAEBVPxGeometry@physx@@AEBV?$PxTransformT@M@2@AEBVPxCapsuleGeometry@2@1AEBVCapsule@Gu@2@AEBV?$PxVec3T@M@2@MAEAUPxGeomSweepHit@2@V?$PxFlags@W4Enum@PxHitFlag@physx@@G@2@MPEAUPxQueryThreadContext@2@@Z 00000001800427a0 f   GuSweepSharedTests.obj
 0001:00041a80       ?sweepCapsule_SphereGeom@@YA_NAEBVPxGeometry@physx@@AEBV?$PxTransformT@M@2@AEBVPxCapsuleGeometry@2@1AEBVCapsule@Gu@2@AEBV?$PxVec3T@M@2@MAEAUPxGeomSweepHit@2@V?$PxFlags@W4Enum@PxHitFlag@physx@@G@2@MPEAUPxQueryThreadContext@2@@Z 0000000180042a80 f   GuSweepSharedTests.obj
 0001:00041c10       ?sweepConvex_BoxGeom@@YA_NAEBVPxGeometry@physx@@AEBV?$PxTransformT@M@2@AEBVPxConvexMeshGeometry@2@1AEBV?$PxVec3T@M@2@MAEAUPxGeomSweepHit@2@V?$PxFlags@W4Enum@PxHitFlag@physx@@G@2@MPEAUPxQueryThreadContext@2@@Z 0000000180042c10 f   GuSweepSharedTests.obj
 0001:00041e30       ?sweepConvex_CapsuleGeom@@YA_NAEBVPxGeometry@physx@@AEBV?$PxTransformT@M@2@AEBVPxConvexMeshGeometry@2@1AEBV?$PxVec3T@M@2@MAEAUPxGeomSweepHit@2@V?$PxFlags@W4Enum@PxHitFlag@physx@@G@2@MPEAUPxQueryThreadContext@2@@Z 0000000180042e30 f   GuSweepSharedTests.obj
 0001:00042060       ?sweepConvex_ConvexGeom@@YA_NAEBVPxGeometry@physx@@AEBV?$PxTransformT@M@2@AEBVPxConvexMeshGeometry@2@1AEBV?$PxVec3T@M@2@MAEAUPxGeomSweepHit@2@V?$PxFlags@W4Enum@PxHitFlag@physx@@G@2@MPEAUPxQueryThreadContext@2@@Z 0000000180043060 f   GuSweepSharedTests.obj
 0001:000430d0       ?sweepConvex_PlaneGeom@@YA_NAEBVPxGeometry@physx@@AEBV?$PxTransformT@M@2@AEBVPxConvexMeshGeometry@2@1AEBV?$PxVec3T@M@2@MAEAUPxGeomSweepHit@2@V?$PxFlags@W4Enum@PxHitFlag@physx@@G@2@MPEAUPxQueryThreadContext@2@@Z 00000001800440d0 f   GuSweepSharedTests.obj
 0001:00043510       ?sweepConvex_SphereGeom@@YA_NAEBVPxGeometry@physx@@AEBV?$PxTransformT@M@2@AEBVPxConvexMeshGeometry@2@1AEBV?$PxVec3T@M@2@MAEAUPxGeomSweepHit@2@V?$PxFlags@W4Enum@PxHitFlag@physx@@G@2@MPEAUPxQueryThreadContext@2@@Z 0000000180044510 f   GuSweepSharedTests.obj
 0001:00043f80       ?sweepCapsule_BoxGeom@@YA_NAEBVPxGeometry@physx@@AEBV?$PxTransformT@M@2@AEBVPxCapsuleGeometry@2@1AEBVCapsule@Gu@2@AEBV?$PxVec3T@M@2@MAEAUPxGeomSweepHit@2@V?$PxFlags@W4Enum@PxHitFlag@physx@@G@2@MPEAUPxQueryThreadContext@2@@Z 0000000180044f80 f   GuSweepTests.obj
 0001:00044890       ?sweepBox_SphereGeom@@YA_NAEBVPxGeometry@physx@@AEBV?$PxTransformT@M@2@AEBVPxBoxGeometry@2@1AEBVBox@Gu@2@AEBV?$PxVec3T@M@2@MAEAUPxGeomSweepHit@2@V?$PxFlags@W4Enum@PxHitFlag@physx@@G@2@MPEAUPxQueryThreadContext@2@@Z 0000000180045890 f   GuSweepTests.obj
 0001:00044f90       ?sweepBox_CapsuleGeom@@YA_NAEBVPxGeometry@physx@@AEBV?$PxTransformT@M@2@AEBVPxBoxGeometry@2@1AEBVBox@Gu@2@AEBV?$PxVec3T@M@2@MAEAUPxGeomSweepHit@2@V?$PxFlags@W4Enum@PxHitFlag@physx@@G@2@MPEAUPxQueryThreadContext@2@@Z 0000000180045f90 f   GuSweepTests.obj
 0001:00045880       ?sweepBox_BoxGeom@@YA_NAEBVPxGeometry@physx@@AEBV?$PxTransformT@M@2@AEBVPxBoxGeometry@2@1AEBVBox@Gu@2@AEBV?$PxVec3T@M@2@MAEAUPxGeomSweepHit@2@V?$PxFlags@W4Enum@PxHitFlag@physx@@G@2@MPEAUPxQueryThreadContext@2@@Z 0000000180046880 f   GuSweepTests.obj
 0001:00046270       ??$gjkPenetration@U?$LocalConvex@VCapsuleV@Gu@physx@@@Gu@physx@@U?$LocalConvex@VBoxV@Gu@physx@@@23@@Gu@physx@@YA?AW4GjkStatus@01@AEBU?$LocalConvex@VCapsuleV@Gu@physx@@@01@AEBU?$LocalConvex@VBoxV@Gu@physx@@@01@AEBT__m128@@2_NPEIAE4AEAEAEAUGjkOutput@01@@Z 0000000180047270 f i GuSweepTests.obj
 0001:000462e0       ??$gjkPenetration@U?$LocalConvex@VCapsuleV@Gu@physx@@@Gu@physx@@U?$LocalConvex@VBoxV@Gu@physx@@@23@@Gu@physx@@YA?AW4GjkStatus@01@AEBU?$LocalConvex@VCapsuleV@Gu@physx@@@01@AEBU?$LocalConvex@VBoxV@Gu@physx@@@01@AEBT__m128@@2_NPEIAE4PEIAT5@5AEAEAEAUGjkOutput@01@@Z 00000001800472e0 f i GuSweepTests.obj
 0001:00047d70       ??$gjkPenetration@U?$RelativeConvex@VBoxV@Gu@physx@@@Gu@physx@@U?$LocalConvex@VBoxV@Gu@physx@@@23@@Gu@physx@@YA?AW4GjkStatus@01@AEBU?$RelativeConvex@VBoxV@Gu@physx@@@01@AEBU?$LocalConvex@VBoxV@Gu@physx@@@01@AEBT__m128@@2_NPEIAE4AEAEAEAUGjkOutput@01@@Z 0000000180048d70 f i GuSweepTests.obj
 0001:00047de0       ??$gjkPenetration@U?$RelativeConvex@VBoxV@Gu@physx@@@Gu@physx@@U?$LocalConvex@VBoxV@Gu@physx@@@23@@Gu@physx@@YA?AW4GjkStatus@01@AEBU?$RelativeConvex@VBoxV@Gu@physx@@@01@AEBU?$LocalConvex@VBoxV@Gu@physx@@@01@AEBT__m128@@2_NPEIAE4PEIAT5@5AEAEAEAUGjkOutput@01@@Z 0000000180048de0 f i GuSweepTests.obj
 0001:000498a0       ??$gjkRaycast@U?$LocalConvex@VCapsuleV@Gu@physx@@@Gu@physx@@U?$LocalConvex@VBoxV@Gu@physx@@@23@@Gu@physx@@YA_NAEBU?$LocalConvex@VCapsuleV@Gu@physx@@@01@AEBU?$LocalConvex@VBoxV@Gu@physx@@@01@AEBT__m128@@222AEAT4@33M@Z 000000018004a8a0 f i GuSweepTests.obj
 0001:0004a480       ??$gjkRaycast@U?$LocalConvex@VTriangleV@Gu@physx@@@Gu@physx@@U?$LocalConvex@VBoxV@Gu@physx@@@23@@Gu@physx@@YA_NAEBU?$LocalConvex@VTriangleV@Gu@physx@@@01@AEBU?$LocalConvex@VBoxV@Gu@physx@@@01@AEBT__m128@@222AEAT4@33M@Z 000000018004b480 f i GuSweepTests.obj
 0001:0004b0f0       ??$gjkRaycast@U?$RelativeConvex@VBoxV@Gu@physx@@@Gu@physx@@U?$LocalConvex@VBoxV@Gu@physx@@@23@@Gu@physx@@YA_NAEBU?$RelativeConvex@VBoxV@Gu@physx@@@01@AEBU?$LocalConvex@VBoxV@Gu@physx@@@01@AEBT__m128@@222AEAT4@33M@Z 000000018004c0f0 f i GuSweepTests.obj
 0001:0004bd40       ?getSweepFuncTable@Gu@physx@@YAAEBUGeomSweepFuncs@12@XZ 000000018004cd40 f   GuSweepTests.obj
 0001:0004bd50       ?getSweepMargin@?$LocalConvex@VTetrahedronV@Gu@physx@@@Gu@physx@@UEBA?AT__m128@@XZ 000000018004cd50 f i GuCookingTetrahedronMesh.obj
 0001:0004bd50       ?getSweepMargin@?$LocalConvex@VTriangleV@Gu@physx@@@Gu@physx@@UEBA?AT__m128@@XZ 000000018004cd50 f i GuSweepTests.obj
 0001:0004bd50       ?getSweepMargin@?$RelativeConvex@VTriangleV@Gu@physx@@@Gu@physx@@UEBA?AT__m128@@XZ 000000018004cd50 f i GuCCDSweepPrimitives.obj
 0001:0004bd60       ?support@?$LocalConvex@VBoxV@Gu@physx@@@Gu@physx@@UEBA?AT__m128@@AEBT4@@Z 000000018004cd60 f i GuSweepTests.obj
 0001:0004bd90       ?support@?$LocalConvex@VBoxV@Gu@physx@@@Gu@physx@@UEBA?AT__m128@@AEBT4@AEAH@Z 000000018004cd90 f i GuSweepTests.obj
 0001:0004bdd0       ?support@?$LocalConvex@VTriangleV@Gu@physx@@@Gu@physx@@UEBA?AT__m128@@AEBT4@@Z 000000018004cdd0 f i GuSweepTests.obj
 0001:0004be60       ?support@?$LocalConvex@VTriangleV@Gu@physx@@@Gu@physx@@UEBA?AT__m128@@AEBT4@AEAH@Z 000000018004ce60 f i GuSweepTests.obj
 0001:0004bf40       ?supportPoint@?$LocalConvex@VBoxV@Gu@physx@@@Gu@physx@@UEBA?AT__m128@@H@Z 000000018004cf40 f i GuSweepTests.obj
 0001:0004bf80       ?supportPoint@?$LocalConvex@VTetrahedronV@Gu@physx@@@Gu@physx@@UEBA?AT__m128@@H@Z 000000018004cf80 f i GuCookingTetrahedronMesh.obj
 0001:0004bf80       ?supportPoint@?$LocalConvex@VTriangleV@Gu@physx@@@Gu@physx@@UEBA?AT__m128@@H@Z 000000018004cf80 f i GuSweepTests.obj
 0001:0004bfa0       ?sweepBoxTriangles@Gu@physx@@YA_NIPEBVPxTriangle@2@_NAEBVPxBoxGeometry@2@AEBV?$PxTransformT@M@2@AEBV?$PxVec3T@M@2@MAEAUPxGeomSweepHit@2@PEBIMV?$PxFlags@W4Enum@PxHitFlag@physx@@G@2@@Z 000000018004cfa0 f   GuSweepTests.obj
 0001:0004ca90       ??$PxSort@HU?$Comparer@V?$PxVec3T@M@physx@@@MeshAnalyzer@Gu@physx@@V?$PxReflectionAllocator@H@4@@physx@@YAXPEAHIAEBU?$Comparer@V?$PxVec3T@M@physx@@@MeshAnalyzer@Gu@0@AEBV?$PxReflectionAllocator@H@0@I@Z 000000018004da90 f i GuSDF.obj
 0001:0004d0c0       ??$PxSort@HU?$PxLess@H@physx@@V?$PxReflectionAllocator@H@2@@physx@@YAXPEAHIAEBU?$PxLess@H@0@AEBV?$PxReflectionAllocator@H@0@I@Z 000000018004e0c0 f i GuSDF.obj
 0001:0004d510       ??$copy@V?$PxReflectionAllocator@I@physx@@@?$PxArray@IV?$PxReflectionAllocator@I@physx@@@physx@@IEAAXAEBV01@@Z 000000018004e510 f i GuSDF.obj
 0001:0004d580       ??$copy@V?$PxReflectionAllocator@M@physx@@@?$PxArray@MV?$PxReflectionAllocator@M@physx@@@physx@@IEAAXAEBV01@@Z 000000018004e580 f i GuSDF.obj
 0001:0004d5e0       ??$copy@V?$PxReflectionAllocator@V?$PxVec3T@M@physx@@@physx@@@?$PxArray@V?$PxVec3T@M@physx@@V?$PxReflectionAllocator@V?$PxVec3T@M@physx@@@2@@physx@@IEAAXAEBV01@@Z 000000018004e5e0 f i GuSDF.obj
 0001:0004d640       ??$mapDuplicatePoints@V?$PxVec3T@M@physx@@M@MeshAnalyzer@Gu@physx@@SAXPEBV?$PxVec3T@M@2@IAEAV?$PxArray@HV?$PxReflectionAllocator@H@physx@@@2@M@Z 000000018004e640 f i GuSDF.obj
 0001:0004d9c0       ??$splitRanges@V?$PxVec3T@M@physx@@M@MeshAnalyzer@Gu@physx@@CAXAEAV?$PxArray@URange@MeshAnalyzer@Gu@physx@@V?$PxReflectionAllocator@URange@MeshAnalyzer@Gu@physx@@@4@@2@AEBV?$PxArray@HV?$PxReflectionAllocator@H@physx@@@2@PEBV?$PxVec3T@M@2@HM@Z 000000018004e9c0 f i GuSDF.obj
 0001:0004dc40       ??$traverseBVH@VClosestDistanceToTrimeshTraversalController@Gu@physx@@@Gu@physx@@YAXPEBUBVHNode@01@AEAVClosestDistanceToTrimeshTraversalController@01@H@Z 000000018004ec40 f i GuSDF.obj
 0001:0004e030       ??$traverseBVH@VLineSegmentTrimeshIntersectionTraversalController@Gu@physx@@@Gu@physx@@YAXPEBUBVHNode@01@AEAVLineSegmentTrimeshIntersectionTraversalController@01@H@Z 000000018004f030 f i GuSDF.obj
 0001:0004e530       ??0CellToPoint@Gu@physx@@QEAA@I@Z 000000018004f530 f i GuSDF.obj
 0001:0004e630       ??0IsosurfaceThreadData@Gu@physx@@QEAA@AEBU012@@Z 000000018004f630 f i GuSDF.obj
 0001:0004e6b0       ??1CellToPoint@Gu@physx@@QEAA@XZ 000000018004f6b0 f i GuSDF.obj
 0001:0004e790       ??1IsosurfaceThreadData@Gu@physx@@QEAA@XZ 000000018004f790 f i GuSDF.obj
 0001:0004e840       ??1SDF@Gu@physx@@QEAA@XZ   000000018004f840 f   GuSDF.obj
 0001:0004e8e0       ??_E?$PxThreadT@V?$PxReflectionAllocator@VPxThreadImpl@physx@@@physx@@@physx@@UEAAPEAXI@Z 000000018004f8e0 f i GuSDF.obj
 0001:0004e8e0       ??_G?$PxThreadT@V?$PxReflectionAllocator@VPxThreadImpl@physx@@@physx@@@physx@@UEAAPEAXI@Z 000000018004f8e0 f i GuSDF.obj
 0001:0004e990       ??_EPxRunnable@physx@@UEAAPEAXI@Z 000000018004f990 f i GuSDF.obj
 0001:0004e990       ??_GPxRunnable@physx@@UEAAPEAXI@Z 000000018004f990 f i GuSDF.obj
 0001:0004e9c0       ?PxCreatePointOntoTriangleMeshProjector@Gu@physx@@YAPEAVPxPointOntoTriangleMeshProjector@12@PEBV?$PxVec3T@M@2@PEBII@Z 000000018004f9c0 f   GuSDF.obj
 0001:0004eac0       ?SDFUsingWindingNumbers@Gu@physx@@YAXAEAV?$PxArray@UBVHNode@Gu@physx@@V?$PxReflectionAllocator@UBVHNode@Gu@physx@@@3@@2@AEAV?$PxHashMap@IU?$ClusterApproximationT@MV?$PxVec3T@M@physx@@@Gu@physx@@U?$PxHash@I@3@VPxAllocator@3@@2@PEBV?$PxVec3T@M@2@PEBIIIIIPEAMAEAUGridQueryPointSampler@12@PEAV52@I_N7@Z 000000018004fac0 f   GuSDF.obj
 0001:0004efe0       ?SDFUsingWindingNumbers@Gu@physx@@YAXPEBV?$PxVec3T@M@2@PEBIIIIIPEAMV32@3PEAV32@_NIPEAVPxSDFBuilder@2@@Z 000000018004ffe0 f   GuSDF.obj
 0001:0004f4b0       ?SDFUsingWindingNumbersSparse@Gu@physx@@YAXPEBV?$PxVec3T@M@2@PEBIIIIIAEBV32@2MIAEAV?$PxArray@MV?$PxReflectionAllocator@M@physx@@@2@AEAV?$PxArray@IV?$PxReflectionAllocator@I@physx@@@2@33AEAM5IPEAVPxSDFBuilder@2@@Z 00000001800504b0 f   GuSDF.obj
 0001:0004ff00       ?allocate@?$PxArray@HV?$PxInlineAllocator@$0EAA@V?$PxReflectionAllocator@H@physx@@@physx@@@physx@@IEAAPEAHIPEAI@Z 0000000180050f00 f i GuSDF.obj
 0001:0004ffc0       ?allocate@?$PxArray@IV?$PxReflectionAllocator@I@physx@@@physx@@IEAAPEAIIPEAI@Z 0000000180050fc0 f i GuSDF.obj
 0001:00050050       ?allocate@?$PxArray@MV?$PxReflectionAllocator@M@physx@@@physx@@IEAAPEAMIPEAI@Z 0000000180051050 f i GuSDF.obj
 0001:000500e0       ?allocate@?$PxArray@V?$PxVec3T@M@physx@@V?$PxReflectionAllocator@V?$PxVec3T@M@physx@@@2@@physx@@IEAAPEAV?$PxVec3T@M@2@IPEAI@Z 00000001800510e0 f i GuSDF.obj
 0001:00050180       ?allocateSdfs@SDF@Gu@physx@@QEAAPEAMAEBV?$PxVec3T@M@3@AEBMIIIIIIIMMI@Z 0000000180051180 f   GuSDF.obj
 0001:00050390       ?analyzeAndFixMesh@Gu@physx@@YAXPEBV?$PxVec3T@M@2@PEBIIAEAV?$PxArray@IV?$PxReflectionAllocator@I@physx@@@2@@Z 0000000180051390 f   GuSDF.obj
 0001:00050c00       ?buildTree@Gu@physx@@YAXPEBIIPEBV?$PxVec3T@M@2@AEAV?$PxArray@UBVHNode@Gu@physx@@V?$PxReflectionAllocator@UBVHNode@Gu@physx@@@3@@2@M@Z 0000000180051c00 f   GuSDF.obj
 0001:00050e30       ?computeIsosurfaceTrianglesThreadJob@Gu@physx@@YAPEAXPEAX@Z 0000000180051e30 f   GuSDF.obj
 0001:00051200       ?computeIsosurfaceVerticesThreadJob@Gu@physx@@YAPEAXPEAX@Z 0000000180052200 f   GuSDF.obj
 0001:000516a0       ?computeSDFThreadJob@Gu@physx@@YAPEAXPEAX@Z 00000001800526a0 f   GuSDF.obj
 0001:00052150       ?convertSparseSDFTo3DTextureLayout@Gu@physx@@YAXIIIIPEAIPEBMIAEAV?$PxArray@MV?$PxReflectionAllocator@M@physx@@@2@AEAI33@Z 0000000180053150 f   GuSDF.obj
 0001:000524d0       ?copy@?$PxArray@MV?$PxReflectionAllocator@M@physx@@@physx@@KAXPEAM0PEBM@Z 00000001800534d0 f i GuSDF.obj
 0001:00052530       ?copy@?$PxArray@V?$PxVec3T@M@physx@@V?$PxReflectionAllocator@V?$PxVec3T@M@physx@@@2@@physx@@KAXPEAV?$PxVec3T@M@2@0PEBV32@@Z 0000000180053530 f i GuSDF.obj
 0001:00052600       ?create@?$PxHashBase@V?$PxPair@$$CBUSortedTriangle@Gu@physx@@H@physx@@USortedTriangle@Gu@2@UTriangleHash@42@UGetKey@?$PxHashMapBase@USortedTriangle@Gu@physx@@HUTriangleHash@23@VPxAllocator@3@@2@VPxAllocator@2@$00@physx@@QEAAPEAV?$PxPair@$$CBUSortedTriangle@Gu@physx@@H@2@AEBUSortedTriangle@Gu@2@AEA_N@Z 0000000180053600 f i GuSDF.obj
 0001:00052740       ?create@?$PxHashBase@V?$PxPair@$$CB_KH@physx@@_KU?$PxHash@_K@2@UGetKey@?$PxHashMapBase@_KHU?$PxHash@_K@physx@@VPxAllocator@2@@2@VPxAllocator@2@$00@physx@@QEAAPEAV?$PxPair@$$CB_KH@2@AEB_KAEA_N@Z 0000000180053740 f i GuMeshAnalysis.obj
 0001:00052740       ?create@?$PxHashBase@V?$PxPair@$$CB_KI@physx@@_KU?$PxHash@_K@2@UGetKey@?$PxHashMapBase@_KIU?$PxHash@_K@physx@@VPxAllocator@2@@2@VPxAllocator@2@$00@physx@@QEAAPEAV?$PxPair@$$CB_KI@2@AEB_KAEA_N@Z 0000000180053740 f i GuSDF.obj
 0001:000528d0       ?createTriangles@Gu@physx@@YAXHHHMQEAMAEBUCellToPoint@12@AEBV?$PxArray@V?$PxVec3T@M@physx@@V?$PxReflectionAllocator@V?$PxVec3T@M@physx@@@2@@2@AEAV?$PxArray@IV?$PxReflectionAllocator@I@physx@@@2@@Z 00000001800538d0 f i GuSDF.obj
 0001:00053160       ?decodeDense@SDF@Gu@physx@@QEBAMHHH@Z 0000000180054160 f   GuSDF.obj
 0001:000531b0       ?decodeSparse2@Gu@physx@@YAMAEBVSDF@12@HHH@Z 00000001800541b0 f i GuSDF.obj
 0001:00053460       ?decodeSparse@SDF@Gu@physx@@QEBAMHHH@Z 0000000180054460 f   GuSDF.obj
 0001:00053470       ?exportExtraData@SDF@Gu@physx@@QEAAXAEAVPxSerializationContext@3@@Z 0000000180054470 f   GuSDF.obj
 0001:00053510       ?extractIsosurfaceFromSDF@Gu@physx@@YAXAEBVSDF@12@AEAV?$PxArray@V?$PxVec3T@M@physx@@V?$PxReflectionAllocator@V?$PxVec3T@M@physx@@@2@@2@AEAV?$PxArray@IV?$PxReflectionAllocator@I@physx@@@2@I@Z 0000000180054510 f   GuSDF.obj
 0001:00053e10       ?extractIsosurfaceFromSDFSerial@Gu@physx@@YAXAEBVSDF@12@AEAV?$PxArray@V?$PxVec3T@M@physx@@V?$PxReflectionAllocator@V?$PxVec3T@M@physx@@@2@@2@AEAV?$PxArray@IV?$PxReflectionAllocator@I@physx@@@2@@Z 0000000180054e10 f   GuSDF.obj
 0001:00054b40       ?find@CellToPoint@Gu@physx@@QEBAPEBV?$PxPair@$$CB_KI@3@HHH@Z 0000000180055b40 f i GuSDF.obj
 0001:00054c50       ?fixSdfForNonClosedGeometry@Gu@physx@@YAXIIIPEAMAEBV?$PxVec3T@M@2@@Z 0000000180055c50 f   GuSDF.obj
 0001:00055c70       ?generatePointInCell@Gu@physx@@YA_NAEBVSDF@12@HHHAEAV?$PxVec3T@M@2@QEAY111M@Z 0000000180056c70 f   GuSDF.obj
 0001:00056180       ?growAndPushBack@?$PxArray@HV?$PxInlineAllocator@$0EAA@V?$PxReflectionAllocator@H@physx@@@physx@@@physx@@IEAAAEAHAEBH@Z 0000000180057180 f i GuSDF.obj
 0001:00056270       ?growAndPushBack@?$PxArray@MV?$PxReflectionAllocator@M@physx@@@physx@@IEAAAEAMAEBM@Z 0000000180057270 f i GuSDF.obj
 0001:000563b0       ?growAndPushBack@?$PxArray@PEAV?$PxThreadT@V?$PxReflectionAllocator@VPxThreadImpl@physx@@@physx@@@physx@@V?$PxReflectionAllocator@PEAV?$PxThreadT@V?$PxReflectionAllocator@VPxThreadImpl@physx@@@physx@@@physx@@@2@@physx@@IEAAAEAPEAV?$PxThreadT@V?$PxReflectionAllocator@VPxThreadImpl@physx@@@physx@@@2@AEBQEAV32@@Z 00000001800573b0 f i GuSDF.obj
 0001:000564d0       ?growAndPushBack@?$PxArray@UIsosurfaceThreadData@Gu@physx@@V?$PxReflectionAllocator@UIsosurfaceThreadData@Gu@physx@@@3@@physx@@IEAAAEAUIsosurfaceThreadData@Gu@2@AEBU342@@Z 00000001800574d0 f i GuSDF.obj
 0001:000566a0       ?growAndPushBack@?$PxArray@UMutation@Gu@physx@@V?$PxReflectionAllocator@UMutation@Gu@physx@@@3@@physx@@IEAAAEAUMutation@Gu@2@AEBU342@@Z 00000001800576a0 f i GuSDF.obj
 0001:000567c0       ?growAndPushBack@?$PxArray@URange@Gu@physx@@V?$PxReflectionAllocator@URange@Gu@physx@@@3@@physx@@IEAAAEAURange@Gu@2@AEBU342@@Z 00000001800577c0 f i GuSDF.obj
 0001:000568f0       ?growAndPushBack@?$PxArray@URange@MeshAnalyzer@Gu@physx@@V?$PxReflectionAllocator@URange@MeshAnalyzer@Gu@physx@@@4@@physx@@IEAAAEAURange@MeshAnalyzer@Gu@2@AEBU3452@@Z 00000001800578f0 f i GuSDF.obj
 0001:00056a10       ?growAndPushBack@?$PxArray@USDFCalculationData@Gu@physx@@V?$PxReflectionAllocator@USDFCalculationData@Gu@physx@@@3@@physx@@IEAAAEAUSDFCalculationData@Gu@2@AEBU342@@Z 0000000180057a10 f i GuSDF.obj
 0001:00056b90       ?growAndPushBack@?$PxArray@V?$PxVec3T@M@physx@@V?$PxReflectionAllocator@V?$PxVec3T@M@physx@@@2@@physx@@IEAAAEAV?$PxVec3T@M@2@AEBV32@@Z 0000000180057b90 f i GuSDF.obj
 0001:00056cb0       ?importExtraData@SDF@Gu@physx@@QEAAXAEAVPxDeserializationContext@3@@Z 0000000180057cb0 f   GuSDF.obj
 0001:00056d20       ?populateSubgridCache@Gu@physx@@YAXAEBVSDF@12@AEAV?$PxArray@MV?$PxReflectionAllocator@M@physx@@@2@HHH@Z 0000000180057d20 f i GuSDF.obj
 0001:000570c0       ?projectPoint@PointOntoTriangleMeshProjector@Gu@physx@@UEAA?AV?$PxVec3T@M@3@AEBV43@@Z 00000001800580c0 f i GuSDF.obj
 0001:00057130       ?projectPoint@PointOntoTriangleMeshProjector@Gu@physx@@UEAA?AV?$PxVec3T@M@3@AEBV43@AEAI@Z 0000000180058130 f i GuSDF.obj
 0001:000571b0       ?recreate@?$PxArray@HV?$PxReflectionAllocator@H@physx@@@physx@@IEAAXI@Z 00000001800581b0 f i GuSDF.obj
 0001:000572a0       ?recreate@?$PxArray@MV?$PxReflectionAllocator@M@physx@@@physx@@IEAAXI@Z 00000001800582a0 f i GuSDF.obj
 0001:000573d0       ?recreate@?$PxArray@PEAUMap@Gu@physx@@V?$PxReflectionAllocator@PEAUMap@Gu@physx@@@3@@physx@@IEAAXI@Z 00000001800583d0 f i GuSDF.obj
 0001:000574c0       ?recreate@?$PxArray@UBVHNode@Gu@physx@@V?$PxReflectionAllocator@UBVHNode@Gu@physx@@@3@@physx@@IEAAXI@Z 00000001800584c0 f i GuSDF.obj
 0001:00057700       ?recreate@?$PxArray@V?$PxVec3T@M@physx@@V?$PxReflectionAllocator@V?$PxVec3T@M@physx@@@2@@physx@@IEAAXI@Z 0000000180058700 f i GuSDF.obj
 0001:000577d0       ?release@PointOntoTriangleMeshProjector@Gu@physx@@UEAAXXZ 00000001800587d0 f i GuSDF.obj
 0001:00057820       ?reserveInternal@?$PxHashBase@V?$PxPair@$$CBIU?$ClusterApproximationT@MV?$PxVec3T@M@physx@@@Gu@physx@@@physx@@IU?$PxHash@I@2@UGetKey@?$PxHashMapBase@IU?$ClusterApproximationT@MV?$PxVec3T@M@physx@@@Gu@physx@@U?$PxHash@I@3@VPxAllocator@3@@2@VPxAllocator@2@$00@physx@@AEAAXI@Z 0000000180058820 f i GuSDF.obj
 0001:00057a30       ?reserveInternal@?$PxHashBase@V?$PxPair@$$CBUSortedTriangle@Gu@physx@@H@physx@@USortedTriangle@Gu@2@UTriangleHash@42@UGetKey@?$PxHashMapBase@USortedTriangle@Gu@physx@@HUTriangleHash@23@VPxAllocator@3@@2@VPxAllocator@2@$00@physx@@AEAAXI@Z 0000000180058a30 f i GuSDF.obj
 0001:00057bd0       ?reserveInternal@?$PxHashBase@V?$PxPair@$$CB_KH@physx@@_KU?$PxHash@_K@2@UGetKey@?$PxHashMapBase@_KHU?$PxHash@_K@physx@@VPxAllocator@2@@2@VPxAllocator@2@$00@physx@@AEAAXI@Z 0000000180058bd0 f i GuSDF.obj
 0001:00057bd0       ?reserveInternal@?$PxHashBase@V?$PxPair@$$CB_KI@physx@@_KU?$PxHash@_K@2@UGetKey@?$PxHashMapBase@_KIU?$PxHash@_K@physx@@VPxAllocator@2@@2@VPxAllocator@2@$00@physx@@AEAAXI@Z 0000000180058bd0 f i GuSDF.obj
 0001:00057db0       ?resize@?$PxArray@IV?$PxReflectionAllocator@I@physx@@@physx@@QEAAXIAEBI@Z 0000000180058db0 f i GuSDF.obj
 0001:00057e70       ?resize@?$PxArray@MV?$PxReflectionAllocator@M@physx@@@physx@@QEAAXIAEBM@Z 0000000180058e70 f i GuSDF.obj
 0001:00057f70       ?resize@?$PxArray@PEAUMap@Gu@physx@@V?$PxReflectionAllocator@PEAUMap@Gu@physx@@@3@@physx@@QEAAXIAEBQEAUMap@Gu@2@@Z 0000000180058f70 f i GuSDF.obj
 0001:00058030       ?resize@?$PxArray@UBVHNode@Gu@physx@@V?$PxReflectionAllocator@UBVHNode@Gu@physx@@@3@@physx@@QEAAXIAEBUBVHNode@Gu@2@@Z 0000000180059030 f i GuSDF.obj
 0001:000581c0       ?sampleSDFDirect@DenseSDF@Gu@physx@@QEAAMAEBV?$PxVec3T@M@3@@Z 00000001800591c0 f i GuSDF.obj
 0001:00058360       ?signedVolume@Gu@physx@@YAMPEBV?$PxVec3T@M@2@PEBII1I@Z 0000000180059360 f   GuSDF.obj
 0001:000588a0       ?windingNumbers@Gu@physx@@YAXPEBV?$PxVec3T@M@2@PEBIIIIIPEAMV32@3PEAV32@@Z 00000001800598a0 f   GuSDF.obj
 0001:00058cf0       ?windingNumbersInsideCheck@Gu@physx@@YAXPEBV?$PxVec3T@M@2@PEBIIIIIPEA_NV32@3PEAV32@@Z 0000000180059cf0 f   GuSDF.obj
 0001:000596b0       ??0MeshData@physx@@QEAA@AEBVPxTriangleMeshDesc@1@@Z 000000018005a6b0 f i GuCookingSDF.obj
 0001:00059790       ?GetBounds@MeshData@physx@@QEBAXAEAV?$PxVec3T@M@2@0@Z 000000018005a790 f i GuCookingSDF.obj
 0001:00059a40       ?buildSDF@physx@@YA_NAEAVPxTriangleMeshDesc@1@AEAV?$PxArray@MV?$PxReflectionAllocator@M@physx@@@1@AEAV?$PxArray@EV?$PxReflectionAllocator@E@physx@@@1@AEAV?$PxArray@IV?$PxReflectionAllocator@I@physx@@@1@@Z 000000018005aa40 f   GuCookingSDF.obj
 0001:00059a90       ?convert16To32Bits@physx@@YAXVPxSimpleTriangleMesh@1@AEAV?$PxArray@IV?$PxReflectionAllocator@I@physx@@@1@@Z 000000018005aa90 f   GuCookingSDF.obj
 0001:0005aae0       ?quantizeSparseSDF@physx@@YAXW4Enum@PxSdfBitsPerSubgridPixel@1@AEBV?$PxArray@MV?$PxReflectionAllocator@M@physx@@@1@AEAV?$PxArray@EV?$PxReflectionAllocator@E@physx@@@1@MM@Z 000000018005bae0 f   GuCookingSDF.obj
 0001:0005abc0       ?recreate@?$PxArray@EV?$PxReflectionAllocator@E@physx@@@physx@@IEAAXI@Z 000000018005bbc0 f i GuCookingSDF.obj
 0001:0005acb0       ?resize@?$PxArray@EV?$PxReflectionAllocator@E@physx@@@physx@@QEAAXIAEBE@Z 000000018005bcb0 f i GuCookingSDF.obj
 0001:0005ad70       ?resize@?$PxArray@V?$PxVec3T@M@physx@@V?$PxReflectionAllocator@V?$PxVec3T@M@physx@@@2@@physx@@QEAAXIAEBV?$PxVec3T@M@2@@Z 000000018005bd70 f i GuCookingSDF.obj
 0001:0005ae60       ??$gjk@U?$RelativeConvex@UCustomConvexV@@@Gu@physx@@U?$LocalConvex@UCustomConvexV@@@23@@Gu@physx@@YA?AW4GjkStatus@01@AEBU?$RelativeConvex@UCustomConvexV@@@01@AEBU?$LocalConvex@UCustomConvexV@@@01@AEBT__m128@@2AEAT5@333@Z 000000018005be60 f i GuGjkQuery.obj
 0001:0005bb00       ??$gjkPenetration@U?$RelativeConvex@UCustomConvexV@@@Gu@physx@@U?$LocalConvex@UCustomConvexV@@@23@@Gu@physx@@YA?AW4GjkStatus@01@AEBU?$RelativeConvex@UCustomConvexV@@@01@AEBU?$LocalConvex@UCustomConvexV@@@01@AEBT__m128@@2_NPEIAE4PEIAT5@5AEAEAEAUGjkOutput@01@@Z 000000018005cb00 f i GuGjkQuery.obj
 0001:0005d660       ??$gjkPenetration@U?$RelativeConvex@UCustomConvexV@@@Gu@physx@@U?$LocalConvex@UCustomConvexV@@@23@@Gu@physx@@YA?AW4GjkStatus@01@AEBU?$RelativeConvex@UCustomConvexV@@@01@AEBU?$LocalConvex@UCustomConvexV@@@01@AEBT__m128@@2_NPEIAT5@4AEAEAEAUGjkOutput@01@@Z 000000018005e660 f i GuGjkQuery.obj
 0001:0005d6c0       ??$gjkRaycast@U?$RelativeConvex@UCustomConvexV@@@Gu@physx@@U?$LocalConvex@UCustomConvexV@@@23@@Gu@physx@@YA_NAEBU?$RelativeConvex@UCustomConvexV@@@01@AEBU?$LocalConvex@UCustomConvexV@@@01@AEBT__m128@@222AEAT4@33M@Z 000000018005e6c0 f i GuGjkQuery.obj
 0001:0005e450       ??$gjkRaycast@U?$RelativeConvex@UCustomConvexV@@@Gu@physx@@U?$LocalConvex@UPointConvexV@@@23@@Gu@physx@@YA_NAEBU?$RelativeConvex@UCustomConvexV@@@01@AEBU?$LocalConvex@UPointConvexV@@@01@AEBT__m128@@222AEAT4@33M@Z 000000018005f450 f i GuGjkQuery.obj
 0001:0005f0c0       ?overlap@PxGjkQuery@physx@@SA_NAEBUSupport@12@0AEBV?$PxTransformT@M@2@1@Z 00000001800600c0 f   GuGjkQuery.obj
 0001:0005f450       ?proximityInfo@PxGjkQuery@physx@@SA_NAEBUSupport@12@0AEBV?$PxTransformT@M@2@1MMAEAV?$PxVec3T@M@2@22AEAM@Z 0000000180060450 f   GuGjkQuery.obj
 0001:000601f0       ?raycast@PxGjkQuery@physx@@SA_NAEBUSupport@12@AEBV?$PxTransformT@M@2@AEBV?$PxVec3T@M@2@2MAEAMAEAV52@4@Z 00000001800611f0 f   GuGjkQuery.obj
 0001:000606f0       ?support@?$LocalConvex@UCustomConvexV@@@Gu@physx@@UEBA?AT__m128@@AEBT4@@Z 00000001800616f0 f i GuGjkQuery.obj
 0001:00060770       ?support@?$LocalConvex@UCustomConvexV@@@Gu@physx@@UEBA?AT__m128@@AEBT4@AEAH@Z 0000000180061770 f i GuGjkQuery.obj
 0001:000607f0       ?support@?$LocalConvex@UPointConvexV@@@Gu@physx@@UEBA?AT__m128@@AEBT4@@Z 00000001800617f0 f i GuGjkQuery.obj
 0001:000607f0       ?supportPoint@?$LocalConvex@UPointConvexV@@@Gu@physx@@UEBA?AT__m128@@H@Z 00000001800617f0 f i GuGjkQuery.obj
 0001:00060800       ?support@?$LocalConvex@UPointConvexV@@@Gu@physx@@UEBA?AT__m128@@AEBT4@AEAH@Z 0000000180061800 f i GuGjkQuery.obj
 0001:00060820       ?support@?$RelativeConvex@UCustomConvexV@@@Gu@physx@@UEBA?AT__m128@@AEBT4@@Z 0000000180061820 f i GuGjkQuery.obj
 0001:000608f0       ?support@?$RelativeConvex@UCustomConvexV@@@Gu@physx@@UEBA?AT__m128@@AEBT4@AEAH@Z 00000001800618f0 f i GuGjkQuery.obj
 0001:000609d0       ?supportPoint@?$LocalConvex@UCustomConvexV@@@Gu@physx@@UEBA?AT__m128@@H@Z 00000001800619d0 f i GuGjkQuery.obj
 0001:00060a50       ?supportPoint@?$RelativeConvex@UCustomConvexV@@@Gu@physx@@UEBA?AT__m128@@H@Z 0000000180061a50 f i GuGjkQuery.obj
 0001:00060b00       ?sweep@PxGjkQuery@physx@@SA_NAEBUSupport@12@0AEBV?$PxTransformT@M@2@1AEBV?$PxVec3T@M@2@MAEAMAEAV52@4@Z 0000000180061b00 f   GuGjkQuery.obj
 0001:000612e0       ??$approximateCluster@MV?$PxVec3T@M@physx@@@Gu@physx@@YAXAEBV?$PxArray@HV?$PxReflectionAllocator@H@physx@@@1@IIPEBIPEBV?$PxVec3T@M@1@AEBV?$PxArray@MV?$PxReflectionAllocator@M@physx@@@1@AEBV?$PxArray@V?$PxVec3T@M@physx@@V?$PxReflectionAllocator@V?$PxVec3T@M@physx@@@2@@1@4AEAU?$ClusterApproximationT@MV?$PxVec3T@M@physx@@@01@@Z 00000001800622e0 f i GuWindingNumber.obj
 0001:00061940       ??$precomputeClusterInformation@MV?$PxVec3T@M@physx@@@Gu@physx@@YAXHPEBUBVHNode@01@PEBIIPEBV?$PxVec3T@M@1@AEAV?$PxHashMap@IU?$ClusterApproximationT@MV?$PxVec3T@M@physx@@@Gu@physx@@U?$PxHash@I@3@VPxAllocator@3@@1@V?$PxArray@MV?$PxReflectionAllocator@M@physx@@@1@AEBV?$PxArray@V?$PxVec3T@M@physx@@V?$PxReflectionAllocator@V?$PxVec3T@M@physx@@@2@@1@5@Z 0000000180062940 f i GuWindingNumber.obj
 0001:00061d10       ??$precomputeClusterInformation@MV?$PxVec3T@M@physx@@@Gu@physx@@YAXPEBUBVHNode@01@PEBIIPEBV?$PxVec3T@M@1@AEAV?$PxHashMap@IU?$ClusterApproximationT@MV?$PxVec3T@M@physx@@@Gu@physx@@U?$PxHash@I@3@VPxAllocator@3@@1@H@Z 0000000180062d10 f i GuWindingNumber.obj
 0001:00062120       ??$traverseBVH@V?$WindingNumberTraversalController@MV?$PxVec3T@M@physx@@@Gu@physx@@@Gu@physx@@YAXPEBUBVHNode@01@AEAV?$WindingNumberTraversalController@MV?$PxVec3T@M@physx@@@01@H@Z 0000000180063120 f i GuWindingNumber.obj
 0001:00062670       ?computeWindingNumber@Gu@physx@@YAMAEBV?$PxVec3T@M@2@PEBIIPEBV32@@Z 0000000180063670 f   GuWindingNumber.obj
 0001:000629a0       ?computeWindingNumber@Gu@physx@@YAMPEBUBVHNode@12@AEBV?$PxVec3T@M@2@AEBV?$PxHashMap@IU?$ClusterApproximationT@MV?$PxVec3T@M@physx@@@Gu@physx@@U?$PxHash@I@3@VPxAllocator@3@@2@PEBIPEBV42@@Z 00000001800639a0 f   GuWindingNumber.obj
 0001:00062a10       ?computeWindingNumber@Gu@physx@@YAMPEBUBVHNode@12@AEBV?$PxVec3T@M@2@MAEBV?$PxHashMap@IU?$ClusterApproximationT@MV?$PxVec3T@M@physx@@@Gu@physx@@U?$PxHash@I@3@VPxAllocator@3@@2@PEBIPEBV42@@Z 0000000180063a10 f   GuWindingNumber.obj
 0001:00062a80       ?create@?$PxHashBase@V?$PxPair@$$CBIU?$ClusterApproximationT@MV?$PxVec3T@M@physx@@@Gu@physx@@@physx@@IU?$PxHash@I@2@UGetKey@?$PxHashMapBase@IU?$ClusterApproximationT@MV?$PxVec3T@M@physx@@@Gu@physx@@U?$PxHash@I@3@VPxAllocator@3@@2@VPxAllocator@2@$00@physx@@QEAAPEAV?$PxPair@$$CBIU?$ClusterApproximationT@MV?$PxVec3T@M@physx@@@Gu@physx@@@2@AEBIAEA_N@Z 0000000180063a80 f i GuWindingNumber.obj
 0001:00062be0       ?growAndPushBack@?$PxArray@HV?$PxReflectionAllocator@H@physx@@@physx@@IEAAAEAHAEBH@Z 0000000180063be0 f i GuWindingNumber.obj
 0001:00062d00       ?growAndPushBack@?$PxArray@USection@Gu@physx@@V?$PxReflectionAllocator@USection@Gu@physx@@@3@@physx@@IEAAAEAUSection@Gu@2@AEBU342@@Z 0000000180063d00 f i GuWindingNumber.obj
 0001:00062e20       ?precomputeClusterInformation@Gu@physx@@YAXPEBUBVHNode@12@PEBIIPEBV?$PxVec3T@M@2@AEAV?$PxHashMap@IU?$ClusterApproximationT@MV?$PxVec3T@M@physx@@@Gu@physx@@U?$PxHash@I@3@VPxAllocator@3@@2@H@Z 0000000180063e20 f   GuWindingNumber.obj
 0001:00062ec0       ?SweepAnyShapeHeightfield@Gu@physx@@YAMAEBUCCDShape@12@0AEBUPxTransformPadded@2@111MAEAV?$PxVec3T@M@2@2MAEAIM@Z 0000000180063ec0 f   GuCCDSweepConvexMesh.obj
 0001:00064470       ?SweepAnyShapeMesh@Gu@physx@@YAMAEBUCCDShape@12@0AEBUPxTransformPadded@2@111MAEAV?$PxVec3T@M@2@2MAEAIM@Z 0000000180065470 f   GuCCDSweepConvexMesh.obj
 0001:00065a60       ?SweepEstimateAnyShapeHeightfield@Gu@physx@@YAMAEBUCCDShape@12@0MM@Z 0000000180066a60 f   GuCCDSweepConvexMesh.obj
 0001:000666f0       ?SweepEstimateAnyShapeMesh@Gu@physx@@YAMAEBUCCDShape@12@0MM@Z 00000001800676f0 f   GuCCDSweepConvexMesh.obj
 0001:00066990       ?allocate@?$PxArray@IV?$PxInlineAllocator@$0BAA@V?$PxReflectionAllocator@I@physx@@@physx@@@physx@@IEAAPEAIIPEAI@Z 0000000180067990 f i GuCCDSweepConvexMesh.obj
 0001:00067490       ?growAndPushBack@?$PxArray@IV?$PxInlineAllocator@$0BAA@V?$PxReflectionAllocator@I@physx@@@physx@@@physx@@IEAAAEAIAEBI@Z 0000000180068490 f i GuCCDSweepConvexMesh.obj
 0001:00067ae0       ?recreate@?$PxArray@IV?$PxInlineAllocator@$0BAA@V?$PxReflectionAllocator@I@physx@@@physx@@@physx@@IEAAXI@Z 0000000180068ae0 f i GuCCDSweepConvexMesh.obj
 0001:00067c20       ?resize@?$PxArray@IV?$PxInlineAllocator@$0BAA@V?$PxReflectionAllocator@I@physx@@@physx@@@physx@@QEAAXIAEBI@Z 0000000180068c20 f i GuCCDSweepConvexMesh.obj
 0001:00067cf0       ?transformBoxOrthonormal@physx@@YA?AVBox@Gu@1@AEBV231@AEBV?$PxTransformT@M@1@@Z 0000000180068cf0 f i GuCCDSweepConvexMesh.obj
 0001:000681b0       ?UnimplementedSweep@Gu@physx@@YAMAEBUCCDShape@12@0AEBUPxTransformPadded@2@111MAEAV?$PxVec3T@M@2@2MAEAIM@Z 00000001800691b0 f   GuCCDSweepPrimitives.obj
 0001:0006bb20       ?UnimplementedTriangleSweep@Gu@physx@@YAMAEBVPxGeometry@2@0AEBUPxTransformPadded@2@111MAEAV?$PxVec3T@M@2@2AEBVFastVertex2ShapeScaling@Cm@2@AEAVTriangleV@12@M@Z 000000018006cb20 f   GuCCDSweepPrimitives.obj
 0001:0006bb30       ??$SweepGeomTriangles@VCapsuleV@Gu@physx@@@Gu@physx@@YAMAEBVPxGeometry@1@0AEBUPxTransformPadded@1@111MAEAV?$PxVec3T@M@1@2AEBVFastVertex2ShapeScaling@Cm@1@AEAVTriangleV@01@M@Z 000000018006cb30 f i GuCCDSweepPrimitives.obj
 0001:0006c250       ??$SweepGeomTriangles@VBoxV@Gu@physx@@@Gu@physx@@YAMAEBVPxGeometry@1@0AEBUPxTransformPadded@1@111MAEAV?$PxVec3T@M@1@2AEBVFastVertex2ShapeScaling@Cm@1@AEAVTriangleV@01@M@Z 000000018006d250 f i GuCCDSweepPrimitives.obj
 0001:0006c990       ??$SweepGeomTriangles@VConvexHullV@Gu@physx@@@Gu@physx@@YAMAEBVPxGeometry@1@0AEBUPxTransformPadded@1@111MAEAV?$PxVec3T@M@1@2AEBVFastVertex2ShapeScaling@Cm@1@AEAVTriangleV@01@M@Z 000000018006d990 f i GuCCDSweepPrimitives.obj
 0001:0006d260       ?supportPoint@?$RelativeConvex@VCapsuleV@Gu@physx@@@Gu@physx@@UEBA?AT__m128@@H@Z 000000018006e260 f i GuCCDSweepPrimitives.obj
 0001:0006d2b0       ?support@?$RelativeConvex@VCapsuleV@Gu@physx@@@Gu@physx@@UEBA?AT__m128@@AEBT4@@Z 000000018006e2b0 f i GuCCDSweepPrimitives.obj
 0001:0006d360       ?support@?$RelativeConvex@VCapsuleV@Gu@physx@@@Gu@physx@@UEBA?AT__m128@@AEBT4@AEAH@Z 000000018006e360 f i GuCCDSweepPrimitives.obj
 0001:0006d420       ?supportPoint@?$RelativeConvex@VTriangleV@Gu@physx@@@Gu@physx@@UEBA?AT__m128@@H@Z 000000018006e420 f i GuCCDSweepPrimitives.obj
 0001:0006d470       ?support@?$RelativeConvex@VTriangleV@Gu@physx@@@Gu@physx@@UEBA?AT__m128@@AEBT4@@Z 000000018006e470 f i GuCCDSweepPrimitives.obj
 0001:0006d570       ?support@?$RelativeConvex@VTriangleV@Gu@physx@@@Gu@physx@@UEBA?AT__m128@@AEBT4@AEAH@Z 000000018006e570 f i GuCCDSweepPrimitives.obj
 0001:0006d6b0       ??$gjkPenetration@U?$RelativeConvex@VCapsuleV@Gu@physx@@@Gu@physx@@U?$LocalConvex@VBoxV@Gu@physx@@@23@@Gu@physx@@YA?AW4GjkStatus@01@AEBU?$RelativeConvex@VCapsuleV@Gu@physx@@@01@AEBU?$LocalConvex@VBoxV@Gu@physx@@@01@AEBT__m128@@2_NPEIAE4AEAEAEAUGjkOutput@01@@Z 000000018006e6b0 f i GuCCDSweepPrimitives.obj
 0001:0006d720       ??$gjkPenetration@U?$RelativeConvex@VCapsuleV@Gu@physx@@@Gu@physx@@U?$LocalConvex@VBoxV@Gu@physx@@@23@@Gu@physx@@YA?AW4GjkStatus@01@AEBU?$RelativeConvex@VCapsuleV@Gu@physx@@@01@AEBU?$LocalConvex@VBoxV@Gu@physx@@@01@AEBT__m128@@2_NPEIAE4PEIAT5@5AEAEAEAUGjkOutput@01@@Z 000000018006e720 f i GuCCDSweepPrimitives.obj
 0001:0006f210       ??$gjkPenetration@U?$RelativeConvex@VCapsuleV@Gu@physx@@@Gu@physx@@U?$LocalConvex@VCapsuleV@Gu@physx@@@23@@Gu@physx@@YA?AW4GjkStatus@01@AEBU?$RelativeConvex@VCapsuleV@Gu@physx@@@01@AEBU?$LocalConvex@VCapsuleV@Gu@physx@@@01@AEBT__m128@@2_NPEIAE4AEAEAEAUGjkOutput@01@@Z 0000000180070210 f i GuCCDSweepPrimitives.obj
 0001:0006f280       ??$gjkPenetration@U?$RelativeConvex@VCapsuleV@Gu@physx@@@Gu@physx@@U?$LocalConvex@VCapsuleV@Gu@physx@@@23@@Gu@physx@@YA?AW4GjkStatus@01@AEBU?$RelativeConvex@VCapsuleV@Gu@physx@@@01@AEBU?$LocalConvex@VCapsuleV@Gu@physx@@@01@AEBT__m128@@2_NPEIAE4PEIAT5@5AEAEAEAUGjkOutput@01@@Z 0000000180070280 f i GuCCDSweepPrimitives.obj
 0001:00070d60       ??$gjkPenetration@U?$RelativeConvex@VCapsuleV@Gu@physx@@@Gu@physx@@U?$LocalConvex@VConvexHullV@Gu@physx@@@23@@Gu@physx@@YA?AW4GjkStatus@01@AEBU?$RelativeConvex@VCapsuleV@Gu@physx@@@01@AEBU?$LocalConvex@VConvexHullV@Gu@physx@@@01@AEBT__m128@@2_NPEIAE4AEAEAEAUGjkOutput@01@@Z 0000000180071d60 f i GuCCDSweepPrimitives.obj
 0001:00070dd0       ??$gjkPenetration@U?$RelativeConvex@VCapsuleV@Gu@physx@@@Gu@physx@@U?$LocalConvex@VConvexHullV@Gu@physx@@@23@@Gu@physx@@YA?AW4GjkStatus@01@AEBU?$RelativeConvex@VCapsuleV@Gu@physx@@@01@AEBU?$LocalConvex@VConvexHullV@Gu@physx@@@01@AEBT__m128@@2_NPEIAE4PEIAT5@5AEAEAEAUGjkOutput@01@@Z 0000000180071dd0 f i GuCCDSweepPrimitives.obj
 0001:00072940       ??$gjkPenetration@U?$RelativeConvex@VTriangleV@Gu@physx@@@Gu@physx@@U?$LocalConvex@VBoxV@Gu@physx@@@23@@Gu@physx@@YA?AW4GjkStatus@01@AEBU?$RelativeConvex@VTriangleV@Gu@physx@@@01@AEBU?$LocalConvex@VBoxV@Gu@physx@@@01@AEBT__m128@@2_NPEIAE4AEAEAEAUGjkOutput@01@@Z 0000000180073940 f i GuCCDSweepPrimitives.obj
 0001:000729b0       ??$gjkPenetration@U?$RelativeConvex@VTriangleV@Gu@physx@@@Gu@physx@@U?$LocalConvex@VBoxV@Gu@physx@@@23@@Gu@physx@@YA?AW4GjkStatus@01@AEBU?$RelativeConvex@VTriangleV@Gu@physx@@@01@AEBU?$LocalConvex@VBoxV@Gu@physx@@@01@AEBT__m128@@2_NPEIAE4PEIAT5@5AEAEAEAUGjkOutput@01@@Z 00000001800739b0 f i GuCCDSweepPrimitives.obj
 0001:000744c0       ??$gjkPenetration@U?$RelativeConvex@VTriangleV@Gu@physx@@@Gu@physx@@U?$LocalConvex@VCapsuleV@Gu@physx@@@23@@Gu@physx@@YA?AW4GjkStatus@01@AEBU?$RelativeConvex@VTriangleV@Gu@physx@@@01@AEBU?$LocalConvex@VCapsuleV@Gu@physx@@@01@AEBT__m128@@2_NPEIAE4AEAEAEAUGjkOutput@01@@Z 00000001800754c0 f i GuCCDSweepPrimitives.obj
 0001:00074530       ??$gjkPenetration@U?$RelativeConvex@VTriangleV@Gu@physx@@@Gu@physx@@U?$LocalConvex@VCapsuleV@Gu@physx@@@23@@Gu@physx@@YA?AW4GjkStatus@01@AEBU?$RelativeConvex@VTriangleV@Gu@physx@@@01@AEBU?$LocalConvex@VCapsuleV@Gu@physx@@@01@AEBT__m128@@2_NPEIAE4PEIAT5@5AEAEAEAUGjkOutput@01@@Z 0000000180075530 f i GuCCDSweepPrimitives.obj
 0001:00076060       ??$gjkPenetration@U?$RelativeConvex@VTriangleV@Gu@physx@@@Gu@physx@@U?$LocalConvex@VConvexHullV@Gu@physx@@@23@@Gu@physx@@YA?AW4GjkStatus@01@AEBU?$RelativeConvex@VTriangleV@Gu@physx@@@01@AEBU?$LocalConvex@VConvexHullV@Gu@physx@@@01@AEBT__m128@@2_NPEIAE4AEAEAEAUGjkOutput@01@@Z 0000000180077060 f i GuCCDSweepPrimitives.obj
 0001:000760d0       ??$gjkPenetration@U?$RelativeConvex@VTriangleV@Gu@physx@@@Gu@physx@@U?$LocalConvex@VConvexHullV@Gu@physx@@@23@@Gu@physx@@YA?AW4GjkStatus@01@AEBU?$RelativeConvex@VTriangleV@Gu@physx@@@01@AEBU?$LocalConvex@VConvexHullV@Gu@physx@@@01@AEBT__m128@@2_NPEIAE4PEIAT5@5AEAEAEAUGjkOutput@01@@Z 00000001800770d0 f i GuCCDSweepPrimitives.obj
 0001:00077c80       ??$gjkRaycast@U?$RelativeConvex@VCapsuleV@Gu@physx@@@Gu@physx@@U?$LocalConvex@VBoxV@Gu@physx@@@23@@Gu@physx@@YA_NAEBU?$RelativeConvex@VCapsuleV@Gu@physx@@@01@AEBU?$LocalConvex@VBoxV@Gu@physx@@@01@AEBT__m128@@222AEAT4@33M@Z 0000000180078c80 f i GuCCDSweepPrimitives.obj
 0001:00078920       ??$gjkRaycast@U?$RelativeConvex@VCapsuleV@Gu@physx@@@Gu@physx@@U?$LocalConvex@VCapsuleV@Gu@physx@@@23@@Gu@physx@@YA_NAEBU?$RelativeConvex@VCapsuleV@Gu@physx@@@01@AEBU?$LocalConvex@VCapsuleV@Gu@physx@@@01@AEBT__m128@@222AEAT4@33M@Z 0000000180079920 f i GuCCDSweepPrimitives.obj
 0001:00079630       ??$gjkRaycast@U?$RelativeConvex@VCapsuleV@Gu@physx@@@Gu@physx@@U?$LocalConvex@VConvexHullV@Gu@physx@@@23@@Gu@physx@@YA_NAEBU?$RelativeConvex@VCapsuleV@Gu@physx@@@01@AEBU?$LocalConvex@VConvexHullV@Gu@physx@@@01@AEBT__m128@@222AEAT4@33M@Z 000000018007a630 f i GuCCDSweepPrimitives.obj
 0001:0007a460       ??$gjkRaycast@U?$RelativeConvex@VTriangleV@Gu@physx@@@Gu@physx@@U?$LocalConvex@VBoxV@Gu@physx@@@23@@Gu@physx@@YA_NAEBU?$RelativeConvex@VTriangleV@Gu@physx@@@01@AEBU?$LocalConvex@VBoxV@Gu@physx@@@01@AEBT__m128@@222AEAT4@33M@Z 000000018007b460 f i GuCCDSweepPrimitives.obj
 0001:0007b180       ??$gjkRaycast@U?$RelativeConvex@VTriangleV@Gu@physx@@@Gu@physx@@U?$LocalConvex@VCapsuleV@Gu@physx@@@23@@Gu@physx@@YA_NAEBU?$RelativeConvex@VTriangleV@Gu@physx@@@01@AEBU?$LocalConvex@VCapsuleV@Gu@physx@@@01@AEBT__m128@@222AEAT4@33M@Z 000000018007c180 f i GuCCDSweepPrimitives.obj
 0001:0007bf40       ??$gjkRaycast@U?$RelativeConvex@VTriangleV@Gu@physx@@@Gu@physx@@U?$LocalConvex@VConvexHullV@Gu@physx@@@23@@Gu@physx@@YA_NAEBU?$RelativeConvex@VTriangleV@Gu@physx@@@01@AEBU?$LocalConvex@VConvexHullV@Gu@physx@@@01@AEBT__m128@@222AEAT4@33M@Z 000000018007cf40 f i GuCCDSweepPrimitives.obj
 0001:0007ce00       ??$gjkRaycastPenetration@U?$RelativeConvex@VCapsuleV@Gu@physx@@@Gu@physx@@U?$LocalConvex@VConvexHullV@Gu@physx@@@23@@Gu@physx@@YA_NAEBU?$RelativeConvex@VCapsuleV@Gu@physx@@@01@AEBU?$LocalConvex@VConvexHullV@Gu@physx@@@01@AEBT__m128@@222AEAT4@33M_N@Z 000000018007de00 f i GuCCDSweepPrimitives.obj
 0001:0007d090       ??$gjkRaycastPenetration@U?$RelativeConvex@VTriangleV@Gu@physx@@@Gu@physx@@U?$LocalConvex@VConvexHullV@Gu@physx@@@23@@Gu@physx@@YA_NAEBU?$RelativeConvex@VTriangleV@Gu@physx@@@01@AEBU?$LocalConvex@VConvexHullV@Gu@physx@@@01@AEBT__m128@@222AEAT4@33M_N@Z 000000018007e090 f i GuCCDSweepPrimitives.obj
 0001:0007d320       ?SweepShapeShape@Gu@physx@@YAMAEBUCCDShape@12@0AEBUPxTransformPadded@2@111MAEAV?$PxVec3T@M@2@2MAEAIM@Z 000000018007e320 f   GuCCDSweepPrimitives.obj
 0001:0007d340       ?SweepShapeTriangle@Gu@physx@@YAMAEBVPxGeometry@2@0AEBUPxTransformPadded@2@111MAEAV?$PxVec3T@M@2@2AEBVFastVertex2ShapeScaling@Cm@2@AEAVTriangleV@12@M@Z 000000018007e340 f   GuCCDSweepPrimitives.obj
 0001:0007d360       ?barycentricCoordinates@Gu@physx@@YAXAEBT__m128@@000AEAT3@1@Z 000000018007e360 f   GuBarycentricCoordinates.obj
 0001:0007d4a0       ?barycentricCoordinates@Gu@physx@@YAXAEBT__m128@@00AEAT3@@Z 000000018007e4a0 f   GuBarycentricCoordinates.obj
 0001:0007d510       ??$?_UV?$PxReflectionAllocator@VAdjTriangle@Gu@physx@@@physx@@@PxUserAllocated@physx@@SAPEAX_KV?$PxReflectionAllocator@VAdjTriangle@Gu@physx@@@1@PEBDH@Z 000000018007e510 f i GuAdjacencies.obj
 0001:0007d5f0       ??0AdjacenciesBuilder@Gu@physx@@QEAA@XZ 000000018007e5f0 f   GuAdjacencies.obj
 0001:0007d600       ??1AdjacenciesBuilder@Gu@physx@@QEAA@XZ 000000018007e600 f   GuAdjacencies.obj
 0001:0007d750       ?ComputeNbBoundaryEdges@Adjacencies@Gu@physx@@QEBAIXZ 000000018007e750 f   GuAdjacencies.obj
 0001:0007d9e0       ?Init@AdjacenciesBuilder@Gu@physx@@QEAA_NAEBUADJACENCIESCREATE@23@@Z 000000018007e9e0 f   GuAdjacencies.obj
 0001:0007df50       ??0EdgeList@Gu@physx@@QEAA@XZ 000000018007ef50 f   GuEdgeList.obj
 0001:0007df70       ??1EdgeList@Gu@physx@@QEAA@XZ 000000018007ef70 f   GuEdgeList.obj
 0001:0007e020       ?computeActiveEdges@EdgeList@Gu@physx@@AEAA_NIPEBIPEBGPEBV?$PxVec3T@M@3@M@Z 000000018007f020 f   GuEdgeList.obj
 0001:0007f3b0       ?createEdgesToFaces@EdgeList@Gu@physx@@AEAA_NIPEBIPEBG@Z 00000001800803b0 f   GuEdgeList.obj
 0001:0007f610       ?createFacesToEdges@EdgeList@Gu@physx@@AEAA_NIPEBIPEBG@Z 0000000180080610 f   GuEdgeList.obj
 0001:0007fa90       ?init@EdgeList@Gu@physx@@QEAA_NAEBUEDGELISTCREATE@23@@Z 0000000180080a90 f   GuEdgeList.obj
 0001:0007fbc0       ?addAxis@SeparatingAxes@Gu@physx@@QEAA_NAEBV?$PxVec3T@M@3@@Z 0000000180080bc0 f   GuSeparatingAxes.obj
 0001:0007fc80       ??$kmeans_cluster@V?$PxVec3T@M@physx@@M@@YAIPEBV?$PxVec3T@M@physx@@IIPEAV01@PEAIMM@Z 0000000180080c80 f i GuQuantizer.obj
 0001:00080630       ??_EQuantizer@Gu@physx@@MEAAPEAXI@Z 0000000180081630 f i GuQuantizer.obj
 0001:00080630       ??_GQuantizer@Gu@physx@@MEAAPEAXI@Z 0000000180081630 f i GuQuantizer.obj
 0001:00080660       ??_EQuantizerImpl@@EEAAPEAXI@Z 0000000180081660 f i GuQuantizer.obj
 0001:00080660       ??_GQuantizerImpl@@EEAAPEAXI@Z 0000000180081660 f i GuQuantizer.obj
 0001:00080730       ?createQuantizer@Gu@physx@@YAPEAVQuantizer@12@XZ 0000000180081730 f   GuQuantizer.obj
 0001:000807e0       ?getDenormalizeCenter@QuantizerImpl@@UEBAAEBV?$PxVec3T@M@physx@@XZ 00000001800817e0 f i GuQuantizer.obj
 0001:000807f0       ?getCurrentAABBTreeBounds@PruningPool@Gu@physx@@QEBAAEBVAABBTreeBounds@23@XZ 00000001800817f0 f i GuIncrementalAABBPrunerCore.obj
 0001:000807f0       ?getDenormalizeScale@QuantizerImpl@@UEBAAEBV?$PxVec3T@M@physx@@XZ 00000001800817f0 f i GuQuantizer.obj
 0001:00080800       ?kmeansQuantize3D@QuantizerImpl@@UEAAPEBV?$PxVec3T@M@physx@@IPEBV23@I_NIAEAI@Z 0000000180081800 f i GuQuantizer.obj
 0001:00080a70       ?normalizeInput@QuantizerImpl@@AEAAXIPEBV?$PxVec3T@M@physx@@I@Z 0000000180081a70 f i GuQuantizer.obj
 0001:00080ea0       ?release@QuantizerImpl@@UEAAXXZ 0000000180081ea0 f i GuQuantizer.obj
 0001:00080ec0       ??0MeshCleaner@Gu@physx@@QEAA@IPEBV?$PxVec3T@M@2@IPEBIMM@Z 0000000180081ec0 f   GuMeshCleaner.obj
 0001:000818e0       ??1MeshCleaner@Gu@physx@@QEAA@XZ 00000001800828e0 f   GuMeshCleaner.obj
 0001:00081970       ??0ReducedVertexCloud@Gu@physx@@QEAA@PEBV?$PxVec3T@M@2@I@Z 0000000180082970 f   GuVertexReducer.obj
 0001:00081990       ??1ReducedVertexCloud@Gu@physx@@QEAA@XZ 0000000180082990 f   GuVertexReducer.obj
 0001:000819a0       ?clean@ReducedVertexCloud@Gu@physx@@QEAAAEAV123@XZ 00000001800829a0 f   GuVertexReducer.obj
 0001:00081a10       ?reduce@ReducedVertexCloud@Gu@physx@@QEAA_NPEAUREDUCEDCLOUD@23@@Z 0000000180082a10 f   GuVertexReducer.obj
 0001:00081cb0       ?buildConsistentTriangleOrientationMap@MeshAnalyzer@Gu@physx@@SA_NPEBU?$IndexedTriangleT@H@23@IAEAV?$PxArray@_NV?$PxReflectionAllocator@_N@physx@@@3@AEAV?$PxHashMap@_KHU?$PxHash@_K@physx@@VPxAllocator@2@@3@AEAV?$PxArray@V?$PxArray@IV?$PxReflectionAllocator@I@physx@@@physx@@V?$PxReflectionAllocator@V?$PxArray@IV?$PxReflectionAllocator@I@physx@@@physx@@@2@@3@@Z 0000000180082cb0 f   GuMeshAnalysis.obj
 0001:000821f0       ?buildTriangleAdjacency@MeshAnalyzer@Gu@physx@@SA_NPEBU?$IndexedTriangleT@H@23@IAEAV?$PxArray@HV?$PxReflectionAllocator@H@physx@@@3@AEAV?$PxHashMap@_KHU?$PxHash@_K@physx@@VPxAllocator@2@@3@@Z 00000001800831f0 f   GuMeshAnalysis.obj
 0001:00082500       ?checkConsistentTriangleOrientation@MeshAnalyzer@Gu@physx@@SA_NPEBU?$IndexedTriangleT@H@23@I@Z 0000000180083500 f   GuMeshAnalysis.obj
 0001:00082650       ?checkMeshWatertightness@MeshAnalyzer@Gu@physx@@SA_NPEBU?$IndexedTriangleT@H@23@I_N@Z 0000000180083650 f   GuMeshAnalysis.obj
 0001:00082820       ?destroy@?$PxArray@V?$PxArray@IV?$PxReflectionAllocator@I@physx@@@physx@@V?$PxReflectionAllocator@V?$PxArray@IV?$PxReflectionAllocator@I@physx@@@physx@@@2@@physx@@KAXPEAV?$PxArray@IV?$PxReflectionAllocator@I@physx@@@2@0@Z 0000000180083820 f i GuMeshAnalysis.obj
 0001:00082890       ?erase@?$PxHashBase@V?$PxPair@$$CB_KH@physx@@_KU?$PxHash@_K@2@UGetKey@?$PxHashMapBase@_KHU?$PxHash@_K@physx@@VPxAllocator@2@@2@VPxAllocator@2@$00@physx@@QEAA_NAEB_K@Z 0000000180083890 f i GuMeshAnalysis.obj
 0001:00082a30       ?growAndPushBack@?$PxArray@V?$PxArray@IV?$PxReflectionAllocator@I@physx@@@physx@@V?$PxReflectionAllocator@V?$PxArray@IV?$PxReflectionAllocator@I@physx@@@physx@@@2@@physx@@IEAAAEAV?$PxArray@IV?$PxReflectionAllocator@I@physx@@@2@AEBV32@@Z 0000000180083a30 f i GuMeshAnalysis.obj
 0001:00082b80       ?makeTriOrientationConsistent@MeshAnalyzer@Gu@physx@@SA_NPEAU?$IndexedTriangleT@H@23@I_N@Z 0000000180083b80 f   GuMeshAnalysis.obj
 0001:00082cf0       ?recreate@?$PxArray@_NV?$PxReflectionAllocator@_N@physx@@@physx@@IEAAXI@Z 0000000180083cf0 f i GuMeshAnalysis.obj
 0001:00082de0       ?resize@?$PxArray@HV?$PxReflectionAllocator@H@physx@@@physx@@QEAAXIAEBH@Z 0000000180083de0 f i GuMeshAnalysis.obj
 0001:00082ea0       ?resize@?$PxArray@_NV?$PxReflectionAllocator@_N@physx@@@physx@@QEAAXIAEB_N@Z 0000000180083ea0 f i GuMeshAnalysis.obj
 0001:00082f60       ?contactBoxBox@Gu@physx@@YA_NAEBVPxGeometry@2@0AEBUPxTransformPadded@2@1AEBUNarrowPhaseParams@12@AEAUCache@12@AEAVPxContactBuffer@2@PEAVPxRenderOutput@2@@Z 0000000180083f60 f   GuContactBoxBox.obj
 0001:00086b90       ?contactCapsuleBox@Gu@physx@@YA_NAEBVPxGeometry@2@0AEBUPxTransformPadded@2@1AEBUNarrowPhaseParams@12@AEAUCache@12@AEAVPxContactBuffer@2@PEAVPxRenderOutput@2@@Z 0000000180087b90 f   GuContactCapsuleBox.obj
 0001:000873a0       ?contactCapsuleCapsule@Gu@physx@@YA_NAEBVPxGeometry@2@0AEBUPxTransformPadded@2@1AEBUNarrowPhaseParams@12@AEAUCache@12@AEAVPxContactBuffer@2@PEAVPxRenderOutput@2@@Z 00000001800883a0 f   GuContactCapsuleCapsule.obj
 0001:00089d40       ?contactCapsuleConvex@Gu@physx@@YA_NAEBVPxGeometry@2@0AEBUPxTransformPadded@2@1AEBUNarrowPhaseParams@12@AEAUCache@12@AEAVPxContactBuffer@2@PEAVPxRenderOutput@2@@Z 000000018008ad40 f   GuContactCapsuleConvex.obj
 0001:0008c250       ?contactCapsuleHeightfield@Gu@physx@@YA_NAEBVPxGeometry@2@0AEBUPxTransformPadded@2@1AEBUNarrowPhaseParams@12@AEAUCache@12@AEAVPxContactBuffer@2@PEAVPxRenderOutput@2@@Z 000000018008d250 f   GuContactCapsuleMesh.obj
 0001:0008ca10       ?contactCapsuleMesh@Gu@physx@@YA_NAEBVPxGeometry@2@0AEBUPxTransformPadded@2@1AEBUNarrowPhaseParams@12@AEAUCache@12@AEAVPxContactBuffer@2@PEAVPxRenderOutput@2@@Z 000000018008da10 f   GuContactCapsuleMesh.obj
 0001:0008dbe0       ?transformQueryBounds@FastVertex2ShapeScaling@Cm@physx@@QEBAXAEAV?$PxVec3T@M@3@0AEAV?$PxMat33T@M@3@@Z 000000018008ebe0 f i GuContactCapsuleMesh.obj
 0001:00091fa0       ?contactBoxConvex@Gu@physx@@YA_NAEBVPxGeometry@2@0AEBUPxTransformPadded@2@1AEBUNarrowPhaseParams@12@AEAUCache@12@AEAVPxContactBuffer@2@PEAVPxRenderOutput@2@@Z 0000000180092fa0 f   GuContactConvexConvex.obj
 0001:00092170       ?contactConvexConvex@Gu@physx@@YA_NAEBVPxGeometry@2@0AEBUPxTransformPadded@2@1AEBUNarrowPhaseParams@12@AEAUCache@12@AEAVPxContactBuffer@2@PEAVPxRenderOutput@2@@Z 0000000180093170 f   GuContactConvexConvex.obj
 0001:000925e0       ?transformPlaneToShapeSpace@FastVertex2ShapeScaling@Cm@physx@@QEBAXAEBV?$PxVec3T@M@3@MAEAV43@AEAM@Z 00000001800935e0 f i GuContactConvexConvex.obj
 0001:00092b20       ??_EConvexMeshContactGenerationCallback@@UEAAPEAXI@Z 0000000180093b20 f i GuContactConvexMesh.obj
 0001:00092b20       ??_GConvexMeshContactGenerationCallback@@UEAAPEAXI@Z 0000000180093b20 f i GuContactConvexMesh.obj
 0001:00092b80       ?addData@?$CacheMap@UCachedEdge@Gu@physx@@$0IA@@Gu@physx@@QEAA_NAEBUCachedEdge@23@@Z 0000000180093b80 f i GuContactConvexMesh.obj
 0001:00092c60       ?addData@?$CacheMap@UCachedVertex@Gu@physx@@$0IA@@Gu@physx@@QEAA_NAEBUCachedVertex@23@@Z 0000000180093c60 f i GuContactConvexMesh.obj
 0001:00092cf0       ?allocate@?$PxArray@IV?$PxInlineAllocator@$0BBAA@V?$PxReflectionAllocator@I@physx@@@physx@@@physx@@IEAAPEAIIPEAI@Z 0000000180093cf0 f i GuContactConvexMesh.obj
 0001:000930f0       ?contactBoxHeightfield@Gu@physx@@YA_NAEBVPxGeometry@2@0AEBUPxTransformPadded@2@1AEBUNarrowPhaseParams@12@AEAUCache@12@AEAVPxContactBuffer@2@PEAVPxRenderOutput@2@@Z 00000001800940f0 f   GuContactConvexMesh.obj
 0001:00093270       ?contactBoxMesh@Gu@physx@@YA_NAEBVPxGeometry@2@0AEBUPxTransformPadded@2@1AEBUNarrowPhaseParams@12@AEAUCache@12@AEAVPxContactBuffer@2@PEAVPxRenderOutput@2@@Z 0000000180094270 f   GuContactConvexMesh.obj
 0001:00093440       ?contactConvexHeightfield@Gu@physx@@YA_NAEBVPxGeometry@2@0AEBUPxTransformPadded@2@1AEBUNarrowPhaseParams@12@AEAUCache@12@AEAVPxContactBuffer@2@PEAVPxRenderOutput@2@@Z 0000000180094440 f   GuContactConvexMesh.obj
 0001:00093590       ?contactConvexMesh@Gu@physx@@YA_NAEBVPxGeometry@2@0AEBUPxTransformPadded@2@1AEBUNarrowPhaseParams@12@AEAUCache@12@AEAVPxContactBuffer@2@PEAVPxRenderOutput@2@@Z 0000000180094590 f   GuContactConvexMesh.obj
 0001:000949c0       ?contains@?$CacheMap@UCachedEdge@Gu@physx@@$0IA@@Gu@physx@@QEBA_NAEBUCachedEdge@23@@Z 00000001800959c0 f i GuContactConvexMesh.obj
 0001:00096bd0       ?processHit@ConvexMeshContactGenerationCallback@@UEAA_NAEBUPxGeomRaycastHit@physx@@AEBV?$PxVec3T@M@3@11AEAMPEBI@Z 0000000180097bd0 f i GuContactConvexMesh.obj
 0001:000974d0       ?recreate@?$PxArray@IV?$PxInlineAllocator@$0BBAA@V?$PxReflectionAllocator@I@physx@@@physx@@@physx@@IEAAXI@Z 00000001800984d0 f i GuContactConvexMesh.obj
 0001:000989a0       ?contactPlaneBox@Gu@physx@@YA_NAEBVPxGeometry@2@0AEBUPxTransformPadded@2@1AEBUNarrowPhaseParams@12@AEAUCache@12@AEAVPxContactBuffer@2@PEAVPxRenderOutput@2@@Z 00000001800999a0 f   GuContactPlaneBox.obj
 0001:00099890       ?contactPlaneCapsule@Gu@physx@@YA_NAEBVPxGeometry@2@0AEBUPxTransformPadded@2@1AEBUNarrowPhaseParams@12@AEAUCache@12@AEAVPxContactBuffer@2@PEAVPxRenderOutput@2@@Z 000000018009a890 f   GuContactPlaneCapsule.obj
 0001:00099f40       ?contactPlaneConvex@Gu@physx@@YA_NAEBVPxGeometry@2@0AEBUPxTransformPadded@2@1AEBUNarrowPhaseParams@12@AEAUCache@12@AEAVPxContactBuffer@2@PEAVPxRenderOutput@2@@Z 000000018009af40 f   GuContactPlaneConvex.obj
 0001:0009ba50       ?contactPolygonPolygonExt@Gu@physx@@YA_NIPEBV?$PxVec3T@M@2@PEBEAEBV?$PxMat34T@M@2@AEBVPxPlane@2@AEBV?$PxMat33T@M@2@I01234AEBV32@22IIAEAVPxContactBuffer@2@_N5M@Z 000000018009ca50 f   GuContactPolygonPolygon.obj
 0001:0009d190       ?findRotationMatrixFromZ@Gu@physx@@YA?AV?$PxMat33T@M@2@AEBV?$PxVec3T@M@2@@Z 000000018009e190 f   GuContactPolygonPolygon.obj
 0001:0009db70       ?contactSphereBox@Gu@physx@@YA_NAEBVPxGeometry@2@0AEBUPxTransformPadded@2@1AEBUNarrowPhaseParams@12@AEAUCache@12@AEAVPxContactBuffer@2@PEAVPxRenderOutput@2@@Z 000000018009eb70 f   GuContactSphereBox.obj
 0001:0009e130       ?contactSphereCapsule@Gu@physx@@YA_NAEBVPxGeometry@2@0AEBUPxTransformPadded@2@1AEBUNarrowPhaseParams@12@AEAUCache@12@AEAVPxContactBuffer@2@PEAVPxRenderOutput@2@@Z 000000018009f130 f   GuContactSphereCapsule.obj
 0001:0009eef0       ?contactSphereHeightfield@Gu@physx@@YA_NAEBVPxGeometry@2@0AEBUPxTransformPadded@2@1AEBUNarrowPhaseParams@12@AEAUCache@12@AEAVPxContactBuffer@2@PEAVPxRenderOutput@2@@Z 000000018009fef0 f   GuContactSphereMesh.obj
 0001:0009f1b0       ?contactSphereMesh@Gu@physx@@YA_NAEBVPxGeometry@2@0AEBUPxTransformPadded@2@1AEBUNarrowPhaseParams@12@AEAUCache@12@AEAVPxContactBuffer@2@PEAVPxRenderOutput@2@@Z 00000001800a01b0 f   GuContactSphereMesh.obj
 0001:000a0760       ?contactSpherePlane@Gu@physx@@YA_NAEBVPxGeometry@2@0AEBUPxTransformPadded@2@1AEBUNarrowPhaseParams@12@AEAUCache@12@AEAVPxContactBuffer@2@PEAVPxRenderOutput@2@@Z 00000001800a1760 f   GuContactSpherePlane.obj
 0001:000a0970       ?contactSphereSphere@Gu@physx@@YA_NAEBVPxGeometry@2@0AEBUPxTransformPadded@2@1AEBUNarrowPhaseParams@12@AEAUCache@12@AEAVPxContactBuffer@2@PEAVPxRenderOutput@2@@Z 00000001800a1970 f   GuContactSphereSphere.obj
 0001:000a0af0       ?contactCustomGeometryGeometry@Gu@physx@@YA_NAEBVPxGeometry@2@0AEBUPxTransformPadded@2@1AEBUNarrowPhaseParams@12@AEAUCache@12@AEAVPxContactBuffer@2@PEAVPxRenderOutput@2@@Z 00000001800a1af0 f   GuContactCustomGeometry.obj
 0001:000a0b50       ?contactGeometryCustomGeometry@Gu@physx@@YA_NAEBVPxGeometry@2@0AEBUPxTransformPadded@2@1AEBUNarrowPhaseParams@12@AEAUCache@12@AEAVPxContactBuffer@2@PEAVPxRenderOutput@2@@Z 00000001800a1b50 f   GuContactCustomGeometry.obj
 0001:000a0c10       ?selectNormal@Gu@physx@@YA_NEMM@Z 00000001800a1c10 f   GuFeatureCode.obj
 0001:000a0c90       ??0BigConvexData@physx@@QEAA@XZ 00000001800a1c90 f   GuBigConvexData.obj
 0001:000a0cb0       ??1BigConvexData@physx@@QEAA@XZ 00000001800a1cb0 f   GuBigConvexData.obj
 0001:000a0d70       ?ComputeNearestOffset@BigConvexData@physx@@QEBAIAEBV?$PxVec3T@M@2@@Z 00000001800a1d70 f   GuBigConvexData.obj
 0001:000a0e80       ?ComputeOffset@BigConvexData@physx@@QEBAIAEBV?$PxVec3T@M@2@@Z 00000001800a1e80 f   GuBigConvexData.obj
 0001:000a0f80       ?CreateOffsets@BigConvexData@physx@@IEAAXXZ 00000001800a1f80 f   GuBigConvexData.obj
 0001:000a0fd0       ?Load@BigConvexData@physx@@QEAA_NAEAVPxInputStream@2@@Z 00000001800a1fd0 f   GuBigConvexData.obj
 0001:000a10e0       ?VLoad@BigConvexData@physx@@IEAA_NAEAVPxInputStream@2@@Z 00000001800a20e0 f   GuBigConvexData.obj
 0001:000a1280       ?exportExtraData@BigConvexData@physx@@QEAAXAEAVPxSerializationContext@2@@Z 00000001800a2280 f   GuBigConvexData.obj
 0001:000a1300       ?importExtraData@BigConvexData@physx@@QEAAXAEAVPxDeserializationContext@2@@Z 00000001800a2300 f   GuBigConvexData.obj
 0001:000a1370       ?basisExtent@PxBounds3@physx@@SA?AV12@AEBV?$PxVec3T@M@2@AEBV?$PxMat33T@M@2@0@Z 00000001800a2370 f i GuConvexHelper.obj
 0001:000a1470       ?findUniqueConvexEdges@Gu@physx@@YAIIPEIAUConvexEdge@12@IPEIBUHullPolygonData@12@PEIBE@Z 00000001800a2470 f   GuConvexHelper.obj
 0001:000a15a0       ?getConvexData@Gu@physx@@YA_NAEBVPxConvexMeshGeometry@2@AEAVFastVertex2ShapeScaling@Cm@2@AEAVPxBounds3@2@AEAUPolygonalData@12@@Z 00000001800a25a0 f   GuConvexHelper.obj
 0001:000a1700       ?getScaledConvex@Gu@physx@@YAXAEAPEAV?$PxVec3T@M@2@AEAPEAEPEAV32@PEAE_NPEBV32@PEBEIAEBVFastVertex2ShapeScaling@Cm@2@@Z 00000001800a2700 f   GuConvexHelper.obj
 0001:000a1820       ??0ConvexMesh@Gu@physx@@QEAA@PEAVMeshFactory@12@@Z 00000001800a2820 f   GuConvexMesh.obj
 0001:000a18b0       ??0ConvexMesh@Gu@physx@@QEAA@PEAVMeshFactory@12@AEAUConvexHullInitData@12@@Z 00000001800a28b0 f   GuConvexMesh.obj
 0001:000a19f0       ??_EConvexMesh@Gu@physx@@UEAAPEAXI@Z 00000001800a29f0 f i GuConvexMesh.obj
 0001:000a19f0       ??_GConvexMesh@Gu@physx@@UEAAPEAXI@Z 00000001800a29f0 f i GuConvexMesh.obj
 0001:000a1b00       ??_EPxBVH@physx@@MEAAPEAXI@Z 00000001800a2b00 f i GuBVH.obj
 0001:000a1b00       ??_EPxBase@physx@@MEAAPEAXI@Z 00000001800a2b00 f i GuConvexMesh.obj
 0001:000a1b00       ??_GPxBVH@physx@@MEAAPEAXI@Z 00000001800a2b00 f i GuBVH.obj
 0001:000a1b00       ??_GPxBase@physx@@MEAAPEAXI@Z 00000001800a2b00 f i GuConvexMesh.obj
 0001:000a1b30       ?acquireReference@ConvexMesh@Gu@physx@@UEAAXXZ 00000001800a2b30 f   GuConvexMesh.obj
 0001:000a1b30       ?acquireReference@HeightField@Gu@physx@@UEAAXXZ 00000001800a2b30 f   GuHeightField.obj
 0001:000a1b30       ?acquireReference@SoftBodyAuxData@Gu@physx@@UEAAXXZ 00000001800a2b30 f   GuTetrahedronMesh.obj
 0001:000a1b30       ?acquireReference@SoftBodyMesh@Gu@physx@@UEAAXXZ 00000001800a2b30 f   GuTetrahedronMesh.obj
 0001:000a1b30       ?acquireReference@TetrahedronMesh@Gu@physx@@UEAAXXZ 00000001800a2b30 f   GuTetrahedronMesh.obj
 0001:000a1b30       ?acquireReference@TriangleMesh@Gu@physx@@UEAAXXZ 00000001800a2b30 f   GuTriangleMesh.obj
 0001:000a1ff0       ?createObject@ConvexMesh@Gu@physx@@SAPEAV123@AEAPEAEAEAVPxDeserializationContext@3@@Z 00000001800a2ff0 f   GuConvexMesh.obj
 0001:000a2110       ?exportExtraData@ConvexMesh@Gu@physx@@UEAAXAEAVPxSerializationContext@3@@Z 00000001800a3110 f   GuConvexMesh.obj
 0001:000a2210       ?getConcreteTypeName@PxConvexMesh@physx@@UEBAPEBDXZ 00000001800a3210 f i GuConvexMesh.obj
 0001:000a2220       ?getIndexBuffer@ConvexMesh@Gu@physx@@UEBAPEBEXZ 00000001800a3220 f i GuConvexMesh.obj
 0001:000a2260       ?getLocalBounds@ConvexMesh@Gu@physx@@UEBA?AVPxBounds3@3@XZ 00000001800a3260 f   GuConvexMesh.obj
 0001:000a22e0       ?getMassInformation@ConvexMesh@Gu@physx@@UEBAXAEAMAEAV?$PxMat33T@M@3@AEAV?$PxVec3T@M@3@@Z 00000001800a32e0 f   GuConvexMesh.obj
 0001:000a2350       ?getNbPolygons@ConvexMesh@Gu@physx@@UEBAIXZ 00000001800a3350 f i GuConvexMesh.obj
 0001:000a2360       ?getNbVertices@ConvexMesh@Gu@physx@@UEBAIXZ 00000001800a3360 f i GuConvexMesh.obj
 0001:000a2370       ?getPolygonData@ConvexMesh@Gu@physx@@UEBA_NIAEAUPxHullPolygon@3@@Z 00000001800a3370 f   GuConvexMesh.obj
 0001:000a23c0       ?getReferenceCount@ConvexMesh@Gu@physx@@UEBAIXZ 00000001800a33c0 f   GuConvexMesh.obj
 0001:000a23c0       ?getReferenceCount@HeightField@Gu@physx@@UEBAIXZ 00000001800a33c0 f   GuHeightField.obj
 0001:000a23c0       ?getReferenceCount@SoftBodyAuxData@Gu@physx@@UEBAIXZ 00000001800a33c0 f   GuTetrahedronMesh.obj
 0001:000a23c0       ?getReferenceCount@SoftBodyMesh@Gu@physx@@UEBAIXZ 00000001800a33c0 f   GuTetrahedronMesh.obj
 0001:000a23c0       ?getReferenceCount@TetrahedronMesh@Gu@physx@@UEBAIXZ 00000001800a33c0 f   GuTetrahedronMesh.obj
 0001:000a23c0       ?getReferenceCount@TriangleMesh@Gu@physx@@UEBAIXZ 00000001800a33c0 f   GuTriangleMesh.obj
 0001:000a23c0       ?length@DNameStatusNode@@UEBAHXZ 00000001800a33c0 f   libvcruntime:undname.obj
 0001:000a23c0       ?raw_length@DNameStatusNode@@UEBAHXZ 00000001800a33c0 f   libvcruntime:undname.obj
 0001:000a23d0       ?getSDF@ConvexMesh@Gu@physx@@UEBAPEBMXZ 00000001800a33d0 f   GuConvexMesh.obj
 0001:000a23e0       ?getVertices@ConvexMesh@Gu@physx@@UEBAPEBV?$PxVec3T@M@3@XZ 00000001800a33e0 f i GuConvexMesh.obj
 0001:000a2400       ?isGpuCompatible@ConvexMesh@Gu@physx@@UEBA_NXZ 00000001800a3400 f   GuConvexMesh.obj
 0001:000a2440       ?isKindOf@PxBase@physx@@MEBA_NPEBD@Z 00000001800a3440 f i GuConvexMesh.obj
 0001:000a2460       ?isKindOf@PxConvexMesh@physx@@MEBA_NPEBD@Z 00000001800a3460 f i GuConvexMesh.obj
 0001:000a24f0       ?isReleasable@PxBase@physx@@UEBA_NXZ 00000001800a34f0 f i GuConvexMesh.obj
 0001:000a2500       ?load@ConvexMesh@Gu@physx@@QEAA_NAEAVPxInputStream@3@@Z 00000001800a3500 f   GuConvexMesh.obj
 0001:000a2a80       ?onRefCountZero@ConvexMesh@Gu@physx@@UEAAXXZ 00000001800a3a80 f   GuConvexMesh.obj
 0001:000a2bc0       ?release@ConvexMesh@Gu@physx@@UEAAXXZ 00000001800a3bc0 f   GuConvexMesh.obj
 0001:000a2bc0       ?release@HeightField@Gu@physx@@UEAAXXZ 00000001800a3bc0 f   GuHeightField.obj
 0001:000a2bc0       ?release@SoftBodyAuxData@Gu@physx@@UEAAXXZ 00000001800a3bc0 f   GuTetrahedronMesh.obj
 0001:000a2bc0       ?release@SoftBodyMesh@Gu@physx@@UEAAXXZ 00000001800a3bc0 f   GuTetrahedronMesh.obj
 0001:000a2bc0       ?release@TetrahedronMesh@Gu@physx@@UEAAXXZ 00000001800a3bc0 f   GuTetrahedronMesh.obj
 0001:000a2bc0       ?release@TriangleMesh@Gu@physx@@UEAAXXZ 00000001800a3bc0 f   GuTriangleMesh.obj
 0001:000a2bf0       ??Dphysx@@YA?AV?$PxMat34T@M@0@AEBVPxMeshScale@0@AEBV10@@Z 00000001800a3bf0 f i GuConvexUtilsInternal.obj
 0001:000a31b0       ?computeHullOBB@Gu@physx@@YAXAEAVBox@12@AEBVPxBounds3@2@MAEBV?$PxMat34T@M@2@2AEBVFastVertex2ShapeScaling@Cm@2@_N@Z 00000001800a41b0 f   GuConvexUtilsInternal.obj
 0001:000a3640       ?computeOBBAroundConvex@Gu@physx@@YAXAEAVBox@12@AEBVPxConvexMeshGeometry@2@PEBVPxConvexMesh@2@AEBV?$PxTransformT@M@2@@Z 00000001800a4640 f   GuConvexUtilsInternal.obj
 0001:000a3e90       ?computeVertexSpaceOBB@Gu@physx@@YAXAEAVBox@12@AEBV312@AEBV?$PxTransformT@M@2@AEBVPxMeshScale@2@@Z 00000001800a4e90 f   GuConvexUtilsInternal.obj
 0001:000a41c0       ?transform@physx@@YA?AVBox@Gu@1@AEBV?$PxMat34T@M@1@AEBV231@@Z 00000001800a51c0 f i GuConvexUtilsInternal.obj
 0001:000a4500       ?localSearch@physx@@YAXAEAIAEBV?$PxVec3T@M@1@PEBV21@PEBUBigConvexRawData@Gu@1@@Z 00000001800a5500 f   GuHillClimbing.obj
 0001:000a4640       ??0PCMPolygonalBox@Gu@physx@@QEAA@AEBV?$PxVec3T@M@2@@Z 00000001800a5640 f   GuPCMShapeConvex.obj
 0001:000a4640       ??0PolygonalBox@Gu@physx@@QEAA@AEBV?$PxVec3T@M@2@@Z 00000001800a5640 f   GuShapeConvex.obj
 0001:000a59c0       ?getPolygonalData@PolygonalBox@Gu@physx@@QEBAXPEIAUPolygonalData@23@@Z 00000001800a69c0 f   GuShapeConvex.obj
 0001:000a5a30       ?getPolygonalData_Convex@Gu@physx@@YAXPEIAUPolygonalData@12@PEIBUConvexHullData@12@AEBVFastVertex2ShapeScaling@Cm@2@@Z 00000001800a6a30 f   GuShapeConvex.obj
 0001:000a5ba0       ?distancePointBoxSquared@Gu@physx@@YAMAEBV?$PxVec3T@M@2@00AEBV?$PxMat33T@M@2@PEAV32@@Z 00000001800a6ba0 f   GuDistancePointBox.obj
 0001:000a5cf0       ?closestPtPointTriangle@Gu@physx@@YA?AV?$PxVec3T@M@2@AEBV32@000AEAM1@Z 00000001800a6cf0 f   GuDistancePointTriangle.obj
 0001:000a6210       ?distancePointTriangleSquared2UnitBox@Gu@physx@@YA?AT__m128@@AEBT3@000AEAT3@11@Z 00000001800a7210 f   GuDistancePointTriangle.obj
 0001:000a6330       ?distancePointTriangleSquared@Gu@physx@@YA?AT__m128@@AEBT3@000AEAT3@11@Z 00000001800a7330 f   GuDistancePointTriangle.obj
 0001:000a7090       ?distanceSegmentBoxSquared@Gu@physx@@YAMAEBV?$PxVec3T@M@2@000AEBV?$PxMat33T@M@2@PEAMPEAV32@@Z 00000001800a8090 f   GuDistanceSegmentBox.obj
 0001:000a7880       ?distanceSegmentSegmentSquared4@Gu@physx@@YA?AT__m128@@AEBT3@000000000AEAT3@1@Z 00000001800a8880 f   GuDistanceSegmentSegment.obj
 0001:000a7b80       ?distanceSegmentSegmentSquared@Gu@physx@@YA?AT__m128@@AEBT3@000AEAT3@1@Z 00000001800a8b80 f   GuDistanceSegmentSegment.obj
 0001:000a7d50       ?distanceSegmentSegmentSquared@Gu@physx@@YAMAEBV?$PxVec3T@M@2@000PEAM1@Z 00000001800a8d50 f   GuDistanceSegmentSegment.obj
 0001:000a7fe0       ?distanceSegmentSegmentSquared@Gu@physx@@YAMAEBV?$PxVec3T@M@2@0M00MPEAM1@Z 00000001800a8fe0 f   GuDistanceSegmentSegment.obj
 0001:000a8730       ?distanceSegmentTriangleSquared@Gu@physx@@YA?AT__m128@@AEBT3@0000AEAT3@1@Z 00000001800a9730 f   GuDistanceSegmentTriangle.obj
 0001:000a8e70       ?distanceSegmentTriangleSquared@Gu@physx@@YAMAEBV?$PxVec3T@M@2@0000PEAM11@Z 00000001800a9e70 f   GuDistanceSegmentTriangle.obj
 0001:000aa600       ?distanceTriangleTriangleSquared@Gu@physx@@YAMAEAV?$PxVec3T@M@2@0QEBVPxVec3Padded@2@1@Z 00000001800ab600 f   GuDistanceTriangleTriangle.obj
 0001:000ab150       ?closestPtPointTetrahedron@Gu@physx@@YA?AV?$PxVec3T@M@2@AEBV32@0000AEBV?$PxVec4T@M@2@@Z 00000001800ac150 f   GuDistancePointTetrahedron.obj
 0001:000ac1c0       ?PenetrationDepth@EPA@Gu@physx@@QEAA?AW4GjkStatus@23@AEBUGjkConvex@23@0PEIBT__m128@@1E_NT6@AEAUGjkOutput@23@@Z 00000001800ad1c0 f   GuEPA.obj
 0001:000acc70       ?addFacet@EPA@Gu@physx@@QEAAPEAVFacet@23@IIIAEBT__m128@@@Z 00000001800adc70 f   GuEPA.obj
 0001:000ad0b0       ?epaPenetration@Gu@physx@@YA?AW4GjkStatus@12@AEBUGjkConvex@12@0PEIBE1E_NT__m128@@AEAUGjkOutput@12@@Z 00000001800ae0b0 f   GuEPA.obj
 0001:000ad220       ?epaPenetration@Gu@physx@@YA?AW4GjkStatus@12@AEBUGjkConvex@12@0PEIBT__m128@@1E_NT5@AEAUGjkOutput@12@@Z 00000001800ae220 f   GuEPA.obj
 0001:000ad2d0       ?silhouette@Facet@Gu@physx@@QEAAXAEBT__m128@@PEIBT4@1AEAVEdgeBuffer@23@AEAV?$InlineDeferredIDPool@$0EA@@Cm@3@@Z 00000001800ae2d0 f   GuEPA.obj
 0001:000ad4a0       ?closestPtPointTetrahedron@Gu@physx@@YA?AT__m128@@PEIAT3@00AEAI@Z 00000001800ae4a0 f   GuGJKSimplex.obj
 0001:000adc20       ?closestPtPointTetrahedron@Gu@physx@@YA?AT__m128@@PEIAT3@00PEIAH1AEAI@Z 00000001800aec20 f   GuGJKSimplex.obj
 0001:000af690       ??$gjk@UGjkConvex@Gu@physx@@U123@@Gu@physx@@YA?AW4GjkStatus@01@AEBUGjkConvex@01@0AEBT__m128@@1AEAT4@222@Z 00000001800b0690 f i GuGJKTest.obj
 0001:000b0240       ??$gjkPenetration@UGjkConvex@Gu@physx@@U123@@Gu@physx@@YA?AW4GjkStatus@01@AEBUGjkConvex@01@0AEBT__m128@@1_NPEIAE3AEAEAEAUGjkOutput@01@@Z 00000001800b1240 f i GuGJKTest.obj
 0001:000b02b0       ??$gjkPenetration@UGjkConvex@Gu@physx@@U123@@Gu@physx@@YA?AW4GjkStatus@01@AEBUGjkConvex@01@0AEBT__m128@@1_NPEIAE3PEIAT4@4AEAEAEAUGjkOutput@01@@Z 00000001800b12b0 f i GuGJKTest.obj
 0001:000b1cf0       ??$gjkRaycast@UGjkConvex@Gu@physx@@U123@@Gu@physx@@YA_NAEBUGjkConvex@01@0AEBT__m128@@111AEAT3@22M@Z 00000001800b2cf0 f i GuGJKTest.obj
 0001:000b2880       ?testEpaPenetration@Gu@physx@@YA?AW4GjkStatus@12@AEBUGjkConvex@12@0PEBE1EAEAUGjkOutput@12@@Z 00000001800b3880 f   GuGJKTest.obj
 0001:000b28d0       ?testGjk@Gu@physx@@YA?AW4GjkStatus@12@AEBUGjkConvex@12@0AEBT__m128@@1AEAT5@222@Z 00000001800b38d0 f   GuGJKTest.obj
 0001:000b28e0       ?testGjkPenetration@Gu@physx@@YA?AW4GjkStatus@12@AEBUGjkConvex@12@0AEBT__m128@@1PEAE2AEAEAEAUGjkOutput@12@@Z 00000001800b38e0 f   GuGJKTest.obj
 0001:000b2930       ?testGjkRaycast@Gu@physx@@YA_NAEBUGjkConvex@12@0AEBT__m128@@111AEAT4@22M@Z 00000001800b3930 f   GuGJKTest.obj
 0001:000b2940       ??0HeightField@Gu@physx@@QEAA@PEAVMeshFactory@12@@Z 00000001800b3940 f   GuHeightField.obj
 0001:000b2990       ??0HeightField@Gu@physx@@QEAA@PEAVMeshFactory@12@AEAUHeightFieldData@12@@Z 00000001800b3990 f   GuHeightField.obj
 0001:000b2a40       ??1HeightField@Gu@physx@@UEAA@XZ 00000001800b3a40 f   GuHeightField.obj
 0001:000b2ac0       ??_EHeightField@Gu@physx@@UEAAPEAXI@Z 00000001800b3ac0 f i GuHeightField.obj
 0001:000b2ac0       ??_GHeightField@Gu@physx@@UEAAPEAXI@Z 00000001800b3ac0 f i GuHeightField.obj
 0001:000b2b70       ?computeCellCoordinates@HeightField@Gu@physx@@QEBAIMMAEAM0@Z 00000001800b3b70 f   GuHeightField.obj
 0001:000b2c90       ?createObject@HeightField@Gu@physx@@SAPEAV123@AEAPEAEAEAVPxDeserializationContext@3@@Z 00000001800b3c90 f   GuHeightField.obj
 0001:000b2ce0       ?exportExtraData@HeightField@Gu@physx@@UEAAXAEAVPxSerializationContext@3@@Z 00000001800b3ce0 f   GuHeightField.obj
 0001:000b2d30       ?getConcreteTypeName@PxHeightField@physx@@UEBAPEBDXZ 00000001800b3d30 f i GuHeightField.obj
 0001:000b2d40       ?getConvexEdgeThreshold@HeightField@Gu@physx@@UEBAMXZ 00000001800b3d40 f i GuHeightField.obj
 0001:000b2d50       ?getFlags@HeightField@Gu@physx@@UEBA?AV?$PxFlags@W4Enum@PxHeightFieldFlag@physx@@G@3@XZ 00000001800b3d50 f i GuHeightField.obj
 0001:000b2d60       ?getFormat@HeightField@Gu@physx@@UEBA?AW4Enum@PxHeightFieldFormat@3@XZ 00000001800b3d60 f i GuHeightField.obj
 0001:000b2d70       ?getHeight@HeightField@Gu@physx@@UEBAMMM@Z 00000001800b3d70 f i GuHeightField.obj
 0001:000b2e90       ?getNbColumns@HeightField@Gu@physx@@UEBAIXZ 00000001800b3e90 f i GuHeightField.obj
 0001:000b2ea0       ?getNbBounds@BVH@Gu@physx@@UEBAIXZ 00000001800b3ea0 f i GuBVH.obj
 0001:000b2ea0       ?getNbPrimitives@SourceMesh@Gu@physx@@UEBAIXZ 00000001800b3ea0 f i GuBV4.obj
 0001:000b2ea0       ?getNbPrimitives@TetrahedronSourceMesh@Gu@physx@@UEBAIXZ 00000001800b3ea0 f i GuBV4.obj
 0001:000b2ea0       ?getNbRows@HeightField@Gu@physx@@UEBAIXZ 00000001800b3ea0 f i GuHeightField.obj
 0001:000b2eb0       ?getSample@HeightField@Gu@physx@@UEBAAEBUPxHeightFieldSample@3@II@Z 00000001800b3eb0 f i GuHeightField.obj
 0001:000b2ec0       ?getSampleStride@HeightField@Gu@physx@@UEBAIXZ 00000001800b3ec0 f i GuHeightField.obj
 0001:000b2ed0       ?getTimestamp@HeightField@Gu@physx@@UEBAIXZ 00000001800b3ed0 f i GuHeightField.obj
 0001:000b2ee0       ?getTriangleMaterialIndex@HeightField@Gu@physx@@UEBAGI@Z 00000001800b3ee0 f i GuHeightField.obj
 0001:000b2f10       ?getTriangleNormal@HeightField@Gu@physx@@UEBA?AV?$PxVec3T@M@3@I@Z 00000001800b3f10 f i GuHeightField.obj
 0001:000b2f30       ?getTriangleNormalInternal@HeightField@Gu@physx@@QEBA?AV?$PxVec3T@M@3@I@Z 00000001800b3f30 f i GuHeightField.obj
 0001:000b3080       ?isKindOf@PxHeightField@physx@@MEBA_NPEBD@Z 00000001800b4080 f i GuHeightField.obj
 0001:000b3110       ?load@HeightField@Gu@physx@@QEAA_NAEAVPxInputStream@3@@Z 00000001800b4110 f   GuHeightField.obj
 0001:000b3470       ?loadFromDesc@HeightField@Gu@physx@@QEAA_NAEBVPxHeightFieldDesc@3@@Z 00000001800b4470 f   GuHeightField.obj
 0001:000b3670       ?modifySamples@HeightField@Gu@physx@@UEAA_NHHAEBVPxHeightFieldDesc@3@_N@Z 00000001800b4670 f   GuHeightField.obj
 0001:000b39f0       ?onRefCountZero@HeightField@Gu@physx@@UEAAXXZ 00000001800b49f0 f   GuHeightField.obj
 0001:000b3ac0       ?releaseMemory@HeightField@Gu@physx@@QEAAXXZ 00000001800b4ac0 f   GuHeightField.obj
 0001:000b3b10       ?save@HeightField@Gu@physx@@QEAA_NAEAVPxOutputStream@3@_N@Z 00000001800b4b10 f   GuHeightField.obj
 0001:000b3d50       ?saveCells@HeightField@Gu@physx@@UEBAIPEAXI@Z 00000001800b4d50 f   GuHeightField.obj
 0001:000b3d90       ?computeLocalBounds@HeightFieldUtil@Gu@physx@@QEBAXAEAVPxBounds3@3@@Z 00000001800b4d90 f   GuHeightFieldUtil.obj
 0001:000b4210       ?getTriangle@HeightFieldUtil@Gu@physx@@QEBAIAEBV?$PxTransformT@M@3@AEAVPxTriangle@3@PEAI2I_N3@Z 00000001800b5210 f   GuHeightFieldUtil.obj
 0001:000b4d40       ?getTriangleAdjacencyIndices@HeightField@Gu@physx@@QEBAXIIIIAEAI00@Z 00000001800b5d40 f i GuHeightFieldUtil.obj
 0001:000b4f10       ?getTriangleVertexIndices@HeightField@Gu@physx@@QEBAXIAEAI00@Z 00000001800b5f10 f i GuHeightFieldUtil.obj
 0001:000b4fd0       ?overlapAABBTriangles@HeightFieldUtil@Gu@physx@@QEBAXAEBVPxBounds3@3@AEAVOverlapReport@23@I@Z 00000001800b5fd0 f   GuHeightFieldUtil.obj
 0001:000b5430       ??$gjk@U?$RelativeConvex@VTriangleV@Gu@physx@@@Gu@physx@@U?$LocalConvex@VConvexHullV@Gu@physx@@@23@@Gu@physx@@YA?AW4GjkStatus@01@AEBU?$RelativeConvex@VTriangleV@Gu@physx@@@01@AEBU?$LocalConvex@VConvexHullV@Gu@physx@@@01@AEBT__m128@@2AEAT5@333@Z 00000001800b6430 f i GuOverlapTestsHF.obj
 0001:000b61f0       ?GeomOverlapCallback_BoxHeightfield@@YA_NAEBVPxGeometry@physx@@AEBV?$PxTransformT@M@2@01PEAUTriggerCache@Gu@2@PEAUPxQueryThreadContext@2@@Z 00000001800b71f0 f   GuOverlapTestsHF.obj
 0001:000b6780       ?GeomOverlapCallback_CapsuleHeightfield@@YA_NAEBVPxGeometry@physx@@AEBV?$PxTransformT@M@2@01PEAUTriggerCache@Gu@2@PEAUPxQueryThreadContext@2@@Z 00000001800b7780 f   GuOverlapTestsHF.obj
 0001:000b6db0       ?GeomOverlapCallback_ConvexHeightfield@@YA_NAEBVPxGeometry@physx@@AEBV?$PxTransformT@M@2@01PEAUTriggerCache@Gu@2@PEAUPxQueryThreadContext@2@@Z 00000001800b7db0 f   GuOverlapTestsHF.obj
 0001:000b77f0       ?GeomOverlapCallback_SphereHeightfield@@YA_NAEBVPxGeometry@physx@@AEBV?$PxTransformT@M@2@01PEAUTriggerCache@Gu@2@PEAUPxQueryThreadContext@2@@Z 00000001800b87f0 f   GuOverlapTestsHF.obj
 0001:000b83b0       ??$gjkRaycast@U?$LocalConvex@VTriangleV@Gu@physx@@@Gu@physx@@U?$LocalConvex@VConvexHullV@Gu@physx@@@23@@Gu@physx@@YA_NAEBU?$LocalConvex@VTriangleV@Gu@physx@@@01@AEBU?$LocalConvex@VConvexHullV@Gu@physx@@@01@AEBT__m128@@222AEAT4@33M@Z 00000001800b93b0 f i GuSweepsHF.obj
 0001:000b91e0       ??$traceSegment@VBoxTraceSegmentReport@@$0A@$00@HeightFieldTraceUtil@Gu@physx@@QEBAXAEBV?$PxVec3T@M@2@0MPEAVBoxTraceSegmentReport@@AEBVPxBounds3@2@_NPEBV32@@Z 00000001800ba1e0 f i GuSweepsHF.obj
 0001:000b91e0       ??$traceSegment@VCapsuleTraceSegmentReport@@$0A@$00@HeightFieldTraceUtil@Gu@physx@@QEBAXAEBV?$PxVec3T@M@2@0MPEAVCapsuleTraceSegmentReport@@AEBVPxBounds3@2@_NPEBV32@@Z 00000001800ba1e0 f i GuSweepsHF.obj
 0001:000b91e0       ??$traceSegment@VConvexTraceSegmentReport@@$0A@$00@HeightFieldTraceUtil@Gu@physx@@QEBAXAEBV?$PxVec3T@M@2@0MPEAVConvexTraceSegmentReport@@AEBVPxBounds3@2@_NPEBV32@@Z 00000001800ba1e0 f i GuSweepsHF.obj
 0001:000b99c0       ??0ConvexTraceSegmentReport@@QEAA@AEBVHeightFieldUtil@Gu@physx@@AEBUConvexHullData@23@AEBVPxMeshScale@3@AEBV?$PxTransformT@M@3@3AEBV?$PxVec3T@M@3@MV?$PxFlags@W4Enum@PxHitFlag@physx@@G@3@M@Z 00000001800ba9c0 f i GuSweepsHF.obj
 0001:000ba350       ??_EBoxTraceSegmentReport@@UEAAPEAXI@Z 00000001800bb350 f i GuSweepsHF.obj
 0001:000ba350       ??_GBoxTraceSegmentReport@@UEAAPEAXI@Z 00000001800bb350 f i GuSweepsHF.obj
 0001:000ba380       ??_ECapsuleTraceSegmentReport@@UEAAPEAXI@Z 00000001800bb380 f i GuSweepsHF.obj
 0001:000ba380       ??_GCapsuleTraceSegmentReport@@UEAAPEAXI@Z 00000001800bb380 f i GuSweepsHF.obj
 0001:000ba3b0       ??_EConvexTraceSegmentReport@@UEAAPEAXI@Z 00000001800bb3b0 f i GuSweepsHF.obj
 0001:000ba3b0       ??_GConvexTraceSegmentReport@@UEAAPEAXI@Z 00000001800bb3b0 f i GuSweepsHF.obj
 0001:000ba3e0       ??_EHeightFieldTraceSegmentReport@@UEAAPEAXI@Z 00000001800bb3e0 f i GuSweepsHF.obj
 0001:000ba3e0       ??_GHeightFieldTraceSegmentReport@@UEAAPEAXI@Z 00000001800bb3e0 f i GuSweepsHF.obj
 0001:000ba410       ?finalizeHit@ConvexTraceSegmentReport@@QEAA_NAEAUPxGeomSweepHit@physx@@AEBVPxHeightFieldGeometry@3@AEBV?$PxTransformT@M@3@AEBVPxConvexMeshGeometry@3@2AEBV?$PxVec3T@M@3@M@Z 00000001800bb410 f i GuSweepsHF.obj
 0001:000ba630       ?onEvent@BoxTraceSegmentReport@@UEAA_NIPEBI@Z 00000001800bb630 f i GuSweepsHF.obj
 0001:000baac0       ?onEvent@CapsuleTraceSegmentReport@@UEAA_NIPEBI@Z 00000001800bbac0 f i GuSweepsHF.obj
 0001:000bace0       ?onEvent@ConvexTraceSegmentReport@@UEAA_NIPEBI@Z 00000001800bbce0 f i GuSweepsHF.obj
 0001:000bb2c0       ?prepare@?$OverlapTraceSegment@VBoxTraceSegmentReport@@@HeightFieldTraceUtil@Gu@physx@@QEAAXAEBV?$PxVec3T@M@4@00AEAM1@Z 00000001800bc2c0 f i GuSweepsHF.obj
 0001:000bb2c0       ?prepare@?$OverlapTraceSegment@VCapsuleTraceSegmentReport@@@HeightFieldTraceUtil@Gu@physx@@QEAAXAEBV?$PxVec3T@M@4@00AEAM1@Z 00000001800bc2c0 f i GuSweepsHF.obj
 0001:000bb2c0       ?prepare@?$OverlapTraceSegment@VConvexTraceSegmentReport@@@HeightFieldTraceUtil@Gu@physx@@QEAAXAEBV?$PxVec3T@M@4@00AEAM1@Z 00000001800bc2c0 f i GuSweepsHF.obj
 0001:000bb580       ?sweepBox_HeightFieldGeom@@YA_NAEBVPxGeometry@physx@@AEBV?$PxTransformT@M@2@AEBVPxBoxGeometry@2@1AEBVBox@Gu@2@AEBV?$PxVec3T@M@2@MAEAUPxGeomSweepHit@2@V?$PxFlags@W4Enum@PxHitFlag@physx@@G@2@MPEAUPxQueryThreadContext@2@@Z 00000001800bc580 f   GuSweepsHF.obj
 0001:000bc400       ?sweepCapsule_HeightFieldGeom@@YA_NAEBVPxGeometry@physx@@AEBV?$PxTransformT@M@2@AEBVPxCapsuleGeometry@2@1AEBVCapsule@Gu@2@AEBV?$PxVec3T@M@2@MAEAUPxGeomSweepHit@2@V?$PxFlags@W4Enum@PxHitFlag@physx@@G@2@MPEAUPxQueryThreadContext@2@@Z 00000001800bd400 f   GuSweepsHF.obj
 0001:000bcd50       ?sweepConvex_HeightFieldGeom@@YA_NAEBVPxGeometry@physx@@AEBV?$PxTransformT@M@2@AEBVPxConvexMeshGeometry@2@1AEBV?$PxVec3T@M@2@MAEAUPxGeomSweepHit@2@V?$PxFlags@W4Enum@PxHitFlag@physx@@G@2@MPEAUPxQueryThreadContext@2@@Z 00000001800bdd50 f   GuSweepsHF.obj
 0001:000bd740       ?testVertexIndex@?$OverlapTraceSegment@VBoxTraceSegmentReport@@@HeightFieldTraceUtil@Gu@physx@@QEAA_NI@Z 00000001800be740 f i GuSweepsHF.obj
 0001:000bd740       ?testVertexIndex@?$OverlapTraceSegment@VCapsuleTraceSegmentReport@@@HeightFieldTraceUtil@Gu@physx@@QEAA_NI@Z 00000001800be740 f i GuSweepsHF.obj
 0001:000bd740       ?testVertexIndex@?$OverlapTraceSegment@VConvexTraceSegmentReport@@@HeightFieldTraceUtil@Gu@physx@@QEAA_NI@Z 00000001800be740 f i GuSweepsHF.obj
 0001:000bd8a0       ?transformFast@PxBounds3@physx@@SA?AV12@AEBV?$PxTransformT@M@2@AEBV12@@Z 00000001800be8a0 f i GuSweepsHF.obj
 0001:000bdba0       ?visitCells@?$OverlapTraceSegment@VBoxTraceSegmentReport@@@HeightFieldTraceUtil@Gu@physx@@QEAA_NAEBUOverlapRectangle@1234@@Z 00000001800beba0 f i GuSweepsHF.obj
 0001:000bdba0       ?visitCells@?$OverlapTraceSegment@VCapsuleTraceSegmentReport@@@HeightFieldTraceUtil@Gu@physx@@QEAA_NAEBUOverlapRectangle@1234@@Z 00000001800beba0 f i GuSweepsHF.obj
 0001:000bdba0       ?visitCells@?$OverlapTraceSegment@VConvexTraceSegmentReport@@@HeightFieldTraceUtil@Gu@physx@@QEAA_NAEBUOverlapRectangle@1234@@Z 00000001800beba0 f i GuSweepsHF.obj
 0001:000bdd90       ?intersectOBBOBB@Gu@physx@@YA_NAEBV?$PxVec3T@M@2@0AEBV?$PxMat33T@M@2@001_N@Z 00000001800bed90 f   GuIntersectionBoxBox.obj
 0001:000be420       ?intersectCapsuleTriangle@Gu@physx@@YA_NAEBV?$PxVec3T@M@2@000AEBVCapsule@12@AEBUCapsuleTriangleOverlapData@12@@Z 00000001800bf420 f   GuIntersectionCapsuleTriangle.obj
 0001:000bf060       ?intersectEdgeEdge@Gu@physx@@YA_NAEBV?$PxVec3T@M@2@0000AEAMAEAV32@@Z 00000001800c0060 f   GuIntersectionEdgeEdge.obj
 0001:000bf3a0       ?intersectRayAABB2@Gu@physx@@YA_NAEBT__m128@@0000AEAT3@1@Z 00000001800c03a0 f   GuIntersectionRayBox.obj
 0001:000bf460       ?intersectRayAABB2@Gu@physx@@YA_NAEBV?$PxVec3T@M@2@000MAEAM1@Z 00000001800c0460 f   GuIntersectionRayBox.obj
 0001:000bf610       ?intersectRayAABB@Gu@physx@@YAHAEBV?$PxVec3T@M@2@000AEAM1@Z 00000001800c0610 f   GuIntersectionRayBox.obj
 0001:000bf730       ?rayAABBIntersect2@Gu@physx@@YAIAEBV?$PxVec3T@M@2@000AEAV32@AEAM@Z 00000001800c0730 f   GuIntersectionRayBox.obj
 0001:000bf930       ?intersectRayCapsuleInternal@Gu@physx@@YAIAEBV?$PxVec3T@M@2@000MQEAM@Z 00000001800c0930 f   GuIntersectionRayCapsule.obj
 0001:000bfe10       ?intersectRaySphere@Gu@physx@@YA_NAEBV?$PxVec3T@M@2@0M0MAEAMPEAV32@@Z 00000001800c0e10 f   GuIntersectionRaySphere.obj
 0001:000bff10       ?intersectRaySphereBasic@Gu@physx@@YA_NAEBV?$PxVec3T@M@2@0M0MAEAMPEAV32@@Z 00000001800c0f10 f   GuIntersectionRaySphere.obj
 0001:000c0080       ?intersectSphereBox@Gu@physx@@YA_NAEBVSphere@12@AEBVBox@12@@Z 00000001800c1080 f   GuIntersectionSphereBox.obj
 0001:000c02b0       ?intersectTetrahedronBox@Gu@physx@@YA_NAEBV?$PxVec3T@M@2@000AEBVPxBounds3@2@@Z 00000001800c12b0 f   GuIntersectionTetrahedronBox.obj
 0001:000c0680       ?intersectTriangleBox@Gu@physx@@YAHAEBVBoxPadded@12@AEBV?$PxVec3T@M@2@11@Z 00000001800c1680 f   GuIntersectionTriangleBox.obj
 0001:000c0c50       ?intersectTriangleBoxBV4@@YAHAEBV?$PxVec3T@M@physx@@00AEBV?$PxMat33T@M@2@00@Z 00000001800c1c50 f   GuIntersectionTriangleBox.obj
 0001:000c1090       ?intersectTriangleBox_ReferenceCode@Gu@physx@@YAHAEBV?$PxVec3T@M@2@0000@Z 00000001800c2090 f   GuIntersectionTriangleBox.obj
 0001:000c1860       ?intersectTriangleBox_Unsafe@Gu@physx@@YAHAEBV?$PxVec3T@M@2@0000@Z 00000001800c2860 f   GuIntersectionTriangleBox.obj
 0001:000c1c30       ?intersectTriangleTriangle@Gu@physx@@YA_NAEBV?$PxVec3T@M@2@00000_N@Z 00000001800c2c30 f   GuIntersectionTriangleTriangle.obj
 0001:000c3090       ??0BV4Tree@Gu@physx@@QEAA@W4PxEMPTY@2@@Z 00000001800c4090 f   GuBV4.obj
 0001:000c30a0       ??0BV4Tree@Gu@physx@@QEAA@XZ 00000001800c40a0 f   GuBV4.obj
 0001:000c30d0       ??0SourceMesh@Gu@physx@@QEAA@XZ 00000001800c40d0 f   GuBV4.obj
 0001:000c3100       ??0TetrahedronSourceMesh@Gu@physx@@QEAA@XZ 00000001800c4100 f   GuBV4.obj
 0001:000c3130       ??1BV4Tree@Gu@physx@@QEAA@XZ 00000001800c4130 f   GuBV4.obj
 0001:000c3190       ??1SourceMesh@Gu@physx@@UEAA@XZ 00000001800c4190 f   GuBV4.obj
 0001:000c3190       ??1TetrahedronSourceMesh@Gu@physx@@UEAA@XZ 00000001800c4190 f   GuBV4.obj
 0001:000c31e0       ??4BV4Tree@Gu@physx@@QEAAXAEAV012@@Z 00000001800c41e0 f   GuBV4.obj
 0001:000c3270       ??4SourceMesh@Gu@physx@@QEAAXAEAV012@@Z 00000001800c4270 f   GuBV4.obj
 0001:000c32c0       ??_ESourceMesh@Gu@physx@@UEAAPEAXI@Z 00000001800c42c0 f i GuBV4.obj
 0001:000c32c0       ??_ETetrahedronSourceMesh@Gu@physx@@UEAAPEAXI@Z 00000001800c42c0 f i GuBV4.obj
 0001:000c32c0       ??_GSourceMesh@Gu@physx@@UEAAPEAXI@Z 00000001800c42c0 f i GuBV4.obj
 0001:000c32c0       ??_GTetrahedronSourceMesh@Gu@physx@@UEAAPEAXI@Z 00000001800c42c0 f i GuBV4.obj
 0001:000c3360       ??_ESourceMeshBase@Gu@physx@@UEAAPEAXI@Z 00000001800c4360 f i GuBV4.obj
 0001:000c3360       ??_GSourceMeshBase@Gu@physx@@UEAAPEAXI@Z 00000001800c4360 f i GuBV4.obj
 0001:000c3400       ?exportExtraData@BV4Tree@Gu@physx@@QEAAXAEAVPxSerializationContext@3@@Z 00000001800c4400 f   GuBV4.obj
 0001:000c3460       ?getPrimitiveBox@SourceMesh@Gu@physx@@UEAAXIAEAT__m128@@0@Z 00000001800c4460 f   GuBV4.obj
 0001:000c34f0       ?getPrimitiveBox@TetrahedronSourceMesh@Gu@physx@@UEAAXIAEAT__m128@@0@Z 00000001800c44f0 f   GuBV4.obj
 0001:000c35a0       ?importExtraData@BV4Tree@Gu@physx@@QEAAXAEAVPxDeserializationContext@3@@Z 00000001800c45a0 f   GuBV4.obj
 0001:000c35f0       ?init@BV32Tree@Gu@physx@@QEAA_NPEAVSourceMeshBase@23@AEBVPxBounds3@3@@Z 00000001800c45f0 f   GuBV32.obj
 0001:000c35f0       ?init@BV4Tree@Gu@physx@@QEAA_NPEAVSourceMeshBase@23@AEBVPxBounds3@3@@Z 00000001800c45f0 f   GuBV4.obj
 0001:000c3690       ?load@BV4Tree@Gu@physx@@QEAA_NAEAVPxInputStream@3@_N@Z 00000001800c4690 f   GuBV4.obj
 0001:000c38d0       ?refit@BV4Tree@Gu@physx@@QEAA_NAEAVPxBounds3@3@M@Z 00000001800c48d0 f   GuBV4.obj
 0001:000c3ee0       ?refit@SourceMesh@Gu@physx@@UEAAXIAEAVPxBounds3@3@@Z 00000001800c4ee0 f   GuBV4.obj
 0001:000c40a0       ?refit@TetrahedronSourceMesh@Gu@physx@@UEAAXIAEAVPxBounds3@3@@Z 00000001800c50a0 f   GuBV4.obj
 0001:000c42e0       ?remapTopology@SourceMesh@Gu@physx@@UEAAXPEBI@Z 00000001800c52e0 f   GuBV4.obj
 0001:000c4580       ?remapTopology@TetrahedronSourceMesh@Gu@physx@@UEAAXPEBI@Z 00000001800c5580 f   GuBV4.obj
 0001:000c4820       ??0BV4_AABBTree@Gu@physx@@QEAA@XZ 00000001800c5820 f   GuBV4Build.obj
 0001:000c4830       ??0BVData@@QEAA@XZ         00000001800c5830 f   GuBV4Build.obj
 0001:000c4860       ??0BuildStats@Gu@physx@@QEAA@XZ 00000001800c5860 f i GuBV4Build.obj
 0001:000c4870       ??1BV4_AABBTree@Gu@physx@@QEAA@XZ 00000001800c5870 f   GuBV4Build.obj
 0001:000c4880       ??4BuildStats@Gu@physx@@QEAAAEAU012@$$QEAU012@@Z 00000001800c5880 f i GuBV4Build.obj
 0001:000c4890       ??4BuildStats@Gu@physx@@QEAAAEAU012@AEBU012@@Z 00000001800c5890 f i GuBV4Build.obj
 0001:000c48a0       ?BuildBV4Ex@Gu@physx@@YA_NAEAVBV4Tree@12@AEAVSourceMeshBase@12@MI_NW4BV4_BuildStrategy@12@@Z 00000001800c58a0 f   GuBV4Build.obj
 0001:000c5770       ?allocateNode@BV4BuildParams@@QEAAPEAUBV4Node@@XZ 00000001800c6770 f   GuBV4Build.obj
 0001:000c5be0       ?buildFromMesh@BV4_AABBTree@Gu@physx@@QEAA_NAEAVSourceMeshBase@23@IW4BV4_BuildStrategy@23@@Z 00000001800c6be0 f   GuBV4Build.obj
 0001:000c6920       ?getCount@BuildStats@Gu@physx@@QEBAIXZ 00000001800c7920 f i GuBV4Build.obj
 0001:000c6920       ?getNbActiveObjects@PruningPool@Gu@physx@@QEBAIXZ 00000001800c7920 f i GuIncrementalAABBPrunerCore.obj
 0001:000c6a00       ?increaseCount@BuildStats@Gu@physx@@QEAAXI@Z 00000001800c7a00 f i GuBV4Build.obj
 0001:000c7440       ?release@BV4_AABBTree@Gu@physx@@QEAAXXZ 00000001800c8440 f   GuBV4Build.obj
 0001:000c74f0       ?releaseNodes@BV4BuildParams@@QEAAXXZ 00000001800c84f0 f   GuBV4Build.obj
 0001:000c7560       ?reset@BuildStats@Gu@physx@@QEAAXXZ 00000001800c8560 f i GuBV4Build.obj
 0001:000c7570       ?setCount@BuildStats@Gu@physx@@QEAAXI@Z 00000001800c8570 f i GuBV4Build.obj
 0001:000c7ba0       ?walk@BV4_AABBTree@Gu@physx@@QEBAIP6A_NPEBVAABBTreeNode@23@IPEAX@Z1@Z 00000001800c8ba0 f   GuBV4Build.obj
 0001:000c7c60       ?walkDistance@BV4_AABBTree@Gu@physx@@QEBAIP6A_NPEBVAABBTreeNode@23@IPEAX@ZP6A_N01@Z1@Z 00000001800c8c60 f   GuBV4Build.obj
 0001:000cbbb0       ?GenericSweep_AABB_CB@@YAXAEBVBox@Gu@physx@@AEBV?$PxVec3T@M@3@MAEBVBV4Tree@23@P6A_NPEAX111IAEAM@Z3I@Z 00000001800ccbb0 f   GuBV4_AABBSweep.obj
 0001:000cbd10       ?Sweep_AABB_BV4@@YAHAEBVBox@Gu@physx@@AEBV?$PxVec3T@M@3@MAEBVBV4Tree@23@PEIAVSweepHit@23@I@Z 00000001800ccd10 f   GuBV4_AABBSweep.obj
 0001:000d4eb0       ?BV4_OverlapBoxAll@@YAIAEBVBox@Gu@physx@@AEBVBV4Tree@23@PEIBV?$PxMat44T@M@3@PEAIIAEA_N@Z 00000001800d5eb0 f   GuBV4_BoxOverlap.obj
 0001:000d56c0       ?BV4_OverlapBoxAny@@YAHAEBVBox@Gu@physx@@AEBVBV4Tree@23@PEIBV?$PxMat44T@M@3@@Z 00000001800d66c0 f   GuBV4_BoxOverlap.obj
 0001:000d5ed0       ?BV4_OverlapBoxCB@@YAXAEBVBox@Gu@physx@@AEBVBV4Tree@23@P6A_NPEAXAEBV?$PxVec3T@M@3@333IPEBI@Z2@Z 00000001800d6ed0 f   GuBV4_BoxOverlap.obj
 0001:000d6580       ?BV4_OverlapBoxCB@@YAXAEBVBox@Gu@physx@@AEBVBV4Tree@23@P6A_NPEAXAEBV?$PxVec3T@M@3@33IPEBI@Z2@Z 00000001800d7580 f   GuBV4_BoxOverlap.obj
 0001:000d6a30       ?BV4_OverlapCapsuleAll@@YAIAEBVCapsule@Gu@physx@@AEBVBV4Tree@23@PEIBV?$PxMat44T@M@3@PEAIIAEA_N@Z 00000001800d7a30 f   GuBV4_BoxOverlap.obj
 0001:000d7150       ?BV4_OverlapCapsuleAny@@YAHAEBVCapsule@Gu@physx@@AEBVBV4Tree@23@PEIBV?$PxMat44T@M@3@@Z 00000001800d8150 f   GuBV4_BoxOverlap.obj
 0001:000d9ed0       ?BV4_CapsuleSweepSingle@@YAHAEBVCapsule@Gu@physx@@AEBV?$PxVec3T@M@3@MAEBVBV4Tree@23@PEIAVSweepHit@23@I@Z 00000001800daed0 f   GuBV4_CapsuleSweep.obj
 0001:000ddf40       ?BV4_CapsuleSweepSingleAA@@YAHAEBVCapsule@Gu@physx@@AEBV?$PxVec3T@M@3@MAEBVBV4Tree@23@PEIAVSweepHit@23@I@Z 00000001800def40 f   GuBV4_CapsuleSweepAA.obj
 0001:000edc70       ?BV4_OverlapMeshVsMesh@@YA_NAEAV?$PxReportCallback@UPxGeomIndexPair@physx@@@physx@@AEBVBV4Tree@Gu@2@1PEBV?$PxMat44T@M@2@2AEBV?$PxTransformT@M@2@3AEBVPxMeshScale@2@4V?$PxFlags@W4Enum@PxMeshMeshQueryFlag@physx@@I@2@M@Z 00000001800eec70 f   GuBV4_MeshMeshOverlap.obj
 0001:000f7190       ?BV4_BoxSweepSingle@@YAHAEBVBox@Gu@physx@@AEBV?$PxVec3T@M@3@MAEBVBV4Tree@23@PEIBV?$PxMat44T@M@3@PEIAVSweepHit@23@I@Z 00000001800f8190 f   GuBV4_OBBSweep.obj
 0001:000f7890       ?BV4_GenericSweepCB@@YAXAEBVBox@Gu@physx@@AEBV?$PxVec3T@M@3@MAEBVBV4Tree@23@P6A_NPEAX111IAEAM@Z3_N@Z 00000001800f8890 f   GuBV4_OBBSweep.obj
 0001:000f7ab0       ?Sweep_OBB_BV4@@YAHAEBVBox@Gu@physx@@AEBV?$PxVec3T@M@3@MAEBVBV4Tree@23@PEIAVSweepHit@23@I@Z 00000001800f8ab0 f   GuBV4_OBBSweep.obj
 0001:000fa6c0       ?BV4_RaycastCB@@YAXAEBV?$PxVec3T@M@physx@@0AEBVBV4Tree@Gu@2@PEIBV?$PxMat44T@M@2@MMIP6A?AW4HitCode@42@PEAX000IMMM@Z3@Z 00000001800fb6c0 f   GuBV4_Raycast.obj
 0001:000faae0       ?BV4_RaycastSingle@@YAHAEBV?$PxVec3T@M@physx@@0AEBVBV4Tree@Gu@2@PEIBV?$PxMat44T@M@2@PEIAUPxGeomRaycastHit@2@MMIV?$PxFlags@W4Enum@PxHitFlag@physx@@G@2@@Z 00000001800fbae0 f   GuBV4_Raycast.obj
 0001:000fd060       ?BV4_OverlapSphereAll@@YAIAEBVSphere@Gu@physx@@AEBVBV4Tree@23@PEIBV?$PxMat44T@M@3@PEAIIAEA_N@Z 00000001800fe060 f   GuBV4_SphereOverlap.obj
 0001:000fd380       ?BV4_OverlapSphereAny@@YAHAEBVSphere@Gu@physx@@AEBVBV4Tree@23@PEIBV?$PxMat44T@M@3@@Z 00000001800fe380 f   GuBV4_SphereOverlap.obj
 0001:000fd660       ?BV4_PointDistance@@YAXAEBV?$PxVec3T@M@physx@@AEBVBV4Tree@Gu@2@MAEAIAEAMAEAV12@@Z 00000001800fe660 f   GuBV4_SphereOverlap.obj
 0001:00103f20       ?BV4_GenericSweepCB_Old@@YAXAEBV?$PxVec3T@M@physx@@00MAEBVBV4Tree@Gu@2@PEIBV?$PxMat44T@M@2@P6A_NPEAX000IAEAM@Z3@Z 0000000180104f20 f   GuBV4_SphereSweep.obj
 0001:00104320       ?BV4_SphereSweepSingle@@YAHAEBVSphere@Gu@physx@@AEBV?$PxVec3T@M@3@MAEBVBV4Tree@23@PEIBV?$PxMat44T@M@3@PEIAVSweepHit@23@I@Z 0000000180105320 f   GuBV4_SphereSweep.obj
 0001:00105700       ?computeSweepData@physx@@YAMAEBVPxTriangleMeshGeometry@1@AEAV?$PxVec3T@M@1@11M@Z 0000000180106700 f i GuMidphaseBV4.obj
 0001:00106b30       ?intersectBoxVsMesh_BV4@Gu@physx@@YA_NAEBVBox@12@AEBVTriangleMesh@12@AEBV?$PxTransformT@M@2@AEBVPxMeshScale@2@PEAULimitedResults@12@@Z 0000000180107b30 f   GuMidphaseBV4.obj
 0001:001075c0       ?intersectCapsuleVsMesh_BV4@Gu@physx@@YA_NAEBVCapsule@12@AEBVTriangleMesh@12@AEBV?$PxTransformT@M@2@AEBVPxMeshScale@2@PEAULimitedResults@12@@Z 00000001801085c0 f   GuMidphaseBV4.obj
 0001:00107e30       ?intersectMeshVsMesh_BV4@Gu@physx@@YA_NAEAV?$PxReportCallback@UPxGeomIndexPair@physx@@@2@AEBVTriangleMesh@12@AEBV?$PxTransformT@M@2@AEBVPxMeshScale@2@123V?$PxFlags@W4Enum@PxMeshMeshQueryFlag@physx@@I@2@M@Z 0000000180108e30 f   GuMidphaseBV4.obj
 0001:00108800       ?intersectOBB_BV4@Gu@physx@@YAXPEBVTetrahedronMesh@12@AEBVBox@12@AEAU?$TetMeshHitCallback@UPxGeomRaycastHit@physx@@@12@@Z 0000000180109800 f   GuMidphaseBV4.obj
 0001:00108820       ?intersectOBB_BV4@Gu@physx@@YAXPEBVTriangleMesh@12@AEBVBox@12@AEAU?$MeshHitCallback@UPxGeomRaycastHit@physx@@@12@_N3@Z 0000000180109820 f   GuMidphaseBV4.obj
 0001:00108840       ?intersectSphereVsMesh_BV4@Gu@physx@@YA_NAEBVSphere@12@AEBVTriangleMesh@12@AEBV?$PxTransformT@M@2@AEBVPxMeshScale@2@PEAULimitedResults@12@@Z 0000000180109840 f   GuMidphaseBV4.obj
 0001:00108f90       ?pointMeshDistance_BV4@Gu@physx@@YAXPEBVTriangleMesh@12@AEBVPxTriangleMeshGeometry@2@AEBV?$PxTransformT@M@2@AEBV?$PxVec3T@M@2@MAEAIAEAMAEAV62@@Z 0000000180109f90 f   GuMidphaseBV4.obj
 0001:00109630       ?raycast_triangleMesh_BV4@Gu@physx@@YAIPEBVTriangleMesh@12@AEBVPxTriangleMeshGeometry@2@AEBV?$PxTransformT@M@2@AEBV?$PxVec3T@M@2@3MV?$PxFlags@W4Enum@PxHitFlag@physx@@G@2@IPEIAUPxGeomRaycastHit@2@I@Z 000000018010a630 f   GuMidphaseBV4.obj
 0001:0010a440       ?sweepBox_MeshGeom_BV4@Gu@physx@@YA_NPEBVTriangleMesh@12@AEBVPxTriangleMeshGeometry@2@AEBV?$PxTransformT@M@2@AEBVBox@12@AEBV?$PxVec3T@M@2@MAEAUPxGeomSweepHit@2@V?$PxFlags@W4Enum@PxHitFlag@physx@@G@2@M@Z 000000018010b440 f   GuMidphaseBV4.obj
 0001:0010ba70       ?sweepCapsule_MeshGeom_BV4@Gu@physx@@YA_NPEBVTriangleMesh@12@AEBVPxTriangleMeshGeometry@2@AEBV?$PxTransformT@M@2@AEBVCapsule@12@AEBV?$PxVec3T@M@2@MAEAUPxGeomSweepHit@2@V?$PxFlags@W4Enum@PxHitFlag@physx@@G@2@M@Z 000000018010ca70 f   GuMidphaseBV4.obj
 0001:0010c5e0       ?sweepConvex_MeshGeom_BV4@Gu@physx@@YAXPEBVTriangleMesh@12@AEBVBox@12@AEBV?$PxVec3T@M@2@MAEAUSweepConvexMeshHitCallback@12@_N@Z 000000018010d5e0 f   GuMidphaseBV4.obj
 0001:0010c620       ?transform@PxMeshScale@physx@@QEBA?AV?$PxVec3T@M@2@AEBV32@@Z 000000018010d620 f i GuMidphaseBV4.obj
 0001:0010c860       ?findOverlapHeightField@PxMeshQuery@physx@@SAIAEBVPxGeometry@2@AEBV?$PxTransformT@M@2@AEBVPxHeightFieldGeometry@2@1PEAIIIAEA_NV?$PxFlags@W4Enum@PxGeometryQueryFlag@physx@@I@2@@Z 000000018010d860 f   GuMeshQuery.obj
 0001:0010d010       ?findOverlapTriangleMesh@PxMeshQuery@physx@@SAIAEBVPxGeometry@2@AEBV?$PxTransformT@M@2@AEBVPxTriangleMeshGeometry@2@1PEAIIIAEA_NV?$PxFlags@W4Enum@PxGeometryQueryFlag@physx@@I@2@@Z 000000018010e010 f   GuMeshQuery.obj
 0001:0010d340       ?findOverlapTriangleMesh@PxMeshQuery@physx@@SA_NAEAV?$PxReportCallback@UPxGeomIndexPair@physx@@@2@AEBVPxTriangleMeshGeometry@2@AEBV?$PxTransformT@M@2@12V?$PxFlags@W4Enum@PxGeometryQueryFlag@physx@@I@2@V?$PxFlags@W4Enum@PxMeshMeshQueryFlag@physx@@I@2@M@Z 000000018010e340 f   GuMeshQuery.obj
 0001:0010d480       ?getTriangle@PxMeshQuery@physx@@SAXAEBVPxHeightFieldGeometry@2@AEBV?$PxTransformT@M@2@IAEAVPxTriangle@2@PEAI3@Z 000000018010e480 f   GuMeshQuery.obj
 0001:0010d500       ?getTriangle@PxMeshQuery@physx@@SAXAEBVPxTriangleMeshGeometry@2@AEBV?$PxTransformT@M@2@IAEAVPxTriangle@2@PEAI3@Z 000000018010e500 f   GuMeshQuery.obj
 0001:0010da10       ?sweep@PxMeshQuery@physx@@SA_NAEBV?$PxVec3T@M@2@MAEBVPxGeometry@2@AEBV?$PxTransformT@M@2@IPEBVPxTriangle@2@AEAUPxGeomSweepHit@2@V?$PxFlags@W4Enum@PxHitFlag@physx@@G@2@PEBIM_NV?$PxFlags@W4Enum@PxGeometryQueryFlag@physx@@I@2@@Z 000000018010ea10 f   GuMeshQuery.obj
 0001:0010dbe0       ??$collide@$00$00@MeshRayCollider@@SAXAEBV?$PxVec3T@M@physx@@0M_NPEBVRTreeTriangleMesh@Gu@2@AEAU?$MeshHitCallback@UPxGeomRaycastHit@physx@@@42@PEBV12@@Z 000000018010ebe0 f i GuMidphaseRTree.obj
 0001:0010df50       ??$collide@$00$0A@@MeshRayCollider@@SAXAEBV?$PxVec3T@M@physx@@0M_NPEBVRTreeTriangleMesh@Gu@2@AEAU?$MeshHitCallback@UPxGeomRaycastHit@physx@@@42@PEBV12@@Z 000000018010ef50 f i GuMidphaseRTree.obj
 0001:0010e190       ??$collide@$0A@$00@MeshRayCollider@@SAXAEBV?$PxVec3T@M@physx@@0M_NPEBVRTreeTriangleMesh@Gu@2@AEAU?$MeshHitCallback@UPxGeomRaycastHit@physx@@@42@PEBV12@@Z 000000018010f190 f i GuMidphaseRTree.obj
 0001:001104a0       ??0?$RayRTreeCallback@$00$0A@@@QEAA@MAEAU?$MeshHitCallback@UPxGeomRaycastHit@physx@@@Gu@physx@@HPEBXPEBV?$PxVec3T@M@3@AEBV43@3M_N2@Z 00000001801114a0 f i GuMidphaseRTree.obj
 0001:001105c0       ??1?$RayRTreeCallback@$00$00@@UEAA@XZ 00000001801115c0 f i GuMidphaseRTree.obj
 0001:00110650       ??1?$RayRTreeCallback@$00$0A@@@UEAA@XZ 0000000180111650 f i GuMidphaseRTree.obj
 0001:00110650       ??1?$RayRTreeCallback@$0A@$0A@@@UEAA@XZ 0000000180111650 f i GuMidphaseRTree.obj
 0001:001106e0       ??1?$RayRTreeCallback@$0A@$00@@UEAA@XZ 00000001801116e0 f i GuMidphaseRTree.obj
 0001:00110768       ??_E?$RayRTreeCallback@$00$00@@W7EAAPEAXI@Z 0000000180111768 f i GuMidphaseRTree.obj
 0001:00110774       ??_E?$RayRTreeCallback@$00$0A@@@W7EAAPEAXI@Z 0000000180111774 f i GuMidphaseRTree.obj
 0001:00110774       ??_E?$RayRTreeCallback@$0A@$0A@@@W7EAAPEAXI@Z 0000000180111774 f i GuMidphaseRTree.obj
 0001:00110780       ??_E?$RayRTreeCallback@$0A@$00@@W7EAAPEAXI@Z 0000000180111780 f i GuMidphaseRTree.obj
 0001:001107f0       ??_E?$RayRTreeCallback@$00$00@@UEAAPEAXI@Z 00000001801117f0 f i GuMidphaseRTree.obj
 0001:001107f0       ??_G?$RayRTreeCallback@$00$00@@UEAAPEAXI@Z 00000001801117f0 f i GuMidphaseRTree.obj
 0001:00110830       ??_E?$RayRTreeCallback@$00$0A@@@UEAAPEAXI@Z 0000000180111830 f i GuMidphaseRTree.obj
 0001:00110830       ??_E?$RayRTreeCallback@$0A@$0A@@@UEAAPEAXI@Z 0000000180111830 f i GuMidphaseRTree.obj
 0001:00110830       ??_G?$RayRTreeCallback@$00$0A@@@UEAAPEAXI@Z 0000000180111830 f i GuMidphaseRTree.obj
 0001:00110830       ??_G?$RayRTreeCallback@$0A@$0A@@@UEAAPEAXI@Z 0000000180111830 f i GuMidphaseRTree.obj
 0001:00110870       ??_E?$RayRTreeCallback@$0A@$00@@UEAAPEAXI@Z 0000000180111870 f i GuMidphaseRTree.obj
 0001:00110870       ??_G?$RayRTreeCallback@$0A@$00@@UEAAPEAXI@Z 0000000180111870 f i GuMidphaseRTree.obj
 0001:001108b0       ??_ECallback@RTree@Gu@physx@@UEAAPEAXI@Z 00000001801118b0 f i GuMidphaseRTree.obj
 0001:001108b0       ??_GCallback@RTree@Gu@physx@@UEAAPEAXI@Z 00000001801118b0 f i GuMidphaseRTree.obj
 0001:001108e0       ??_ERayMeshColliderCallback@@UEAAPEAXI@Z 00000001801118e0 f i GuMidphaseRTree.obj
 0001:001108e0       ??_ESweepCapsuleMeshHitCallback@Gu@physx@@UEAAPEAXI@Z 00000001801118e0 f i GuSweepsMesh.obj
 0001:001108e0       ??_GRayMeshColliderCallback@@UEAAPEAXI@Z 00000001801118e0 f i GuMidphaseRTree.obj
 0001:001108e0       ??_GSweepCapsuleMeshHitCallback@Gu@physx@@UEAAPEAXI@Z 00000001801118e0 f i GuSweepsMesh.obj
 0001:00110910       ?collideOBB@MeshRayCollider@@SAXAEBVBox@Gu@physx@@_NPEBVRTreeTriangleMesh@34@AEAU?$MeshHitCallback@UPxGeomRaycastHit@physx@@@34@1@Z 0000000180111910 f   GuMidphaseRTree.obj
 0001:00110df0       ?intersectBoxVsMesh_RTREE@Gu@physx@@YA_NAEBVBox@12@AEBVTriangleMesh@12@AEBV?$PxTransformT@M@2@AEBVPxMeshScale@2@PEAULimitedResults@12@@Z 0000000180111df0 f   GuMidphaseRTree.obj
 0001:00110e60       ?intersectCapsuleVsMesh_RTREE@Gu@physx@@YA_NAEBVCapsule@12@AEBVTriangleMesh@12@AEBV?$PxTransformT@M@2@AEBVPxMeshScale@2@PEAULimitedResults@12@@Z 0000000180111e60 f   GuMidphaseRTree.obj
 0001:00110ee0       ?intersectOBB_RTREE@Gu@physx@@YAXPEBVTriangleMesh@12@AEBVBox@12@AEAU?$MeshHitCallback@UPxGeomRaycastHit@physx@@@12@_N3@Z 0000000180111ee0 f   GuMidphaseRTree.obj
 0001:00110f10       ?intersectSphereVsMesh_RTREE@Gu@physx@@YA_NAEBVSphere@12@AEBVTriangleMesh@12@AEBV?$PxTransformT@M@2@AEBVPxMeshScale@2@PEAULimitedResults@12@@Z 0000000180111f10 f   GuMidphaseRTree.obj
 0001:00110f40       ?pointMeshDistance_RTREE@Gu@physx@@YAXPEBVTriangleMesh@12@AEBVPxTriangleMeshGeometry@2@AEBV?$PxTransformT@M@2@AEBV?$PxVec3T@M@2@MAEAIAEAMAEAV62@@Z 0000000180111f40 f   GuMidphaseRTree.obj
 0001:00111cc0       ?processHit@RayMeshColliderCallback@@UEAA_NAEBUPxGeomRaycastHit@physx@@AEBV?$PxVec3T@M@3@11AEAMPEBI@Z 0000000180112cc0 f i GuMidphaseRTree.obj
 0001:00112480       ?processResults@?$RayRTreeCallback@$00$00@@UEAA_NIPEAI@Z 0000000180113480 f i GuMidphaseRTree.obj
 0001:00112810       ?processResults@?$RayRTreeCallback@$00$00@@UEAA_NIPEAIAEAM@Z 0000000180113810 f i GuMidphaseRTree.obj
 0001:00112ba0       ?processResults@?$RayRTreeCallback@$00$0A@@@UEAA_NIPEAI@Z 0000000180113ba0 f i GuMidphaseRTree.obj
 0001:00112ba0       ?processResults@?$RayRTreeCallback@$0A@$0A@@@UEAA_NIPEAI@Z 0000000180113ba0 f i GuMidphaseRTree.obj
 0001:00112e10       ?processResults@?$RayRTreeCallback@$00$0A@@@UEAA_NIPEAIAEAM@Z 0000000180113e10 f i GuMidphaseRTree.obj
 0001:00112e10       ?processResults@?$RayRTreeCallback@$0A@$0A@@@UEAA_NIPEAIAEAM@Z 0000000180113e10 f i GuMidphaseRTree.obj
 0001:00113080       ?processResults@?$RayRTreeCallback@$0A@$00@@UEAA_NIPEAI@Z 0000000180114080 f i GuMidphaseRTree.obj
 0001:001136d0       ?processResults@?$RayRTreeCallback@$0A@$00@@UEAA_NIPEAIAEAM@Z 00000001801146d0 f i GuMidphaseRTree.obj
 0001:00113d30       ?raycast_triangleMesh_RTREE@Gu@physx@@YAIPEBVTriangleMesh@12@AEBVPxTriangleMeshGeometry@2@AEBV?$PxTransformT@M@2@AEBV?$PxVec3T@M@2@3MV?$PxFlags@W4Enum@PxHitFlag@physx@@G@2@IPEIAUPxGeomRaycastHit@2@I@Z 0000000180114d30 f   GuMidphaseRTree.obj
 0001:001144b0       ?sweepBox_MeshGeom_RTREE@Gu@physx@@YA_NPEBVTriangleMesh@12@AEBVPxTriangleMeshGeometry@2@AEBV?$PxTransformT@M@2@AEBVBox@12@AEBV?$PxVec3T@M@2@MAEAUPxGeomSweepHit@2@V?$PxFlags@W4Enum@PxHitFlag@physx@@G@2@M@Z 00000001801154b0 f   GuMidphaseRTree.obj
 0001:001158b0       ?sweepCapsule_MeshGeom_RTREE@Gu@physx@@YA_NPEBVTriangleMesh@12@AEBVPxTriangleMeshGeometry@2@AEBV?$PxTransformT@M@2@AEBVCapsule@12@AEBV?$PxVec3T@M@2@MAEAUPxGeomSweepHit@2@V?$PxFlags@W4Enum@PxHitFlag@physx@@G@2@M@Z 00000001801168b0 f   GuMidphaseRTree.obj
 0001:00116070       ?sweepConvex_MeshGeom_RTREE@Gu@physx@@YAXPEBVTriangleMesh@12@AEBVBox@12@AEBV?$PxVec3T@M@2@MAEAUSweepConvexMeshHitCallback@12@_N@Z 0000000180117070 f   GuMidphaseRTree.obj
 0001:001169f0       ??_E?$PxReportCallback@UPxGeomIndexPair@physx@@@physx@@UEAAPEAXI@Z 00000001801179f0 f i GuOverlapTestsMesh.obj
 0001:001169f0       ??_G?$PxReportCallback@UPxGeomIndexPair@physx@@@physx@@UEAAPEAXI@Z 00000001801179f0 f i GuOverlapTestsMesh.obj
 0001:00116a80       ?GeomOverlapCallback_BoxMesh@@YA_NAEBVPxGeometry@physx@@AEBV?$PxTransformT@M@2@01PEAUTriggerCache@Gu@2@PEAUPxQueryThreadContext@2@@Z 0000000180117a80 f   GuOverlapTestsMesh.obj
 0001:00116b90       ?GeomOverlapCallback_CapsuleMesh@@YA_NAEBVPxGeometry@physx@@AEBV?$PxTransformT@M@2@01PEAUTriggerCache@Gu@2@PEAUPxQueryThreadContext@2@@Z 0000000180117b90 f   GuOverlapTestsMesh.obj
 0001:00116ca0       ?GeomOverlapCallback_ConvexMesh@@YA_NAEBVPxGeometry@physx@@AEBV?$PxTransformT@M@2@01PEAUTriggerCache@Gu@2@PEAUPxQueryThreadContext@2@@Z 0000000180117ca0 f   GuOverlapTestsMesh.obj
 0001:001171b0       ?GeomOverlapCallback_MeshMesh@@YA_NAEBVPxGeometry@physx@@AEBV?$PxTransformT@M@2@01PEAUTriggerCache@Gu@2@PEAUPxQueryThreadContext@2@@Z 00000001801181b0 f   GuOverlapTestsMesh.obj
 0001:00117280       ?GeomOverlapCallback_SphereMesh@@YA_NAEBVPxGeometry@physx@@AEBV?$PxTransformT@M@2@01PEAUTriggerCache@Gu@2@PEAUPxQueryThreadContext@2@@Z 0000000180118280 f   GuOverlapTestsMesh.obj
 0001:00117670       ??0RTree@Gu@physx@@QEAA@W4PxEMPTY@2@@Z 0000000180118670 f   GuRTree.obj
 0001:00117680       ?exportExtraData@RTree@Gu@physx@@QEAAXAEAVPxSerializationContext@3@@Z 0000000180118680 f   GuRTree.obj
 0001:001176c0       ?importExtraData@RTree@Gu@physx@@QEAAXAEAVPxDeserializationContext@3@@Z 00000001801186c0 f   GuRTree.obj
 0001:001176f0       ?load@RTree@Gu@physx@@QEAA_NAEAVPxInputStream@3@I_N@Z 00000001801186f0 f   GuRTree.obj
 0001:001179f0       ?refitAllStaticTree@RTree@Gu@physx@@QEAAXAEAUCallbackRefit@123@PEAVPxBounds3@3@@Z 00000001801189f0 f   GuRTree.obj
 0001:00117f50       ?validate@RTree@Gu@physx@@QEAAXPEAUCallbackRefit@123@@Z 0000000180118f50 f   GuRTree.obj
 0001:00118180       ?validateRecursive@RTree@Gu@physx@@IEAAXIURTreeNodeQ@23@PEAURTreePage@23@PEAUCallbackRefit@123@@Z 0000000180119180 f   GuRTree.obj
 0001:00118340       ??$traverseRay@$00@RTree@Gu@physx@@QEBAXAEBV?$PxVec3T@M@2@0IPEAIPEAUCallbackRaycast@012@PEBV32@M@Z 0000000180119340 f i GuRTreeQueries.obj
 0001:001186f0       ??$traverseRay@$0A@@RTree@Gu@physx@@QEBAXAEBV?$PxVec3T@M@2@0IPEAIPEAUCallbackRaycast@012@PEBV32@M@Z 00000001801196f0 f i GuRTreeQueries.obj
 0001:00118a30       ?traverseAABB@RTree@Gu@physx@@QEBAXAEBV?$PxVec3T@M@3@0IPEAIPEAUCallback@123@@Z 0000000180119a30 f   GuRTreeQueries.obj
 0001:00118bf0       ?traverseOBB@RTree@Gu@physx@@QEBAXAEBVBox@23@IPEAIPEAUCallback@123@@Z 0000000180119bf0 f   GuRTreeQueries.obj
 0001:001194c0       ??0SweepBoxMeshHitCallback@Gu@physx@@QEAA@W4Enum@CallbackMode@12@AEBVPxMat34Padded@2@M_NAEBVBox@12@AEBV?$PxVec3T@M@2@44AEBV?$PxFlags@W4Enum@PxHitFlag@physx@@G@2@M2M@Z 000000018011a4c0 f   GuSweepsMesh.obj
 0001:001195d0       ??0SweepCapsuleMeshHitCallback@Gu@physx@@QEAA@AEAUPxGeomSweepHit@2@AEBV?$PxMat34T@M@2@M_NAEBVCapsule@12@AEBV?$PxVec3T@M@2@AEBV?$PxFlags@W4Enum@PxHitFlag@physx@@G@2@2M@Z 000000018011a5d0 f   GuSweepsMesh.obj
 0001:001196a0       ??0SweepConvexMeshHitCallback@Gu@physx@@QEAA@AEBUConvexHullData@12@AEBVPxMeshScale@2@AEBVFastVertex2ShapeScaling@Cm@2@AEBV?$PxTransformT@M@2@3AEBV?$PxVec3T@M@2@MV?$PxFlags@W4Enum@PxHitFlag@physx@@G@2@_NM6M@Z 000000018011a6a0 f   GuSweepsMesh.obj
 0001:0011a020       ??_ESweepBoxMeshHitCallback@Gu@physx@@UEAAPEAXI@Z 000000018011b020 f i GuSweepsMesh.obj
 0001:0011a020       ??_GSweepBoxMeshHitCallback@Gu@physx@@UEAAPEAXI@Z 000000018011b020 f i GuSweepsMesh.obj
 0001:0011a050       ??_ESweepConvexMeshHitCallback@Gu@physx@@UEAAPEAXI@Z 000000018011b050 f i GuSweepsMesh.obj
 0001:0011a050       ??_GSweepConvexMeshHitCallback@Gu@physx@@UEAAPEAXI@Z 000000018011b050 f i GuSweepsMesh.obj
 0001:0011a080       ??_ESweepShapeMeshHitCallback@Gu@physx@@UEAAPEAXI@Z 000000018011b080 f i GuSweepsMesh.obj
 0001:0011a080       ??_GSweepShapeMeshHitCallback@Gu@physx@@UEAAPEAXI@Z 000000018011b080 f i GuSweepsMesh.obj
 0001:0011a0b0       ?finalizeHit@SweepBoxMeshHitCallback@Gu@physx@@QEBA_NAEAUPxGeomSweepHit@3@AEBVPxTriangleMeshGeometry@3@AEBV?$PxTransformT@M@3@2AEBV?$PxVec3T@M@3@_N4@Z 000000018011b0b0 f   GuSweepsMesh.obj
 0001:0011a7b0       ?finalizeHit@SweepCapsuleMeshHitCallback@Gu@physx@@QEBA_NAEAUPxGeomSweepHit@3@AEBVCapsule@23@AEBVPxTriangleMeshGeometry@3@AEBV?$PxTransformT@M@3@_N@Z 000000018011b7b0 f   GuSweepsMesh.obj
 0001:0011a960       ?finalizeHit@SweepConvexMeshHitCallback@Gu@physx@@QEAA_NAEAUPxGeomSweepHit@3@AEBVPxTriangleMeshGeometry@3@AEBV?$PxTransformT@M@3@AEBVPxConvexMeshGeometry@3@2AEBV?$PxVec3T@M@3@M_N555@Z 000000018011b960 f   GuSweepsMesh.obj
 0001:0011ae30       ?processHit@SweepBoxMeshHitCallback@Gu@physx@@UEAA_NAEBUPxGeomRaycastHit@3@AEBV?$PxVec3T@M@3@11AEAMPEBI@Z 000000018011be30 f   GuSweepsMesh.obj
 0001:0011b620       ?processHit@SweepCapsuleMeshHitCallback@Gu@physx@@UEAA_NAEBUPxGeomRaycastHit@3@AEBV?$PxVec3T@M@3@11AEAMPEBI@Z 000000018011c620 f   GuSweepsMesh.obj
 0001:0011bb40       ?processHit@SweepConvexMeshHitCallback@Gu@physx@@UEAA_NAEBUPxGeomRaycastHit@3@AEBV?$PxVec3T@M@3@11AEAMPEBI@Z 000000018011cb40 f   GuSweepsMesh.obj
 0001:0011c290       ?sweepBox_MeshGeom@@YA_NAEBVPxGeometry@physx@@AEBV?$PxTransformT@M@2@AEBVPxBoxGeometry@2@1AEBVBox@Gu@2@AEBV?$PxVec3T@M@2@MAEAUPxGeomSweepHit@2@V?$PxFlags@W4Enum@PxHitFlag@physx@@G@2@MPEAUPxQueryThreadContext@2@@Z 000000018011d290 f   GuSweepsMesh.obj
 0001:0011c320       ?sweepCapsule_MeshGeom@@YA_NAEBVPxGeometry@physx@@AEBV?$PxTransformT@M@2@AEBVPxCapsuleGeometry@2@1AEBVCapsule@Gu@2@AEBV?$PxVec3T@M@2@MAEAUPxGeomSweepHit@2@V?$PxFlags@W4Enum@PxHitFlag@physx@@G@2@MPEAUPxQueryThreadContext@2@@Z 000000018011d320 f   GuSweepsMesh.obj
 0001:0011c3b0       ?sweepConvex_MeshGeom@@YA_NAEBVPxGeometry@physx@@AEBV?$PxTransformT@M@2@AEBVPxConvexMeshGeometry@2@1AEBV?$PxVec3T@M@2@MAEAUPxGeomSweepHit@2@V?$PxFlags@W4Enum@PxHitFlag@physx@@G@2@MPEAUPxQueryThreadContext@2@@Z 000000018011d3b0 f   GuSweepsMesh.obj
 0001:0011cf10       ??0TriangleMesh@Gu@physx@@QEAA@AEBUPxTriangleMeshInternalData@2@@Z 000000018011df10 f   GuTriangleMesh.obj
 0001:0011cff0       ??0TriangleMesh@Gu@physx@@QEAA@PEAVMeshFactory@12@AEAVTriangleMeshData@12@@Z 000000018011dff0 f   GuTriangleMesh.obj
 0001:0011d380       ??1TriangleMesh@Gu@physx@@UEAA@XZ 000000018011e380 f   GuTriangleMesh.obj
 0001:0011d5f0       ??_ETriangleMesh@Gu@physx@@UEAAPEAXI@Z 000000018011e5f0 f i GuTriangleMesh.obj
 0001:0011d5f0       ??_GTriangleMesh@Gu@physx@@UEAAPEAXI@Z 000000018011e5f0 f i GuTriangleMesh.obj
 0001:0011d660       ?exportExtraData@TriangleMesh@Gu@physx@@UEAAXAEAVPxSerializationContext@3@@Z 000000018011e660 f   GuTriangleMesh.obj
 0001:0011d8e0       ?getLocalBounds@TriangleMesh@Gu@physx@@UEBA?AVPxBounds3@3@XZ 000000018011e8e0 f i GuTriangleMesh.obj
 0001:0011d960       ?getMassInformation@TriangleMesh@Gu@physx@@UEBAXAEAMAEAV?$PxMat33T@M@3@AEAV?$PxVec3T@M@3@@Z 000000018011e960 f i GuTriangleMesh.obj
 0001:0011d9e0       ?getNbTriangles@TriangleMesh@Gu@physx@@UEBAIXZ 000000018011e9e0 f i GuTriangleMesh.obj
 0001:0011d9f0       ?getPreferSDFProjection@TriangleMesh@Gu@physx@@UEBA_NXZ 000000018011e9f0 f i GuTriangleMesh.obj
 0001:0011da00       ?getSDF@TriangleMesh@Gu@physx@@UEBAPEBMXZ 000000018011ea00 f i GuTriangleMesh.obj
 0001:0011da10       ?getSDFDimensions@TriangleMesh@Gu@physx@@UEBAXAEAI00@Z 000000018011ea10 f i GuTriangleMesh.obj
 0001:0011da40       ?getTriangleMaterialIndex@TriangleMesh@Gu@physx@@UEBAGI@Z 000000018011ea40 f i GuTriangleMesh.obj
 0001:0011da60       ?getTriangleMeshFlags@TriangleMesh@Gu@physx@@UEBA?AV?$PxFlags@W4Enum@PxTriangleMeshFlag@physx@@E@3@XZ 000000018011ea60 f i GuTriangleMesh.obj
 0001:0011da70       ?getTrianglesRemap@TriangleMesh@Gu@physx@@UEBAPEBIXZ 000000018011ea70 f i GuTriangleMesh.obj
 0001:0011da80       ?getVerticesForModification@TriangleMesh@Gu@physx@@UEAAPEAV?$PxVec3T@M@3@XZ 000000018011ea80 f   GuTriangleMesh.obj
 0001:0011dac0       ?importExtraData@TriangleMesh@Gu@physx@@QEAAXAEAVPxDeserializationContext@3@@Z 000000018011eac0 f   GuTriangleMesh.obj
 0001:0011dce0       ?isKindOf@PxTriangleMesh@physx@@MEBA_NPEBD@Z 000000018011ece0 f i GuTriangleMesh.obj
 0001:0011dd70       ?onRefCountZero@TriangleMesh@Gu@physx@@UEAAXXZ 000000018011ed70 f   GuTriangleMesh.obj
 0001:0011de40       ?refitBVH@TriangleMesh@Gu@physx@@UEAA?AVPxBounds3@3@XZ 000000018011ee40 f   GuTriangleMesh.obj
 0001:0011df00       ?requestEdgeList@TriangleMesh@Gu@physx@@QEBAPEBVEdgeList@23@XZ 000000018011ef00 f   GuTriangleMesh.obj
 0001:0011dfe0       ?setAllEdgesActive@TriangleMesh@Gu@physx@@QEAAXXZ 000000018011efe0 f   GuTriangleMesh.obj
 0001:0011e0d0       ?setPreferSDFProjection@TriangleMesh@Gu@physx@@UEAAX_N@Z 000000018011f0d0 f i GuTriangleMesh.obj
 0001:0011e100       ??0BV4TriangleMesh@Gu@physx@@QEAA@AEBUPxTriangleMeshInternalData@2@@Z 000000018011f100 f   GuTriangleMeshBV4.obj
 0001:0011e270       ??0BV4TriangleMesh@Gu@physx@@QEAA@PEAVMeshFactory@12@AEAVTriangleMeshData@12@@Z 000000018011f270 f   GuTriangleMeshBV4.obj
 0001:0011e300       ??_EBV4TriangleMesh@Gu@physx@@UEAAPEAXI@Z 000000018011f300 f i GuTriangleMeshBV4.obj
 0001:0011e300       ??_GBV4TriangleMesh@Gu@physx@@UEAAPEAXI@Z 000000018011f300 f i GuTriangleMeshBV4.obj
 0001:0011e390       ?createObject@BV4TriangleMesh@Gu@physx@@SAPEAVTriangleMesh@23@AEAPEAEAEAVPxDeserializationContext@3@@Z 000000018011f390 f   GuTriangleMeshBV4.obj
 0001:0011e460       ?exportExtraData@BV4TriangleMesh@Gu@physx@@UEAAXAEAVPxSerializationContext@3@@Z 000000018011f460 f   GuTriangleMeshBV4.obj
 0001:0011e4a0       ?getConcreteTypeName@BV4TriangleMesh@Gu@physx@@UEBAPEBDXZ 000000018011f4a0 f i GuTriangleMeshBV4.obj
 0001:0011e4b0       ?getInternalData@BV4TriangleMesh@Gu@physx@@UEBA_NAEAUPxTriangleMeshInternalData@3@_N@Z 000000018011f4b0 f   GuTriangleMeshBV4.obj
 0001:0011e5a0       ?getMidphaseID@BV4TriangleMesh@Gu@physx@@UEBA?AW4Enum@PxMeshMidPhase@3@XZ 000000018011f5a0 f i GuTriangleMeshBV4.obj
 0001:0011e5a0       ?getMidphaseID@BV4TriangleMeshBuilder@physx@@UEBA?AW4Enum@PxMeshMidPhase@2@XZ 000000018011f5a0 f i GuCookingTriangleMesh.obj
 0001:0011e5a0       ?length@charNode@@UEBAHXZ  000000018011f5a0 f i libvcruntime:undname.obj
 0001:0011e5a0       ?raw_length@charNode@@UEBAHXZ 000000018011f5a0 f i libvcruntime:undname.obj
 0001:0011e5a0       DllMain                    000000018011f5a0 f i LIBCMT:dll_dllmain_stub.obj
 0001:0011e5a0       _get_startup_argv_mode     000000018011f5a0 f i LIBCMT:argv_mode.obj
 0001:0011e5b0       ?getVerticesForModification@BV4TriangleMesh@Gu@physx@@UEAAPEAV?$PxVec3T@M@3@XZ 000000018011f5b0 f   GuTriangleMeshBV4.obj
 0001:0011e5b0       ?getVerticesForModification@RTreeTriangleMesh@Gu@physx@@UEAAPEAV?$PxVec3T@M@3@XZ 000000018011f5b0 f   GuTriangleMeshRTree.obj
 0001:0011e5c0       ?refitBVH@BV4TriangleMesh@Gu@physx@@UEAA?AVPxBounds3@3@XZ 000000018011f5c0 f   GuTriangleMeshBV4.obj
 0001:0011e740       PxGetTriangleMeshInternalData 000000018011f740 f   GuTriangleMeshBV4.obj
 0001:0011e760       ??0RTreeTriangleMesh@Gu@physx@@QEAA@PEAVMeshFactory@12@AEAVTriangleMeshData@12@@Z 000000018011f760 f   GuTriangleMeshRTree.obj
 0001:0011e8d0       ??_E?$RefitCallback@G@physx@@UEAAPEAXI@Z 000000018011f8d0 f i GuTriangleMeshRTree.obj
 0001:0011e8d0       ??_E?$RefitCallback@I@physx@@UEAAPEAXI@Z 000000018011f8d0 f i GuTriangleMeshRTree.obj
 0001:0011e8d0       ??_G?$RefitCallback@G@physx@@UEAAPEAXI@Z 000000018011f8d0 f i GuTriangleMeshRTree.obj
 0001:0011e8d0       ??_G?$RefitCallback@I@physx@@UEAAPEAXI@Z 000000018011f8d0 f i GuTriangleMeshRTree.obj
 0001:0011e900       ??_ERTreeTriangleMesh@Gu@physx@@UEAAPEAXI@Z 000000018011f900 f i GuTriangleMeshRTree.obj
 0001:0011e900       ??_GRTreeTriangleMesh@Gu@physx@@UEAAPEAXI@Z 000000018011f900 f i GuTriangleMeshRTree.obj
 0001:0011e9b0       ?createObject@RTreeTriangleMesh@Gu@physx@@SAPEAVTriangleMesh@23@AEAPEAEAEAVPxDeserializationContext@3@@Z 000000018011f9b0 f   GuTriangleMeshRTree.obj
 0001:0011ea30       ?exportExtraData@RTreeTriangleMesh@Gu@physx@@UEAAXAEAVPxSerializationContext@3@@Z 000000018011fa30 f   GuTriangleMeshRTree.obj
 0001:0011ea70       ?getConcreteTypeName@RTreeTriangleMesh@Gu@physx@@UEBAPEBDXZ 000000018011fa70 f i GuTriangleMeshRTree.obj
 0001:0011ea80       ?recomputeBounds@?$RefitCallback@G@physx@@UEAAXIAEAT__m128@@0@Z 000000018011fa80 f i GuTriangleMeshRTree.obj
 0001:0011edb0       ?recomputeBounds@?$RefitCallback@I@physx@@UEAAXIAEAT__m128@@0@Z 000000018011fdb0 f i GuTriangleMeshRTree.obj
 0001:0011f0d0       ?refitBVH@RTreeTriangleMesh@Gu@physx@@UEAA?AVPxBounds3@3@XZ 00000001801200d0 f   GuTriangleMeshRTree.obj
 0001:0011f1f0       ??0BV32Tree@Gu@physx@@QEAA@W4PxEMPTY@2@@Z 00000001801201f0 f   GuBV32.obj
 0001:0011f210       ??0BV32Tree@Gu@physx@@QEAA@XZ 0000000180120210 f   GuBV32.obj
 0001:0011f240       ??1BV32Tree@Gu@physx@@QEAA@XZ 0000000180120240 f   GuBV32.obj
 0001:0011f250       ?createSOAformatNode@BV32Tree@Gu@physx@@QEAAXAEAUBV32DataPacked@23@AEBUBV32Data@23@IAEAI2@Z 0000000180120250 f   GuBV32.obj
 0001:0011f6b0       ?exportExtraData@BV32Tree@Gu@physx@@QEAAXAEAVPxSerializationContext@3@@Z 00000001801206b0 f   GuBV32.obj
 0001:0011f6f0       ?importExtraData@BV32Tree@Gu@physx@@QEAAXAEAVPxDeserializationContext@3@@Z 00000001801206f0 f   GuBV32.obj
 0001:0011f720       ?load@BV32Tree@Gu@physx@@QEAA_NAEAVPxInputStream@3@_N@Z 0000000180120720 f   GuBV32.obj
 0001:0011fa60       ?release@BV32Tree@Gu@physx@@QEAAXXZ 0000000180120a60 f   GuBV32.obj
 0001:0011fb20       ??0BV32Node@@QEAA@XZ       0000000180120b20 f i GuBV32Build.obj
 0001:0011fd50       ?BuildBV32Ex@Gu@physx@@YA_NAEAVBV32Tree@12@AEAVSourceMeshBase@12@MI@Z 0000000180120d50 f   GuBV32Build.obj
 0001:00120d40       ??0BVTetrahedronMesh@Gu@physx@@QEAA@AEAVTetrahedronMeshData@12@AEAVSoftBodyCollisionData@12@PEAVMeshFactory@12@@Z 0000000180121d40 f   GuTetrahedronMesh.obj
 0001:00120fb0       ??0SoftBodyMesh@Gu@physx@@QEAA@PEAVMeshFactory@12@AEAVSoftBodyMeshData@12@@Z 0000000180121fb0 f   GuTetrahedronMesh.obj
 0001:00121360       ??0TetrahedronMesh@Gu@physx@@QEAA@PEAVMeshFactory@12@AEAVTetrahedronMeshData@12@@Z 0000000180122360 f   GuTetrahedronMesh.obj
 0001:00121460       ??1SoftBodyAuxData@Gu@physx@@UEAA@XZ 0000000180122460 f   GuTetrahedronMesh.obj
 0001:001216e0       ??1TetrahedronMesh@Gu@physx@@UEAA@XZ 00000001801226e0 f   GuTetrahedronMesh.obj
 0001:00121780       ??_EBVTetrahedronMesh@Gu@physx@@UEAAPEAXI@Z 0000000180122780 f i GuTetrahedronMesh.obj
 0001:00121780       ??_GBVTetrahedronMesh@Gu@physx@@UEAAPEAXI@Z 0000000180122780 f i GuTetrahedronMesh.obj
 0001:00121900       ??_ESoftBodyAuxData@Gu@physx@@UEAAPEAXI@Z 0000000180122900 f i GuTetrahedronMesh.obj
 0001:00121900       ??_GSoftBodyAuxData@Gu@physx@@UEAAPEAXI@Z 0000000180122900 f i GuTetrahedronMesh.obj
 0001:00121970       ??_ESoftBodyMesh@Gu@physx@@UEAAPEAXI@Z 0000000180122970 f i GuTetrahedronMesh.obj
 0001:00121970       ??_GSoftBodyMesh@Gu@physx@@UEAAPEAXI@Z 0000000180122970 f i GuTetrahedronMesh.obj
 0001:00121a40       ??_ETetrahedronMesh@Gu@physx@@UEAAPEAXI@Z 0000000180122a40 f i GuTetrahedronMesh.obj
 0001:00121a40       ??_GTetrahedronMesh@Gu@physx@@UEAAPEAXI@Z 0000000180122a40 f i GuTetrahedronMesh.obj
 0001:00121ab0       ?exportExtraData@SoftBodyMesh@Gu@physx@@UEAAXAEAVPxSerializationContext@3@@Z 0000000180122ab0 f   GuTetrahedronMesh.obj
 0001:00121ba0       ?getConcreteTypeName@SoftBodyAuxData@Gu@physx@@UEBAPEBDXZ 0000000180122ba0 f i GuTetrahedronMesh.obj
 0001:00121bb0       ?getConcreteTypeName@SoftBodyMesh@Gu@physx@@UEBAPEBDXZ 0000000180122bb0 f i GuTetrahedronMesh.obj
 0001:00121bc0       ?getConcreteTypeName@TetrahedronMesh@Gu@physx@@UEBAPEBDXZ 0000000180122bc0 f i GuTetrahedronMesh.obj
 0001:00121bd0       ?getLocalBounds@TetrahedronMesh@Gu@physx@@UEBA?AVPxBounds3@3@XZ 0000000180122bd0 f i GuTetrahedronMesh.obj
 0001:00121c50       ?getNbTetrahedrons@TetrahedronMesh@Gu@physx@@UEBAIXZ 0000000180122c50 f i GuTetrahedronMesh.obj
 0001:00121c60       ?getBounds@BVH@Gu@physx@@UEBAPEBVPxBounds3@3@XZ 0000000180122c60 f i GuBVH.obj
 0001:00121c60       ?getTetrahedraRemap@BVTetrahedronMesh@Gu@physx@@UEBAPEBIXZ 0000000180122c60 f i GuTetrahedronMesh.obj
 0001:00121c70       ?getTetrahedronMeshFlags@TetrahedronMesh@Gu@physx@@UEBA?AV?$PxFlags@W4Enum@PxTetrahedronMeshFlag@physx@@E@3@XZ 0000000180122c70 f i GuTetrahedronMesh.obj
 0001:00121c80       ?getTetrahedrons@TetrahedronMesh@Gu@physx@@UEBAPEBXXZ 0000000180122c80 f i GuTetrahedronMesh.obj
 0001:00121c90       ?isKindOf@PxSoftBodyAuxData@physx@@MEBA_NPEBD@Z 0000000180122c90 f i GuTetrahedronMesh.obj
 0001:00121d20       ?isKindOf@PxSoftBodyMesh@physx@@MEBA_NPEBD@Z 0000000180122d20 f i GuTetrahedronMesh.obj
 0001:00121db0       ?isKindOf@PxTetrahedronMesh@physx@@MEBA_NPEBD@Z 0000000180122db0 f i GuTetrahedronMesh.obj
 0001:00121e40       ?onRefCountZero@SoftBodyAuxData@Gu@physx@@UEAAXXZ 0000000180122e40 f i GuTetrahedronMesh.obj
 0001:00121e40       ?release@SimulationTetrahedronMeshData@Gu@physx@@UEAAXXZ 0000000180122e40 f i GuCookingTetrahedronMesh.obj
 0001:00121e60       ?onRefCountZero@SoftBodyMesh@Gu@physx@@UEAAXXZ 0000000180122e60 f   GuTetrahedronMesh.obj
 0001:00121f00       ?onRefCountZero@TetrahedronMesh@Gu@physx@@UEAAXXZ 0000000180122f00 f   GuTetrahedronMesh.obj
 0001:00121fa0       ?addAxisToSimMeshBarycentric@Gu@physx@@YA?AV?$PxVec4T@M@2@AEBVPxTetrahedronMesh@2@IAEBV32@AEBV?$PxVec3T@M@2@@Z 0000000180122fa0 f   GuTetrahedronMeshUtils.obj
 0001:00122270       ?closestPtPointTetrahedron@Gu@physx@@YA?AV?$PxVec3T@M@2@AEBV32@0000@Z 0000000180123270 f i GuTetrahedronMeshUtils.obj
 0001:00123470       ?computeBarycentric@physx@@YAXAEBV?$PxVec3T@M@1@0000AEAV?$PxVec4T@M@1@@Z 0000000180124470 f i GuTetrahedronMeshUtils.obj
 0001:00123730       ?convertSoftbodyCollisionToSimMeshTets@Gu@physx@@YAXAEBVPxTetrahedronMesh@2@AEBVSoftBodyAuxData@12@AEBVBVTetrahedronMesh@12@IAEBV?$PxVec4T@M@2@AEAIAEAV62@@Z 0000000180124730 f   GuTetrahedronMeshUtils.obj
 0001:001262f0       ?pcmContactBoxBox@Gu@physx@@YA_NAEBVPxGeometry@2@0AEBUPxTransformPadded@2@1AEBUNarrowPhaseParams@12@AEAUCache@12@AEAVPxContactBuffer@2@PEAVPxRenderOutput@2@@Z 00000001801272f0 f   GuPCMContactBoxBox.obj
 0001:001271a0       ??$gjkPenetration@U?$RelativeConvex@VBoxV@Gu@physx@@@Gu@physx@@U?$LocalConvex@VConvexHullNoScaleV@Gu@physx@@@23@@Gu@physx@@YA?AW4GjkStatus@01@AEBU?$RelativeConvex@VBoxV@Gu@physx@@@01@AEBU?$LocalConvex@VConvexHullNoScaleV@Gu@physx@@@01@AEBT__m128@@2_NPEIAE4AEAEAEAUGjkOutput@01@@Z 00000001801281a0 f i GuPCMContactBoxConvex.obj
 0001:00127210       ??$gjkPenetration@U?$RelativeConvex@VBoxV@Gu@physx@@@Gu@physx@@U?$LocalConvex@VConvexHullNoScaleV@Gu@physx@@@23@@Gu@physx@@YA?AW4GjkStatus@01@AEBU?$RelativeConvex@VBoxV@Gu@physx@@@01@AEBU?$LocalConvex@VConvexHullNoScaleV@Gu@physx@@@01@AEBT__m128@@2_NPEIAE4PEIAT5@5AEAEAEAUGjkOutput@01@@Z 0000000180128210 f i GuPCMContactBoxConvex.obj
 0001:001293c0       ?pcmContactBoxConvex@Gu@physx@@YA_NAEBVPxGeometry@2@0AEBUPxTransformPadded@2@1AEBUNarrowPhaseParams@12@AEAUCache@12@AEAVPxContactBuffer@2@PEAVPxRenderOutput@2@@Z 000000018012a3c0 f   GuPCMContactBoxConvex.obj
 0001:0012a1b0       ?support@?$LocalConvex@VConvexHullNoScaleV@Gu@physx@@@Gu@physx@@UEBA?AT__m128@@AEBT4@@Z 000000018012b1b0 f i GuPCMContactBoxConvex.obj
 0001:0012a200       ?support@?$LocalConvex@VConvexHullNoScaleV@Gu@physx@@@Gu@physx@@UEBA?AT__m128@@AEBT4@AEAH@Z 000000018012b200 f i GuPCMContactBoxConvex.obj
 0001:0012a260       ?supportPoint@?$LocalConvex@VConvexHullNoScaleV@Gu@physx@@@Gu@physx@@UEBA?AT__m128@@H@Z 000000018012b260 f i GuPCMContactBoxConvex.obj
 0001:0012a290       ?pcmContactCapsuleBox@Gu@physx@@YA_NAEBVPxGeometry@2@0AEBUPxTransformPadded@2@1AEBUNarrowPhaseParams@12@AEAUCache@12@AEAVPxContactBuffer@2@PEAVPxRenderOutput@2@@Z 000000018012b290 f   GuPCMContactCapsuleBox.obj
 0001:0012b270       ?pcmContactCapsuleCapsule@Gu@physx@@YA_NAEBVPxGeometry@2@0AEBUPxTransformPadded@2@1AEBUNarrowPhaseParams@12@AEAUCache@12@AEAVPxContactBuffer@2@PEAVPxRenderOutput@2@@Z 000000018012c270 f   GuPCMContactCapsuleCapsule.obj
 0001:0012ba30       ??$gjkPenetration@U?$LocalConvex@VCapsuleV@Gu@physx@@@Gu@physx@@U?$LocalConvex@VConvexHullNoScaleV@Gu@physx@@@23@@Gu@physx@@YA?AW4GjkStatus@01@AEBU?$LocalConvex@VCapsuleV@Gu@physx@@@01@AEBU?$LocalConvex@VConvexHullNoScaleV@Gu@physx@@@01@AEBT__m128@@2_NPEIAE4AEAEAEAUGjkOutput@01@@Z 000000018012ca30 f i GuPCMContactCapsuleConvex.obj
 0001:0012baa0       ??$gjkPenetration@U?$LocalConvex@VCapsuleV@Gu@physx@@@Gu@physx@@U?$LocalConvex@VConvexHullNoScaleV@Gu@physx@@@23@@Gu@physx@@YA?AW4GjkStatus@01@AEBU?$LocalConvex@VCapsuleV@Gu@physx@@@01@AEBU?$LocalConvex@VConvexHullNoScaleV@Gu@physx@@@01@AEBT__m128@@2_NPEIAE4PEIAT5@5AEAEAEAUGjkOutput@01@@Z 000000018012caa0 f i GuPCMContactCapsuleConvex.obj
 0001:0012d730       ?pcmContactCapsuleConvex@Gu@physx@@YA_NAEBVPxGeometry@2@0AEBUPxTransformPadded@2@1AEBUNarrowPhaseParams@12@AEAUCache@12@AEAVPxContactBuffer@2@PEAVPxRenderOutput@2@@Z 000000018012e730 f   GuPCMContactCapsuleConvex.obj
 0001:0012e9f0       ??_EPCMCapsuleVsHeightfieldContactGenerationCallback@@UEAAPEAXI@Z 000000018012f9f0 f i GuPCMContactCapsuleHeightField.obj
 0001:0012e9f0       ??_GPCMCapsuleVsHeightfieldContactGenerationCallback@@UEAAPEAXI@Z 000000018012f9f0 f i GuPCMContactCapsuleHeightField.obj
 0001:0012ea20       ?pcmContactCapsuleHeightField@Gu@physx@@YA_NAEBVPxGeometry@2@0AEBUPxTransformPadded@2@1AEBUNarrowPhaseParams@12@AEAUCache@12@AEAVPxContactBuffer@2@PEAVPxRenderOutput@2@@Z 000000018012fa20 f   GuPCMContactCapsuleHeightField.obj
 0001:0012f8f0       ?reportTouchedTris@?$PCMHeightfieldContactGenerationCallback@UPCMCapsuleVsHeightfieldContactGenerationCallback@@@Gu@physx@@UEAA_NIPEBI@Z 00000001801308f0 f i GuPCMContactCapsuleHeightField.obj
 0001:0012ff60       ?generateContacts@PCMCapsuleVsMeshContactGeneration@Gu@physx@@SAXAEBT__m128@@0000I000PEAVMeshPersistentContact@23@AEAI@Z 0000000180130f60 f   GuPCMContactCapsuleMesh.obj
 0001:001303a0       ?generateEE@PCMCapsuleVsMeshContactGeneration@Gu@physx@@QEAAXAEBT__m128@@000I00PEAVMeshPersistentContact@23@AEAI@Z 00000001801313a0 f   GuPCMContactCapsuleMesh.obj
 0001:00130610       ?generateEEMTD@PCMCapsuleVsMeshContactGeneration@Gu@physx@@SAXAEBT__m128@@000I00PEAVMeshPersistentContact@23@AEAI@Z 0000000180131610 f   GuPCMContactCapsuleMesh.obj
 0001:00130840       ?pcmContactCapsuleMesh@Gu@physx@@YA_NAEBVPxGeometry@2@0AEBUPxTransformPadded@2@1AEBUNarrowPhaseParams@12@AEAUCache@12@AEAVPxContactBuffer@2@PEAVPxRenderOutput@2@@Z 0000000180131840 f   GuPCMContactCapsuleMesh.obj
 0001:00132070       ?pcmDistanceSegmentTriangleSquaredExported@@YA?AT__m128@@AEBT1@0000AEAT1@11@Z 0000000180133070 f   GuPCMContactCapsuleMesh.obj
 0001:001324d0       ?processTriangle@PCMCapsuleVsMeshContactGeneration@Gu@physx@@QEAA_NPEBV?$PxVec3T@M@3@IEPEBI@Z 00000001801334d0 f   GuPCMContactCapsuleMesh.obj
 0001:001330a0       ?processTriangle@PCMCapsuleVsMeshContactGeneration@Gu@physx@@SA_NAEBVTriangleV@23@IAEBVCapsuleV@23@AEBT__m128@@EPEAVMeshPersistentContact@23@AEAI@Z 00000001801340a0 f   GuPCMContactCapsuleMesh.obj
 0001:001333b0       ?addContactsToPatch@PCMConvexVsMeshContactGeneration@Gu@physx@@QEAAXAEBT__m128@@I@Z 00000001801343b0 f   GuPCMContactConvexCommon.obj
 0001:00133ce0       ?doSupport@?$SupportLocalImpl@VTriangleV@Gu@physx@@@Gu@physx@@UEBA?AT__m128@@AEBT4@@Z 0000000180134ce0 f i GuPCMContactConvexCommon.obj
 0001:00133d70       ?doSupport@?$SupportLocalImpl@VTriangleV@Gu@physx@@@Gu@physx@@UEBAXAEBT__m128@@AEAT4@1@Z 0000000180134d70 f i GuPCMContactConvexCommon.obj
 0001:00133de0       ?generateLastContacts@PCMConvexVsMeshContactGeneration@Gu@physx@@QEAAXXZ 0000000180134de0 f   GuPCMContactConvexCommon.obj
 0001:00134270       ?get@?$CacheMap@UCachedEdge@Gu@physx@@$0IA@@Gu@physx@@QEBAPEBUCachedEdge@23@AEBU423@@Z 0000000180135270 f i GuPCMContactConvexCommon.obj
 0001:001342f0       ?populateVerts@?$SupportLocalImpl@VTriangleV@Gu@physx@@@Gu@physx@@UEBAXPEBEIPEBV?$PxVec3T@M@3@PEAT__m128@@@Z 00000001801352f0 f i GuPCMContactConvexCommon.obj
 0001:00134430       ?processTriangle@PCMConvexVsMeshContactGeneration@Gu@physx@@QEAA_NPEBV?$PxVec3T@M@3@IEPEBI@Z 0000000180135430 f   GuPCMContactConvexCommon.obj
 0001:00134860       ?processTriangle@PCMConvexVsMeshContactGeneration@Gu@physx@@SA_NAEBUPolygonalData@23@PEBVSupportLocal@23@PEBV?$PxVec3T@M@3@IEAEBT__m128@@_NAEBVPxTransformV@aos@3@AEBVPxMatTransformV@93@PEAVMeshPersistentContact@23@AEAI@Z 0000000180135860 f   GuPCMContactConvexCommon.obj
 0001:00134ae0       ??$gjkPenetration@U?$RelativeConvex@VConvexHullNoScaleV@Gu@physx@@@Gu@physx@@U?$LocalConvex@VConvexHullNoScaleV@Gu@physx@@@23@@Gu@physx@@YA?AW4GjkStatus@01@AEBU?$RelativeConvex@VConvexHullNoScaleV@Gu@physx@@@01@AEBU?$LocalConvex@VConvexHullNoScaleV@Gu@physx@@@01@AEBT__m128@@2_NPEIAE4AEAEAEAUGjkOutput@01@@Z 0000000180135ae0 f i GuPCMContactConvexConvex.obj
 0001:00134b50       ??$gjkPenetration@U?$RelativeConvex@VConvexHullNoScaleV@Gu@physx@@@Gu@physx@@U?$LocalConvex@VConvexHullNoScaleV@Gu@physx@@@23@@Gu@physx@@YA?AW4GjkStatus@01@AEBU?$RelativeConvex@VConvexHullNoScaleV@Gu@physx@@@01@AEBU?$LocalConvex@VConvexHullNoScaleV@Gu@physx@@@01@AEBT__m128@@2_NPEIAE4PEIAT5@5AEAEAEAUGjkOutput@01@@Z 0000000180135b50 f i GuPCMContactConvexConvex.obj
 0001:00136620       ??$gjkPenetration@U?$RelativeConvex@VConvexHullNoScaleV@Gu@physx@@@Gu@physx@@U?$LocalConvex@VConvexHullV@Gu@physx@@@23@@Gu@physx@@YA?AW4GjkStatus@01@AEBU?$RelativeConvex@VConvexHullNoScaleV@Gu@physx@@@01@AEBU?$LocalConvex@VConvexHullV@Gu@physx@@@01@AEBT__m128@@2_NPEIAE4AEAEAEAUGjkOutput@01@@Z 0000000180137620 f i GuPCMContactConvexConvex.obj
 0001:00136690       ??$gjkPenetration@U?$RelativeConvex@VConvexHullNoScaleV@Gu@physx@@@Gu@physx@@U?$LocalConvex@VConvexHullV@Gu@physx@@@23@@Gu@physx@@YA?AW4GjkStatus@01@AEBU?$RelativeConvex@VConvexHullNoScaleV@Gu@physx@@@01@AEBU?$LocalConvex@VConvexHullV@Gu@physx@@@01@AEBT__m128@@2_NPEIAE4PEIAT5@5AEAEAEAUGjkOutput@01@@Z 0000000180137690 f i GuPCMContactConvexConvex.obj
 0001:00138200       ??$gjkPenetration@U?$RelativeConvex@VConvexHullV@Gu@physx@@@Gu@physx@@U?$LocalConvex@VConvexHullNoScaleV@Gu@physx@@@23@@Gu@physx@@YA?AW4GjkStatus@01@AEBU?$RelativeConvex@VConvexHullV@Gu@physx@@@01@AEBU?$LocalConvex@VConvexHullNoScaleV@Gu@physx@@@01@AEBT__m128@@2_NPEIAE4AEAEAEAUGjkOutput@01@@Z 0000000180139200 f i GuPCMContactConvexConvex.obj
 0001:00138270       ??$gjkPenetration@U?$RelativeConvex@VConvexHullV@Gu@physx@@@Gu@physx@@U?$LocalConvex@VConvexHullNoScaleV@Gu@physx@@@23@@Gu@physx@@YA?AW4GjkStatus@01@AEBU?$RelativeConvex@VConvexHullV@Gu@physx@@@01@AEBU?$LocalConvex@VConvexHullNoScaleV@Gu@physx@@@01@AEBT__m128@@2_NPEIAE4PEIAT5@5AEAEAEAUGjkOutput@01@@Z 0000000180139270 f i GuPCMContactConvexConvex.obj
 0001:0013a830       ?pcmContactConvexConvex@Gu@physx@@YA_NAEBVPxGeometry@2@0AEBUPxTransformPadded@2@1AEBUNarrowPhaseParams@12@AEAUCache@12@AEAVPxContactBuffer@2@PEAVPxRenderOutput@2@@Z 000000018013b830 f   GuPCMContactConvexConvex.obj
 0001:0013ba10       ?support@?$RelativeConvex@VConvexHullNoScaleV@Gu@physx@@@Gu@physx@@UEBA?AT__m128@@AEBT4@@Z 000000018013ca10 f i GuPCMContactConvexConvex.obj
 0001:0013bac0       ?support@?$RelativeConvex@VConvexHullNoScaleV@Gu@physx@@@Gu@physx@@UEBA?AT__m128@@AEBT4@AEAH@Z 000000018013cac0 f i GuPCMContactConvexConvex.obj
 0001:0013bb80       ?supportPoint@?$RelativeConvex@VConvexHullNoScaleV@Gu@physx@@@Gu@physx@@UEBA?AT__m128@@H@Z 000000018013cb80 f i GuPCMContactConvexConvex.obj
 0001:0013bc00       ?PCMContactConvexHeightfield@Gu@physx@@YA_NAEBUPolygonalData@12@PEBVSupportLocal@12@AEBT__m128@@AEBVPxBounds3@2@AEBVPxHeightFieldGeometry@2@AEBV?$PxTransformT@M@2@5MAEAVPxContactBuffer@2@AEBVFastVertex2ShapeScaling@Cm@2@_NAEAVMultiplePersistentContactManifold@12@PEAVPxRenderOutput@2@@Z 000000018013cc00 f   GuPCMContactConvexHeightField.obj
 0001:0013ca90       ?pcmContactBoxHeightField@Gu@physx@@YA_NAEBVPxGeometry@2@0AEBUPxTransformPadded@2@1AEBUNarrowPhaseParams@12@AEAUCache@12@AEAVPxContactBuffer@2@PEAVPxRenderOutput@2@@Z 000000018013da90 f   GuPCMContactConvexHeightField.obj
 0001:0013cd30       ?pcmContactConvexHeightField@Gu@physx@@YA_NAEBVPxGeometry@2@0AEBUPxTransformPadded@2@1AEBUNarrowPhaseParams@12@AEAUCache@12@AEAVPxContactBuffer@2@PEAVPxRenderOutput@2@@Z 000000018013dd30 f   GuPCMContactConvexHeightField.obj
 0001:0013da40       ?PCMContactConvexMesh@Gu@physx@@YA_NAEBUPolygonalData@12@PEBVSupportLocal@12@AEBT__m128@@AEBVPxBounds3@2@AEBVPxTriangleMeshGeometry@2@AEBV?$PxTransformT@M@2@5MAEAVPxContactBuffer@2@AEBVFastVertex2ShapeScaling@Cm@2@7_N8AEAVMultiplePersistentContactManifold@12@PEAVPxRenderOutput@2@@Z 000000018013ea40 f   GuPCMContactConvexMesh.obj
 0001:0013e540       ?pcmContactBoxMesh@Gu@physx@@YA_NAEBVPxGeometry@2@0AEBUPxTransformPadded@2@1AEBUNarrowPhaseParams@12@AEAUCache@12@AEAVPxContactBuffer@2@PEAVPxRenderOutput@2@@Z 000000018013f540 f   GuPCMContactConvexMesh.obj
 0001:0013e880       ?pcmContactConvexMesh@Gu@physx@@YA_NAEBVPxGeometry@2@0AEBUPxTransformPadded@2@1AEBUNarrowPhaseParams@12@AEAUCache@12@AEAVPxContactBuffer@2@PEAVPxRenderOutput@2@@Z 000000018013f880 f   GuPCMContactConvexMesh.obj
 0001:0013f450       ?addGJKEPAContacts@Gu@physx@@YA_NPEBUGjkConvex@12@0AEBVPxMatTransformV@aos@2@W4GjkStatus@12@PEAVPersistentContact@12@T__m128@@4AEAUGjkOutput@12@AEAVPersistentContactManifold@12@@Z 0000000180140450 f   GuPCMContactGenBoxConvex.obj
 0001:0013f900       ?computeMTD@Gu@physx@@YA_NAEBUPolygonalData@12@0PEBVSupportLocal@12@1AEAT__m128@@2@Z 0000000180140900 f   GuPCMContactGenBoxConvex.obj
 0001:0013ff30       ?generateFullContactManifold@Gu@physx@@YA_NAEBUPolygonalData@12@0PEBVSupportLocal@12@1PEAVPersistentContact@12@AEAIAEBT__m128@@444MM_NPEAVPxRenderOutput@2@M@Z 0000000180140f30 f   GuPCMContactGenBoxConvex.obj
 0001:00141f00       ?computeMTD@Gu@physx@@YA_NAEBVCapsuleV@12@AEBUPolygonalData@12@PEBVSupportLocal@12@AEAT__m128@@3@Z 0000000180142f00 f   GuPCMContactGenSphereCapsule.obj
 0001:00141ff0       ?generateCapsuleBoxFullContactManifold@Gu@physx@@YA_NAEBVCapsuleV@12@AEBUPolygonalData@12@PEBVSupportLocal@12@AEBVPxMatTransformV@aos@2@PEAVPersistentContact@12@AEAIAEBT__m128@@AEAT9@6M_NMPEAVPxRenderOutput@2@@Z 0000000180142ff0 f   GuPCMContactGenSphereCapsule.obj
 0001:00142190       ?generateFullContactManifold@Gu@physx@@YA_NAEBVCapsuleV@12@AEBUPolygonalData@12@PEBVSupportLocal@12@AEBVPxMatTransformV@aos@2@PEAVPersistentContact@12@AEAIAEBT__m128@@AEAT9@6M_NM@Z 0000000180143190 f   GuPCMContactGenSphereCapsule.obj
 0001:00142380       ?generateSphereFullContactManifold@Gu@physx@@YA_NAEBVCapsuleV@12@AEBUPolygonalData@12@PEBVSupportLocal@12@PEAVPersistentContact@12@AEAIAEBT__m128@@AEAT7@_N@Z 0000000180143380 f   GuPCMContactGenSphereCapsule.obj
 0001:001438d0       ?pcmContactPlaneBox@Gu@physx@@YA_NAEBVPxGeometry@2@0AEBUPxTransformPadded@2@1AEBUNarrowPhaseParams@12@AEAUCache@12@AEAVPxContactBuffer@2@PEAVPxRenderOutput@2@@Z 00000001801448d0 f   GuPCMContactPlaneBox.obj
 0001:001444b0       ?pcmContactPlaneCapsule@Gu@physx@@YA_NAEBVPxGeometry@2@0AEBUPxTransformPadded@2@1AEBUNarrowPhaseParams@12@AEAUCache@12@AEAVPxContactBuffer@2@PEAVPxRenderOutput@2@@Z 00000001801454b0 f   GuPCMContactPlaneCapsule.obj
 0001:00144c40       ?pcmContactPlaneConvex@Gu@physx@@YA_NAEBVPxGeometry@2@0AEBUPxTransformPadded@2@1AEBUNarrowPhaseParams@12@AEAUCache@12@AEAVPxContactBuffer@2@PEAVPxRenderOutput@2@@Z 0000000180145c40 f   GuPCMContactPlaneConvex.obj
 0001:00145880       ?pcmContactSphereBox@Gu@physx@@YA_NAEBVPxGeometry@2@0AEBUPxTransformPadded@2@1AEBUNarrowPhaseParams@12@AEAUCache@12@AEAVPxContactBuffer@2@PEAVPxRenderOutput@2@@Z 0000000180146880 f   GuPCMContactSphereBox.obj
 0001:00145ce0       ?pcmContactSphereCapsule@Gu@physx@@YA_NAEBVPxGeometry@2@0AEBUPxTransformPadded@2@1AEBUNarrowPhaseParams@12@AEAUCache@12@AEAVPxContactBuffer@2@PEAVPxRenderOutput@2@@Z 0000000180146ce0 f   GuPCMContactSphereCapsule.obj
 0001:00146150       ?pcmContactSphereConvex@Gu@physx@@YA_NAEBVPxGeometry@2@0AEBUPxTransformPadded@2@1AEBUNarrowPhaseParams@12@AEAUCache@12@AEAVPxContactBuffer@2@PEAVPxRenderOutput@2@@Z 0000000180147150 f   GuPCMContactSphereConvex.obj
 0001:00146ec0       ??1?$PxArray@USortedTriangle@Gu@physx@@V?$PxInlineAllocator@$0IAA@V?$PxReflectionAllocator@USortedTriangle@Gu@physx@@@physx@@@3@@physx@@QEAA@XZ 0000000180147ec0 f i GuPCMContactSphereHeightField.obj
 0001:00146f80       ?pcmContactSphereHeightField@Gu@physx@@YA_NAEBVPxGeometry@2@0AEBUPxTransformPadded@2@1AEBUNarrowPhaseParams@12@AEAUCache@12@AEAVPxContactBuffer@2@PEAVPxRenderOutput@2@@Z 0000000180147f80 f   GuPCMContactSphereHeightField.obj
 0001:00148000       ??$PxSort@USortedTriangle@Gu@physx@@U?$PxLess@USortedTriangle@Gu@physx@@@3@V?$PxReflectionAllocator@USortedTriangle@Gu@physx@@@3@@physx@@YAXPEAUSortedTriangle@Gu@0@IAEBU?$PxLess@USortedTriangle@Gu@physx@@@0@AEBV?$PxReflectionAllocator@USortedTriangle@Gu@physx@@@0@I@Z 0000000180149000 f i GuPCMContactSphereMesh.obj
 0001:00148520       ??$processTriangleCache@$0BA@VPCMSphereVsMeshContactGeneration@Gu@physx@@@PCMMeshContactGeneration@Gu@physx@@QEAA_NAEAU?$TriangleCache@$0BA@@12@@Z 0000000180149520 f i GuPCMContactSphereMesh.obj
 0001:001489f0       ?addToPatch@PCMSphereVsMeshContactGeneration@Gu@physx@@QEAAXAEBT__m128@@0T4@I@Z 00000001801499f0 f   GuPCMContactSphereMesh.obj
 0001:001490a0       ?allocate@?$PxArray@IV?$PxInlineAllocator@$0PAA@V?$PxReflectionAllocator@I@physx@@@physx@@@physx@@IEAAPEAIIPEAI@Z 000000018014a0a0 f i GuPCMContactSphereMesh.obj
 0001:00149160       ?allocate@?$PxArray@USortedTriangle@Gu@physx@@V?$PxInlineAllocator@$0IAA@V?$PxReflectionAllocator@USortedTriangle@Gu@physx@@@physx@@@3@@physx@@IEAAPEAUSortedTriangle@Gu@2@IPEAI@Z 000000018014a160 f i GuPCMContactSphereMesh.obj
 0001:00149220       ?generateLastContacts@PCMSphereVsMeshContactGeneration@Gu@physx@@QEAAXXZ 000000018014a220 f   GuPCMContactSphereMesh.obj
 0001:00149850       ?growAndPushBack@?$PxArray@USortedTriangle@Gu@physx@@V?$PxInlineAllocator@$0IAA@V?$PxReflectionAllocator@USortedTriangle@Gu@physx@@@physx@@@3@@physx@@IEAAAEAUSortedTriangle@Gu@2@AEBU342@@Z 000000018014a850 f i GuPCMContactSphereMesh.obj
 0001:00149960       ?pcmContactSphereMesh@Gu@physx@@YA_NAEBVPxGeometry@2@0AEBUPxTransformPadded@2@1AEBUNarrowPhaseParams@12@AEAUCache@12@AEAVPxContactBuffer@2@PEAVPxRenderOutput@2@@Z 000000018014a960 f   GuPCMContactSphereMesh.obj
 0001:0014b490       ?processTriangle@PCMSphereVsMeshContactGeneration@Gu@physx@@QEAA_NPEBV?$PxVec3T@M@3@IEPEBI@Z 000000018014c490 f   GuPCMContactSphereMesh.obj
 0001:0014b880       ?recreate@?$PxArray@IV?$PxInlineAllocator@$0PAA@V?$PxReflectionAllocator@I@physx@@@physx@@@physx@@IEAAXI@Z 000000018014c880 f i GuPCMContactSphereMesh.obj
 0001:0014b940       ?pcmContactSpherePlane@Gu@physx@@YA_NAEBVPxGeometry@2@0AEBUPxTransformPadded@2@1AEBUNarrowPhaseParams@12@AEAUCache@12@AEAVPxContactBuffer@2@PEAVPxRenderOutput@2@@Z 000000018014c940 f   GuPCMContactSpherePlane.obj
 0001:0014bac0       ?pcmContactSphereSphere@Gu@physx@@YA_NAEBVPxGeometry@2@0AEBUPxTransformPadded@2@1AEBUNarrowPhaseParams@12@AEAUCache@12@AEAVPxContactBuffer@2@PEAVPxRenderOutput@2@@Z 000000018014cac0 f   GuPCMContactSphereSphere.obj
 0001:0014c360       ?pcmContactGeometryCustomGeometry@Gu@physx@@YA_NAEBVPxGeometry@2@0AEBUPxTransformPadded@2@1AEBUNarrowPhaseParams@12@AEAUCache@12@AEAVPxContactBuffer@2@PEAVPxRenderOutput@2@@Z 000000018014d360 f   GuPCMContactCustomGeometry.obj
 0001:0014c410       ?getPCMConvexData@Gu@physx@@YAXAEBVConvexHullV@12@_NAEAUPolygonalData@12@@Z 000000018014d410 f   GuPCMShapeConvex.obj
 0001:0014c5a0       ?getPCMConvexData@Gu@physx@@YA_NAEBVPxConvexMeshGeometry@2@AEAVFastVertex2ShapeScaling@Cm@2@AEAVPxBounds3@2@AEAUPolygonalData@12@@Z 000000018014d5a0 f   GuPCMShapeConvex.obj
 0001:0014c8b0       ?getPolygonalData@PCMPolygonalBox@Gu@physx@@QEBAXPEIAUPolygonalData@23@@Z 000000018014d8b0 f   GuPCMShapeConvex.obj
 0001:0014c930       ?generatePolyDataContactManifold@PCMConvexVsMeshContactGeneration@Gu@physx@@QEAA_NAEBVTriangleV@23@IIEPEAVMeshPersistentContact@23@AEAIAEBT__m128@@AEAT6@@Z 000000018014d930 f   GuPCMTriangleContactGen.obj
 0001:0014ca50       ?generateTriangleFullContactManifold@PCMConvexVsMeshContactGeneration@Gu@physx@@QEAA_NAEBVTriangleV@23@IPEBIEAEBUPolygonalData@23@PEBV?$SupportLocalImpl@VTriangleV@Gu@physx@@@23@PEBVSupportLocal@23@PEAVMeshPersistentContact@23@AEAIAEBT__m128@@AEAT9@@Z 000000018014da50 f   GuPCMTriangleContactGen.obj
 0001:0014cf80       ?generateTriangleFullContactManifold@PCMConvexVsMeshContactGeneration@Gu@physx@@SA_NAEBVTriangleV@23@IEAEBUPolygonalData@23@PEBV?$SupportLocalImpl@VTriangleV@Gu@physx@@@23@PEBVSupportLocal@23@PEAVMeshPersistentContact@23@AEAIAEBT__m128@@AEAT9@PEAVPxRenderOutput@3@@Z 000000018014df80 f   GuPCMTriangleContactGen.obj
 0001:0014f010       ?addBatchManifoldContacts2@PersistentContactManifold@Gu@physx@@QEAAXPEBVPersistentContact@23@I@Z 0000000180150010 f   GuPersistentContactManifold.obj
 0001:0014f080       ?addBatchManifoldContacts@PersistentContactManifold@Gu@physx@@QEAAXPEBVPersistentContact@23@IM@Z 0000000180150080 f   GuPersistentContactManifold.obj
 0001:0014f100       ?addBatchManifoldContactsCluster@PersistentContactManifold@Gu@physx@@QEAAXPEBVPersistentContact@23@I@Z 0000000180150100 f   GuPersistentContactManifold.obj
 0001:0014f380       ?addManifoldContactPoints@MultiplePersistentContactManifold@Gu@physx@@QEAAXPEAVMeshPersistentContact@23@IPEAPEAUPCMContactPatch@23@IAEBT__m128@@2E@Z 0000000180150380 f   GuPersistentContactManifold.obj
 0001:0014f770       ?addManifoldContactsToContactBuffer@MultiplePersistentContactManifold@Gu@physx@@QEAA_NAEAVPxContactBuffer@3@AEBVPxTransformV@aos@3@1AEBT__m128@@@Z 0000000180150770 f   GuPersistentContactManifold.obj
 0001:0014f9f0       ?addManifoldContactsToContactBuffer@MultiplePersistentContactManifold@Gu@physx@@QEAA_NAEAVPxContactBuffer@3@AEBVPxTransformV@aos@3@@Z 00000001801509f0 f   GuPersistentContactManifold.obj
 0001:0014fc80       ?addManifoldContactsToContactBuffer@PersistentContactManifold@Gu@physx@@QEAAXAEAVPxContactBuffer@3@AEBT__m128@@1AEBVPxTransformV@aos@3@11@Z 0000000180150c80 f   GuPersistentContactManifold.obj
 0001:0014fe10       ?addManifoldContactsToContactBuffer@PersistentContactManifold@Gu@physx@@QEAAXAEAVPxContactBuffer@3@AEBT__m128@@AEBVPxMatTransformV@aos@3@@Z 0000000180150e10 f   GuPersistentContactManifold.obj
 0001:0014fec0       ?addManifoldContactsToContactBuffer@PersistentContactManifold@Gu@physx@@QEAAXAEAVPxContactBuffer@3@AEBT__m128@@AEBVPxTransformV@aos@3@1@Z 0000000180150ec0 f   GuPersistentContactManifold.obj
 0001:00150030       ?addManifoldPoint2@PersistentContactManifold@Gu@physx@@QEAAIAEBT__m128@@000@Z 0000000180151030 f   GuPersistentContactManifold.obj
 0001:00150160       ?addManifoldPoint@Gu@physx@@YAXPEAVPersistentContact@12@AEAVPersistentContactManifold@12@AEAUGjkOutput@12@AEBVPxMatTransformV@aos@2@T__m128@@@Z 0000000180151160 f   GuPersistentContactManifold.obj
 0001:00150310       ?addManifoldPoint@PersistentContactManifold@Gu@physx@@QEAAIAEBT__m128@@000@Z 0000000180151310 f   GuPersistentContactManifold.obj
 0001:00150750       ?drawLine@MultiplePersistentContactManifold@Gu@physx@@SAXAEAVPxRenderOutput@3@AEBT__m128@@1I@Z 0000000180151750 f   GuPersistentContactManifold.obj
 0001:00150800       ?drawLine@MultiplePersistentContactManifold@Gu@physx@@SAXAEAVPxRenderOutput@3@V?$PxVec3T@M@3@1I@Z 0000000180151800 f   GuPersistentContactManifold.obj
 0001:00150870       ?drawManifold@MultiplePersistentContactManifold@Gu@physx@@QEBAXAEAVPxRenderOutput@3@AEBVPxTransformV@aos@3@1@Z 0000000180151870 f   GuPersistentContactManifold.obj
 0001:00150ef0       ?drawPoint@MultiplePersistentContactManifold@Gu@physx@@SAXAEAVPxRenderOutput@3@AEBT__m128@@MI@Z 0000000180151ef0 f   GuPersistentContactManifold.obj
 0001:00151100       ?drawPolygon@MultiplePersistentContactManifold@Gu@physx@@SAXAEAVPxRenderOutput@3@AEBVPxTransformV@aos@3@PEAT__m128@@II@Z 0000000180152100 f   GuPersistentContactManifold.obj
 0001:001512c0       ?findRotationMatrixFromZAxis@Gu@physx@@YA?AUMat33V@aos@2@AEBT__m128@@@Z 00000001801522c0 f   GuPersistentContactManifold.obj
 0001:00151550       ?fromBuffer@MultiplePersistentContactManifold@Gu@physx@@QEAAXPEIAE@Z 0000000180152550 f   GuPersistentContactManifold.obj
 0001:001516b0       ?reduceBatchContacts2@PersistentContactManifold@Gu@physx@@QEAAXPEBVPersistentContact@23@I@Z 00000001801526b0 f   GuPersistentContactManifold.obj
 0001:001518b0       ?reduceBatchContacts@PersistentContactManifold@Gu@physx@@QEAAXPEBVPersistentContact@23@IM@Z 00000001801528b0 f   GuPersistentContactManifold.obj
 0001:00151d80       ?reduceBatchContactsCapsule@SinglePersistentContactManifold@Gu@physx@@QEAA?AT__m128@@PEBVMeshPersistentContact@23@IAEAUPCMContactPatch@23@@Z 0000000180152d80 f   GuPersistentContactManifold.obj
 0001:00152010       ?reduceBatchContactsCluster@PersistentContactManifold@Gu@physx@@QEAAXPEBVPersistentContact@23@I@Z 0000000180153010 f   GuPersistentContactManifold.obj
 0001:001524a0       ?reduceBatchContactsConvex@SinglePersistentContactManifold@Gu@physx@@QEAA?AT__m128@@PEBVMeshPersistentContact@23@IAEAUPCMContactPatch@23@@Z 00000001801534a0 f   GuPersistentContactManifold.obj
 0001:00152a90       ?reduceContacts@SinglePersistentContactManifold@Gu@physx@@SAIPEAVMeshPersistentContact@23@I@Z 0000000180153a90 f   GuPersistentContactManifold.obj
 0001:00153020       ?reduceContactsForPCM@PersistentContactManifold@Gu@physx@@QEAAIAEBT__m128@@00@Z 0000000180154020 f   GuPersistentContactManifold.obj
 0001:001535b0       ?refreshContactPoints@SinglePersistentContactManifold@Gu@physx@@QEAA?AT__m128@@AEBVPxMatTransformV@aos@3@AEBT4@1@Z 00000001801545b0 f   GuPersistentContactManifold.obj
 0001:00153710       ?replaceManifoldPoint@PersistentContactManifold@Gu@physx@@QEAA_NAEBT__m128@@000@Z 0000000180154710 f   GuPersistentContactManifold.obj
 0001:001537d0       ?toBuffer@MultiplePersistentContactManifold@Gu@physx@@QEBAXPEIAE@Z 00000001801547d0 f   GuPersistentContactManifold.obj
 0001:001538b0       ?contains@Gu@physx@@YA_NPEAT__m128@@IAEBT3@11@Z 00000001801548b0 f   GuPCMContactGenUtil.obj
 0001:00153a70       ?getPolygonIndex@Gu@physx@@YAHAEBUPolygonalData@12@PEBVSupportLocal@12@AEBT__m128@@AEAH@Z 0000000180154a70 f   GuPCMContactGenUtil.obj
 0001:00153d10       ?getWitnessPolygonIndex@Gu@physx@@YAIAEBUPolygonalData@12@PEBVSupportLocal@12@AEBT__m128@@2M@Z 0000000180154d10 f   GuPCMContactGenUtil.obj
 0001:00154340       ?sweepBoxBox@Gu@physx@@YA_NAEBVBox@12@0AEBV?$PxVec3T@M@2@MV?$PxFlags@W4Enum@PxHitFlag@physx@@G@2@AEAUPxGeomSweepHit@2@@Z 0000000180155340 f   GuSweepBoxBox.obj
 0001:00155180       ?sweepBoxSphere@Gu@physx@@YA_NAEBVBox@12@MAEBV?$PxVec3T@M@2@1MAEAMAEAV42@V?$PxFlags@W4Enum@PxHitFlag@physx@@G@2@@Z 0000000180156180 f   GuSweepBoxSphere.obj
 0001:00155e60       ?sweepBoxTriangle@Gu@physx@@YA_NAEBVPxTriangle@2@AEBVPxBounds3@2@AEBV?$PxVec3T@M@2@2AEAV52@3AEAM_N@Z 0000000180156e60 f   GuSweepBoxTriangle_FeatureBased.obj
 0001:00157560       ?triBoxSweepTestBoxSpace@Gu@physx@@YAHAEBVPxTriangle@2@AEBV?$PxVec3T@M@2@11MAEAM_N@Z 0000000180158560 f   GuSweepBoxTriangle_SAT.obj
 0001:00158ea0       ?sweepCapsuleBox@Gu@physx@@YA_NAEBVCapsule@12@AEBV?$PxTransformT@M@2@AEBV?$PxVec3T@M@2@2MAEAV52@AEAM3V?$PxFlags@W4Enum@PxHitFlag@physx@@G@2@@Z 0000000180159ea0 f   GuSweepCapsuleBox.obj
 0001:001591f0       ?distancePointSegmentSquared@Gu@physx@@YAMAEBVSegment@12@AEBV?$PxVec3T@M@2@PEAM@Z 000000018015a1f0 f i GuSweepCapsuleCapsule.obj
 0001:00159300       ?edgeEdgeDist@@YAXAEAV?$PxVec3T@M@physx@@0AEBV12@111@Z 000000018015a300 f   GuSweepCapsuleCapsule.obj
 0001:001595a0       ?sweepCapsuleCapsule@Gu@physx@@YA_NAEBVCapsule@12@0AEBV?$PxVec3T@M@2@MAEAMAEAV42@3IAEAG@Z 000000018015a5a0 f   GuSweepCapsuleCapsule.obj
 0001:0015a380       ?sweepCapsuleTriangles_Precise@Gu@physx@@YA_NIPEIBVPxTriangle@2@AEBVCapsule@12@AEBV?$PxVec3T@M@2@MPEIBIAEAUPxGeomSweepHit@2@AEAV52@V?$PxFlags@W4Enum@PxHitFlag@physx@@G@2@_NPEBVBoxPadded@12@@Z 000000018015b380 f   GuSweepCapsuleTriangle.obj
 0001:0015c440       ?sweepSphereCapsule@Gu@physx@@YA_NAEBVSphere@12@AEBVCapsule@12@AEBV?$PxVec3T@M@2@MAEAMAEAV52@4V?$PxFlags@W4Enum@PxHitFlag@physx@@G@2@@Z 000000018015d440 f   GuSweepSphereCapsule.obj
 0001:0015cae0       ?sweepSphereSphere@Gu@physx@@YA_NAEBV?$PxVec3T@M@2@M0M0AEAMAEAV32@@Z 000000018015dae0 f   GuSweepSphereSphere.obj
 0001:0015cd50       ?sweepSphereTriangles@Gu@physx@@YA_NIPEIBVPxTriangle@2@AEBV?$PxVec3T@M@2@M1MPEIBIAEAUPxGeomSweepHit@2@AEAV42@_N555@Z 000000018015dd50 f   GuSweepSphereTriangle.obj
 0001:0015d5f0       ?sweepSphereVSQuad@Gu@physx@@YA_NPEIBV?$PxVec3T@M@2@AEBV32@1M1AEAM@Z 000000018015e5f0 f   GuSweepSphereTriangle.obj
 0001:0015e5d0       ?sweepSphereVSTri@Gu@physx@@YA_NPEIBV?$PxVec3T@M@2@AEBV32@1M1AEAMAEA_N_N@Z 000000018015f5d0 f   GuSweepSphereTriangle.obj
 0001:0015f230       ??$gjk@U?$LocalConvex@VTriangleV@Gu@physx@@@Gu@physx@@U?$LocalConvex@VBoxV@Gu@physx@@@23@@Gu@physx@@YA?AW4GjkStatus@01@AEBU?$LocalConvex@VTriangleV@Gu@physx@@@01@AEBU?$LocalConvex@VBoxV@Gu@physx@@@01@AEBT__m128@@2AEAT5@333@Z 0000000180160230 f i GuSweepTriangleUtils.obj
 0001:0015fe80       ?computeBoxTriImpactData@Gu@physx@@YAXAEAV?$PxVec3T@M@2@0AEBV32@1AEBVPxTriangle@2@M@Z 0000000180160e80 f   GuSweepTriangleUtils.obj
 0001:00160190       ?computeEdgeEdgeNormal@Gu@physx@@YAXAEAV?$PxVec3T@M@2@AEBV32@1111M@Z 0000000180161190 f   GuSweepTriangleUtils.obj
 0001:00160460       ?computeSphereTriImpactData@Gu@physx@@YAXAEAV?$PxVec3T@M@2@0AEBV32@1MAEBVPxTriangle@2@@Z 0000000180161460 f   GuSweepTriangleUtils.obj
 0001:001609e0       ??0ShapeData@Gu@physx@@QEAA@AEBVPxGeometry@2@AEBV?$PxTransformT@M@2@M@Z 00000001801619e0 f   GuBounds.obj
 0001:00160f40       ?computeBounds@Gu@physx@@YAXAEAVPxBounds3@2@AEBVPxGeometry@2@AEBV?$PxTransformT@M@2@MM@Z 0000000180161f40 f   GuBounds.obj
 0001:00161ad0       ?computeBoundsAroundVertices@Gu@physx@@YAXAEAVPxBounds3@2@IPEIBV?$PxVec3T@M@2@@Z 0000000180162ad0 f   GuBounds.obj
 0001:00161b60       ?computeGlobalBox@Gu@physx@@YAXAEAVPxBounds3@2@IPEIBV32@PEIBI@Z 0000000180162b60 f   GuBounds.obj
 0001:00161bd0       ?computeLocalBoundsAndGeomEpsilon@Gu@physx@@YAXPEBV?$PxVec3T@M@2@IAEAVPxBounds3@2@AEAM@Z 0000000180162bd0 f   GuBounds.obj
 0001:00162cf0       ?computeTightBounds@Gu@physx@@YAXAEAVPxBounds3@2@IPEIBV?$PxVec3T@M@2@AEBV?$PxTransformT@M@2@AEBVPxMeshScale@2@MM@Z 0000000180163cf0 f   GuBounds.obj
 0001:001631b0       ??0AABBTree@Gu@physx@@QEAA@XZ 00000001801641b0 f   GuAABBTree.obj
 0001:001631e0       ??0BVHPartialRefitData@Gu@physx@@QEAA@XZ 00000001801641e0 f   GuAABBTree.obj
 0001:00163210       ??0NodeAllocator@Gu@physx@@QEAA@XZ 0000000180164210 f   GuAABBTree.obj
 0001:00163230       ??1AABBTree@Gu@physx@@QEAA@XZ 0000000180164230 f   GuAABBTree.obj
 0001:00163250       ??1BVHPartialRefitData@Gu@physx@@QEAA@XZ 0000000180164250 f   GuAABBTree.obj
 0001:001632f0       ??1NodeAllocator@Gu@physx@@QEAA@XZ 00000001801642f0 f   GuAABBTree.obj
 0001:00163340       ?addRuntimeChilds@AABBTree@Gu@physx@@AEAAXAEAIAEBVAABBTreeMergeData@23@@Z 0000000180164340 f   GuAABBTree.obj
 0001:00163440       ?allocate@?$PxArray@PEAVAABBTreeBuildNode@Gu@physx@@V?$PxInlineAllocator@$0IAA@V?$PxReflectionAllocator@PEAVAABBTreeBuildNode@Gu@physx@@@physx@@@3@@physx@@IEAAPEAPEAVAABBTreeBuildNode@Gu@2@IPEAI@Z 0000000180164440 f i GuAABBTree.obj
 0001:00163500       ?build@AABBTree@Gu@physx@@QEAA_NAEBVAABBTreeBuildParams@23@AEAVNodeAllocator@23@@Z 0000000180164500 f   GuAABBTree.obj
 0001:001635b0       ?buildAABBTree@Gu@physx@@YAPEAIAEBVAABBTreeBuildParams@12@AEAVNodeAllocator@12@AEAUBuildStats@12@@Z 00000001801645b0 f   GuAABBTree.obj
 0001:00163620       ?buildAABBTree@Gu@physx@@YAXIAEBVAABBTreeBounds@12@AEAV?$PxArray@UBVHNode@Gu@physx@@V?$PxReflectionAllocator@UBVHNode@Gu@physx@@@3@@2@@Z 0000000180164620 f   GuAABBTree.obj
 0001:001637f0       ?buildEnd@AABBTree@Gu@physx@@AEAAXAEBVAABBTreeBuildParams@23@AEAVNodeAllocator@23@AEBUBuildStats@23@@Z 00000001801647f0 f   GuAABBTree.obj
 0001:00163c70       ?createUpdateMap@BVHPartialRefitData@Gu@physx@@QEAAXI@Z 0000000180164c70 f   GuAABBTree.obj
 0001:00163d90       ?flattenTree@Gu@physx@@YAXAEBVNodeAllocator@12@PEAUBVHNode@12@PEBI@Z 0000000180164d90 f   GuAABBTree.obj
 0001:00163f90       ?fullRefit@BVHCoreData@Gu@physx@@QEAAXPEBVPxBounds3@3@@Z 0000000180164f90 f   GuAABBTree.obj
 0001:00164070       ?getBiNode@NodeAllocator@Gu@physx@@QEAAPEAVAABBTreeBuildNode@23@XZ 0000000180165070 f   GuAABBTree.obj
 0001:00164190       ?getParentIndices@BVHPartialRefitData@Gu@physx@@IEAAPEAIXZ 0000000180165190 f   GuAABBTree.obj
 0001:00164220       ?growAndPushBack@?$PxArray@PEAVAABBTreeBuildNode@Gu@physx@@V?$PxReflectionAllocator@PEAVAABBTreeBuildNode@Gu@physx@@@3@@physx@@IEAAAEAPEAVAABBTreeBuildNode@Gu@2@AEBQEAV342@@Z 0000000180165220 f i GuAABBTree.obj
 0001:00164340       ?growAndPushBack@?$PxArray@USlab@NodeAllocator@Gu@physx@@V?$PxReflectionAllocator@USlab@NodeAllocator@Gu@physx@@@4@@physx@@IEAAAEAUSlab@NodeAllocator@Gu@2@AEBU3452@@Z 0000000180165340 f i GuAABBTree.obj
 0001:00164460       ?init@AABBTreeBounds@Gu@physx@@QEAAXIPEBVPxBounds3@3@@Z 0000000180165460 f   GuAABBTree.obj
 0001:00164520       ?init@NodeAllocator@Gu@physx@@QEAAXII@Z 0000000180165520 f   GuAABBTree.obj
 0001:00164860       ?initTree@AABBTree@Gu@physx@@QEAAXAEBVAABBTreeMergeData@23@@Z 0000000180165860 f   GuAABBTree.obj
 0001:00164990       ?markNodeForRefit@BVHPartialRefitData@Gu@physx@@QEAAXI@Z 0000000180165990 f   GuAABBTree.obj
 0001:00164aa0       ?mergeRuntimeLeaf@AABBTree@Gu@physx@@AEAAXAEAUBVHNode@23@AEBVAABBTreeMergeData@23@I@Z 0000000180165aa0 f   GuAABBTree.obj
 0001:00164cf0       ?mergeRuntimeNode@AABBTree@Gu@physx@@AEAAXAEAUBVHNode@23@AEBVAABBTreeMergeData@23@I@Z 0000000180165cf0 f   GuAABBTree.obj
 0001:00165010       ?mergeTree@AABBTree@Gu@physx@@QEAAXAEBVAABBTreeMergeData@23@@Z 0000000180166010 f   GuAABBTree.obj
 0001:001652b0       ?progressiveBuild@AABBTree@Gu@physx@@QEAAIAEBVAABBTreeBuildParams@23@AEAVNodeAllocator@23@AEAUBuildStats@23@II@Z 00000001801662b0 f   GuAABBTree.obj
 0001:00165560       ?recreate@?$PxArray@PEAVAABBTreeBuildNode@Gu@physx@@V?$PxInlineAllocator@$0IAA@V?$PxReflectionAllocator@PEAVAABBTreeBuildNode@Gu@physx@@@physx@@@3@@physx@@IEAAXI@Z 0000000180166560 f i GuAABBTree.obj
 0001:00165620       ?refitMarkedNodes@BVHPartialRefitData@Gu@physx@@QEAAXPEBVPxBounds3@3@@Z 0000000180166620 f   GuAABBTree.obj
 0001:00165790       ?release@AABBTree@Gu@physx@@QEAAX_N@Z 0000000180166790 f   GuAABBTree.obj
 0001:00165880       ?release@AABBTreeBounds@Gu@physx@@QEAAXXZ 0000000180166880 f   GuAABBTree.obj
 0001:001658d0       ?release@NodeAllocator@Gu@physx@@QEAAXXZ 00000001801668d0 f   GuAABBTree.obj
 0001:00165980       ?releasePartialRefitData@BVHPartialRefitData@Gu@physx@@QEAAX_N@Z 0000000180166980 f   GuAABBTree.obj
 0001:00165a10       ?reshuffle@Gu@physx@@YAIIQEIAIPEIBV?$PxVec3T@M@2@MI@Z 0000000180166a10 f   GuAABBTree.obj
 0001:00165b50       ?resize@?$PxArray@USlab@NodeAllocator@Gu@physx@@V?$PxReflectionAllocator@USlab@NodeAllocator@Gu@physx@@@4@@physx@@QEAAXIAEBUSlab@NodeAllocator@Gu@2@@Z 0000000180166b50 f i GuAABBTree.obj
 0001:00165bd0       ?resize@AABBTreeBounds@Gu@physx@@QEAAXII@Z 0000000180166bd0 f   GuAABBTree.obj
 0001:00165c70       ?resizeUninitialized@?$PxArray@PEAVAABBTreeBuildNode@Gu@physx@@V?$PxInlineAllocator@$0IAA@V?$PxReflectionAllocator@PEAVAABBTreeBuildNode@Gu@physx@@@physx@@@3@@physx@@QEAAXI@Z 0000000180166c70 f i GuAABBTree.obj
 0001:00165cc0       ?shiftIndices@AABBTree@Gu@physx@@QEAAXI@Z 0000000180166cc0 f   GuAABBTree.obj
 0001:00165ce0       ?shiftOrigin@AABBTree@Gu@physx@@QEAAXAEBV?$PxVec3T@M@3@@Z 0000000180166ce0 f   GuAABBTree.obj
 0001:00165f70       ?subdivide@AABBTreeBuildNode@Gu@physx@@QEAAXAEBVAABBTreeBuildParams@23@AEAUBuildStats@23@AEAVNodeAllocator@23@QEAI@Z 0000000180166f70 f   GuAABBTree.obj
 0001:00166150       ?subdivideSAH@AABBTreeBuildNode@Gu@physx@@QEAAXAEBVAABBTreeBuildParams@23@AEAUSAH_Buffers@23@AEAUBuildStats@23@AEAVNodeAllocator@23@QEAI@Z 0000000180167150 f   GuAABBTree.obj
 0001:00166240       ?traverseRuntimeNode@AABBTree@Gu@physx@@AEAAXAEAUBVHNode@23@AEBVAABBTreeMergeData@23@I@Z 0000000180167240 f   GuAABBTree.obj
 0001:00166370       ?initMap@AABBTreeUpdateMap@Gu@physx@@QEAAXIAEBVAABBTree@23@@Z 0000000180167370 f   GuAABBTreeUpdateMap.obj
 0001:00166500       ?invalidate@AABBTreeUpdateMap@Gu@physx@@QEAAXIIAEAVAABBTree@23@@Z 0000000180167500 f   GuAABBTreeUpdateMap.obj
 0001:001667b0       ?visualizeTree@@YAXAEAVPxRenderOutput@physx@@IPEBVAABBTree@Gu@2@@Z 00000001801677b0 f   GuSqInternal.obj
 0001:00166820       ?visualizeTree@@YAXAEAVPxRenderOutput@physx@@IPEBVBVH@Gu@2@@Z 0000000180167820 f   GuSqInternal.obj
 0001:00166890       ?visualizeTree@@YAXAEAVPxRenderOutput@physx@@IPEBVIncrementalAABBTree@Gu@2@PEAVDebugVizCallback@2@@Z 0000000180167890 f   GuSqInternal.obj
 0001:00166910       ??$PxSort@PEAXU?$PxLess@PEAX@physx@@V?$PxReflectionAllocator@UAABBTreeIndices@Gu@physx@@@2@@physx@@YAXPEAPEAXIAEBU?$PxLess@PEAX@0@AEBV?$PxReflectionAllocator@UAABBTreeIndices@Gu@physx@@@0@I@Z 0000000180167910 f i GuIncrementalAABBTree.obj
 0001:00166d70       ??$PxSort@PEAXU?$PxLess@PEAX@physx@@V?$PxReflectionAllocator@UIncrementalAABBTreeNodePair@Gu@physx@@@2@@physx@@YAXPEAPEAXIAEBU?$PxLess@PEAX@0@AEBV?$PxReflectionAllocator@UIncrementalAABBTreeNodePair@Gu@physx@@@0@I@Z 0000000180167d70 f i GuIncrementalAABBTree.obj
 0001:001671d0       ??0IncrementalAABBTree@Gu@physx@@QEAA@XZ 00000001801681d0 f   GuIncrementalAABBTree.obj
 0001:00167250       ??1?$PxPoolBase@UAABBTreeIndices@Gu@physx@@V?$PxReflectionAllocator@UAABBTreeIndices@Gu@physx@@@3@@physx@@QEAA@XZ 0000000180168250 f i GuIncrementalAABBTree.obj
 0001:001673b0       ??1?$PxPoolBase@UIncrementalAABBTreeNodePair@Gu@physx@@V?$PxReflectionAllocator@UIncrementalAABBTreeNodePair@Gu@physx@@@3@@physx@@QEAA@XZ 00000001801683b0 f i GuIncrementalAABBTree.obj
 0001:00167510       ??1IncrementalAABBTree@Gu@physx@@QEAA@XZ 0000000180168510 f   GuIncrementalAABBTree.obj
 0001:00167550       ?allocate@?$PxPoolBase@UAABBTreeIndices@Gu@physx@@V?$PxReflectionAllocator@UAABBTreeIndices@Gu@physx@@@3@@physx@@QEAAPEAUAABBTreeIndices@Gu@2@XZ 0000000180168550 f i GuIncrementalAABBTree.obj
 0001:00167640       ?allocate@?$PxPoolBase@UIncrementalAABBTreeNodePair@Gu@physx@@V?$PxReflectionAllocator@UIncrementalAABBTreeNodePair@Gu@physx@@@3@@physx@@QEAAPEAUIncrementalAABBTreeNodePair@Gu@2@XZ 0000000180168640 f i GuIncrementalAABBTree.obj
 0001:00167730       ?build@IncrementalAABBTree@Gu@physx@@QEAA_NAEBVAABBTreeBuildParams@23@AEAV?$PxArray@PEAVIncrementalAABBTreeNode@Gu@physx@@V?$PxReflectionAllocator@PEAVIncrementalAABBTreeNode@Gu@physx@@@3@@3@@Z 0000000180168730 f   GuIncrementalAABBTree.obj
 0001:00167920       ?clone@IncrementalAABBTree@Gu@physx@@AEAAXAEAV?$PxArray@PEAVIncrementalAABBTreeNode@Gu@physx@@V?$PxReflectionAllocator@PEAVIncrementalAABBTreeNode@Gu@physx@@@3@@3@PEBIPEAPEAVIncrementalAABBTreeNode@23@@Z 0000000180168920 f   GuIncrementalAABBTree.obj
 0001:00167e30       ?copy@IncrementalAABBTree@Gu@physx@@QEAAXAEBVBVH@23@AEAV?$PxArray@PEAVIncrementalAABBTreeNode@Gu@physx@@V?$PxReflectionAllocator@PEAVIncrementalAABBTreeNode@Gu@physx@@@3@@3@@Z 0000000180168e30 f   GuIncrementalAABBTree.obj
 0001:00167ee0       ?copyNode@IncrementalAABBTree@Gu@physx@@AEAAXAEAVIncrementalAABBTreeNode@23@AEBUBVHNode@23@PEBU523@PEAV423@PEBIAEAV?$PxArray@PEAVIncrementalAABBTreeNode@Gu@physx@@V?$PxReflectionAllocator@PEAVIncrementalAABBTreeNode@Gu@physx@@@3@@3@@Z 0000000180168ee0 f   GuIncrementalAABBTree.obj
 0001:00168090       ?fixupTreeIndices@IncrementalAABBTree@Gu@physx@@QEAAXPEAVIncrementalAABBTreeNode@23@II@Z 0000000180169090 f   GuIncrementalAABBTree.obj
 0001:001680c0       ?getTreeLeafDepth@IncrementalAABBTree@Gu@physx@@QEAAIPEAVIncrementalAABBTreeNode@23@@Z 00000001801690c0 f   GuIncrementalAABBTree.obj
 0001:001680e0       ?growAndPushBack@?$PxArray@PEAVIncrementalAABBTreeNode@Gu@physx@@V?$PxReflectionAllocator@PEAVIncrementalAABBTreeNode@Gu@physx@@@3@@physx@@IEAAAEAPEAVIncrementalAABBTreeNode@Gu@2@AEBQEAV342@@Z 00000001801690e0 f i GuIncrementalAABBTree.obj
 0001:00168200       ?growAndPushBack@?$PxArray@PEAXV?$PxReflectionAllocator@UAABBTreeIndices@Gu@physx@@@physx@@@physx@@IEAAAEAPEAXAEBQEAX@Z 0000000180169200 f i GuIncrementalAABBTree.obj
 0001:00168320       ?growAndPushBack@?$PxArray@PEAXV?$PxReflectionAllocator@UIncrementalAABBTreeNodePair@Gu@physx@@@physx@@@physx@@IEAAAEAPEAXAEBQEAX@Z 0000000180169320 f i GuIncrementalAABBTree.obj
 0001:00168440       ?hierarchyCheck@IncrementalAABBTree@Gu@physx@@QEAAXIPEBVPxBounds3@3@@Z 0000000180169440 f   GuIncrementalAABBTree.obj
 0001:00168590       ?hierarchyCheck@IncrementalAABBTree@Gu@physx@@QEAAXPEBVPxBounds3@3@@Z 0000000180169590 f   GuIncrementalAABBTree.obj
 0001:00168700       ?insert@IncrementalAABBTree@Gu@physx@@QEAAPEAVIncrementalAABBTreeNode@23@IPEBVPxBounds3@3@AEAV?$PxArray@PEAVIncrementalAABBTreeNode@Gu@physx@@V?$PxReflectionAllocator@PEAVIncrementalAABBTreeNode@Gu@physx@@@3@@3@@Z 0000000180169700 f   GuIncrementalAABBTree.obj
 0001:00168e10       ?recreate@?$PxArray@PEAXV?$PxReflectionAllocator@UAABBTreeIndices@Gu@physx@@@physx@@@physx@@IEAAXI@Z 0000000180169e10 f i GuIncrementalAABBTree.obj
 0001:00168f00       ?recreate@?$PxArray@PEAXV?$PxReflectionAllocator@UIncrementalAABBTreeNodePair@Gu@physx@@@physx@@@physx@@IEAAXI@Z 0000000180169f00 f i GuIncrementalAABBTree.obj
 0001:00168ff0       ?release@IncrementalAABBTree@Gu@physx@@QEAAXXZ 0000000180169ff0 f   GuIncrementalAABBTree.obj
 0001:00169020       ?releaseNode@IncrementalAABBTree@Gu@physx@@AEAAXPEAVIncrementalAABBTreeNode@23@@Z 000000018016a020 f   GuIncrementalAABBTree.obj
 0001:001690b0       ?remove@IncrementalAABBTree@Gu@physx@@QEAAPEAVIncrementalAABBTreeNode@23@PEAV423@IPEBVPxBounds3@3@@Z 000000018016a0b0 f   GuIncrementalAABBTree.obj
 0001:00169420       ?rotateTree@IncrementalAABBTree@Gu@physx@@AEAAXPEAVIncrementalAABBTreeNode@23@AEAV?$PxArray@PEAVIncrementalAABBTreeNode@Gu@physx@@V?$PxReflectionAllocator@PEAVIncrementalAABBTreeNode@Gu@physx@@@3@@3@IPEBVPxBounds3@3@_N@Z 000000018016a420 f   GuIncrementalAABBTree.obj
 0001:00169d60       ?shiftOrigin@IncrementalAABBTree@Gu@physx@@QEAAXAEBV?$PxVec3T@M@3@@Z 000000018016ad60 f   GuIncrementalAABBTree.obj
 0001:00169dc0       ?splitLeafNode@IncrementalAABBTree@Gu@physx@@AEAAPEAVIncrementalAABBTreeNode@23@PEAV423@IAEBT__m128@@1PEBVPxBounds3@3@@Z 000000018016adc0 f   GuIncrementalAABBTree.obj
 0001:0016a0b0       ?update@IncrementalAABBTree@Gu@physx@@QEAAPEAVIncrementalAABBTreeNode@23@PEAV423@IPEBVPxBounds3@3@AEAV?$PxArray@PEAVIncrementalAABBTreeNode@Gu@physx@@V?$PxReflectionAllocator@PEAVIncrementalAABBTreeNode@Gu@physx@@@3@@3@@Z 000000018016b0b0 f   GuIncrementalAABBTree.obj
 0001:0016a170       ?updateFast@IncrementalAABBTree@Gu@physx@@QEAAPEAVIncrementalAABBTreeNode@23@PEAV423@IPEBVPxBounds3@3@AEAV?$PxArray@PEAVIncrementalAABBTreeNode@Gu@physx@@V?$PxReflectionAllocator@PEAVIncrementalAABBTreeNode@Gu@physx@@@3@@3@@Z 000000018016b170 f   GuIncrementalAABBTree.obj
 0001:0016a3b0       ??0SAH_Buffers@Gu@physx@@QEAA@I@Z 000000018016b3b0 f   GuSAH.obj
 0001:0016a4b0       ??1SAH_Buffers@Gu@physx@@QEAA@XZ 000000018016b4b0 f   GuSAH.obj
 0001:0016a570       ?split@SAH_Buffers@Gu@physx@@QEAA_NAEAIIPEIBIPEIBVPxBounds3@3@PEIBV?$PxVec3T@M@3@@Z 000000018016b570 f   GuSAH.obj
 0001:0016ac30       ??0BVH@Gu@physx@@QEAA@AEBUPxBVHInternalData@2@@Z 000000018016bc30 f   GuBVH.obj
 0001:0016acf0       ??0BVH@Gu@physx@@QEAA@PEAVMeshFactory@12@@Z 000000018016bcf0 f   GuBVH.obj
 0001:0016ad60       ??0BVH@Gu@physx@@QEAA@PEAVMeshFactory@12@AEAVBVHData@12@@Z 000000018016bd60 f   GuBVH.obj
 0001:0016ae10       ??1BVHData@Gu@physx@@QEAA@XZ 000000018016be10 f i GuBVH.obj
 0001:0016e5c4       ??_EBVH@Gu@physx@@WBA@EAAPEAXI@Z 000000018016f5c4 f i GuBVH.obj
 0001:0016e5d0       ??_EBVH@Gu@physx@@UEAAPEAXI@Z 000000018016f5d0 f i GuBVH.obj
 0001:0016e5d0       ??_GBVH@Gu@physx@@UEAAPEAXI@Z 000000018016f5d0 f i GuBVH.obj
 0001:0016e660       ??_ERefCountable@Cm@physx@@UEAAPEAXI@Z 000000018016f660 f i GuBVH.obj
 0001:0016e660       ??_GRefCountable@Cm@physx@@UEAAPEAXI@Z 000000018016f660 f i GuBVH.obj
 0001:0016e890       ?allocate@?$PxArray@PEBUBVHNode@Gu@physx@@V?$PxInlineAllocator@$0IAA@V?$PxReflectionAllocator@PEBUBVHNode@Gu@physx@@@physx@@@3@@physx@@IEAAPEAPEBUBVHNode@Gu@2@IPEAI@Z 000000018016f890 f i GuBVH.obj
 0001:0016e950       ?build@BVHData@Gu@physx@@QEAA_NIPEBXIMIW4BVHBuildStrategy@23@@Z 000000018016f950 f   GuBVH.obj
 0001:0016ed50       ?cull@BVH@Gu@physx@@UEBA_NIPEBVPxPlane@3@AEAUOverlapCallback@PxBVH@3@V?$PxFlags@W4Enum@PxGeometryQueryFlag@physx@@I@3@@Z 000000018016fd50 f   GuBVH.obj
 0001:0016f690       ?getConcreteTypeName@PxBVH@physx@@UEBAPEBDXZ 0000000180170690 f i GuBVH.obj
 0001:0016f6a0       ?init@BVH@Gu@physx@@QEAA_NIPEAVAABBTreeBounds@23@PEBXIW4BVHBuildStrategy@23@IM@Z 00000001801706a0 f   GuBVH.obj
 0001:0016fab0       ?isKindOf@PxBVH@physx@@MEBA_NPEBD@Z 0000000180170ab0 f i GuBVH.obj
 0001:0016fb30       ?load@BVH@Gu@physx@@QEAA_NAEAVPxInputStream@3@@Z 0000000180170b30 f   GuBVH.obj
 0001:0016fcc0       ?onRefCountZero@BVH@Gu@physx@@UEAAXXZ 0000000180170cc0 f   GuBVH.obj
 0001:0016fda0       ?onRefCountZero@RefCountable@Cm@physx@@UEAAXXZ 0000000180170da0 f i GuBVH.obj
 0001:0016fdc0       ?overlap@BVH@Gu@physx@@QEBA_NAEBVShapeData@23@AEAUOverlapCallback@PxBVH@3@V?$PxFlags@W4Enum@PxGeometryQueryFlag@physx@@I@3@@Z 0000000180170dc0 f   GuBVH.obj
 0001:00170340       ?overlap@BVH@Gu@physx@@UEBA_NAEBVPxGeometry@3@AEBV?$PxTransformT@M@3@AEAUOverlapCallback@PxBVH@3@V?$PxFlags@W4Enum@PxGeometryQueryFlag@physx@@I@3@@Z 0000000180171340 f   GuBVH.obj
 0001:001703a0       ?partialRefit@BVH@Gu@physx@@UEAAXXZ 00000001801713a0 f   GuBVH.obj
 0001:001703b0       ?raycast@BVH@Gu@physx@@UEBA_NAEBV?$PxVec3T@M@3@0MAEAURaycastCallback@PxBVH@3@V?$PxFlags@W4Enum@PxGeometryQueryFlag@physx@@I@3@@Z 00000001801713b0 f   GuBVH.obj
 0001:00170490       ?recreate@?$PxArray@PEBUBVHNode@Gu@physx@@V?$PxInlineAllocator@$0IAA@V?$PxReflectionAllocator@PEBUBVHNode@Gu@physx@@@physx@@@3@@physx@@IEAAXI@Z 0000000180171490 f i GuBVH.obj
 0001:00170550       ?refit@BVH@Gu@physx@@UEAAXXZ 0000000180171550 f   GuBVH.obj
 0001:00170560       ?release@BVH@Gu@physx@@UEAAXXZ 0000000180171560 f   GuBVH.obj
 0001:00170590       ?resizeUninitialized@?$PxArray@PEBUBVHNode@Gu@physx@@V?$PxInlineAllocator@$0IAA@V?$PxReflectionAllocator@PEBUBVHNode@Gu@physx@@@physx@@@3@@physx@@QEAAXI@Z 0000000180171590 f i GuBVH.obj
 0001:001705e0       ?save@BVHData@Gu@physx@@QEBA_NAEAVPxOutputStream@3@_N@Z 00000001801715e0 f   GuBVH.obj
 0001:00170750       ?sweep@BVH@Gu@physx@@QEBA_NAEBVShapeData@23@AEBV?$PxVec3T@M@3@MAEAURaycastCallback@PxBVH@3@V?$PxFlags@W4Enum@PxGeometryQueryFlag@physx@@I@3@@Z 0000000180171750 f   GuBVH.obj
 0001:00170920       ?sweep@BVH@Gu@physx@@UEBA_NAEBVPxGeometry@3@AEBV?$PxTransformT@M@3@AEBV?$PxVec3T@M@3@MAEAURaycastCallback@PxBVH@3@V?$PxFlags@W4Enum@PxGeometryQueryFlag@physx@@I@3@@Z 0000000180171920 f   GuBVH.obj
 0001:001709a0       ?traverse@BVH@Gu@physx@@UEBA_NAEAUTraversalCallback@PxBVH@3@@Z 00000001801719a0 f   GuBVH.obj
 0001:00170b10       ?updateBounds@BVH@Gu@physx@@UEAA_NIAEBVPxBounds3@3@@Z 0000000180171b10 f   GuBVH.obj
 0001:00170bc0       ?updateBoundsInternal@BVH@Gu@physx@@QEAA_NIAEBVPxBounds3@3@@Z 0000000180171bc0 f   GuBVH.obj
 0001:00170c70       PxFindOverlap              0000000180171c70 f   GuBVH.obj
 0001:00170d70       PxGetBVHInternalData       0000000180171d70 f   GuBVH.obj
 0001:00170db0       ??0IncrementalAABBPrunerCore@Gu@physx@@QEAA@PEBVPruningPool@12@@Z 0000000180171db0 f   GuIncrementalAABBPrunerCore.obj
 0001:00170ec0       ??1IncrementalAABBPrunerCore@Gu@physx@@QEAA@XZ 0000000180171ec0 f   GuIncrementalAABBPrunerCore.obj
 0001:00171030       ??R?$AABBTreeOverlap@$00U?$OBBAABBTests@$00@Gu@physx@@VIncrementalAABBTree@23@VIncrementalAABBTreeNode@23@UOverlapCallbackAdapter@23@@Gu@physx@@QEAA_NAEBVAABBTreeBounds@12@AEBVIncrementalAABBTree@12@AEBU?$OBBAABBTests@$00@12@AEAUOverlapCallbackAdapter@12@@Z 0000000180172030 f i GuIncrementalAABBPrunerCore.obj
 0001:001715d0       ??R?$AABBTreeOverlap@$00UAABBAABBTest@Gu@physx@@VIncrementalAABBTree@23@VIncrementalAABBTreeNode@23@UOverlapCallbackAdapter@23@@Gu@physx@@QEAA_NAEBVAABBTreeBounds@12@AEBVIncrementalAABBTree@12@AEBUAABBAABBTest@12@AEAUOverlapCallbackAdapter@12@@Z 00000001801725d0 f i GuIncrementalAABBPrunerCore.obj
 0001:00171830       ??R?$AABBTreeOverlap@$00UCapsuleAABBTest@Gu@physx@@VIncrementalAABBTree@23@VIncrementalAABBTreeNode@23@UOverlapCallbackAdapter@23@@Gu@physx@@QEAA_NAEBVAABBTreeBounds@12@AEBVIncrementalAABBTree@12@AEBUCapsuleAABBTest@12@AEAUOverlapCallbackAdapter@12@@Z 0000000180172830 f i GuIncrementalAABBPrunerCore.obj
 0001:00171b70       ??R?$AABBTreeRaycast@$00$00VIncrementalAABBTree@Gu@physx@@VIncrementalAABBTreeNode@23@URaycastCallbackAdapter@23@@Gu@physx@@QEAA_NAEBVAABBTreeBounds@12@AEBVIncrementalAABBTree@12@AEBV?$PxVec3T@M@2@2AEAM2AEAURaycastCallbackAdapter@12@@Z 0000000180172b70 f i GuIncrementalAABBPrunerCore.obj
 0001:00172230       ??R?$AABBTreeRaycast@$0A@$00VIncrementalAABBTree@Gu@physx@@VIncrementalAABBTreeNode@23@URaycastCallbackAdapter@23@@Gu@physx@@QEAA_NAEBVAABBTreeBounds@12@AEBVIncrementalAABBTree@12@AEBV?$PxVec3T@M@2@2AEAM2AEAURaycastCallbackAdapter@12@@Z 0000000180173230 f i GuIncrementalAABBPrunerCore.obj
 0001:00172860       ?addObject@IncrementalAABBPrunerCore@Gu@physx@@QEAA_NII@Z 0000000180173860 f   GuIncrementalAABBPrunerCore.obj
 0001:00172950       ?allocate@?$PxArray@PEBVIncrementalAABBTreeNode@Gu@physx@@V?$PxInlineAllocator@$0IAA@V?$PxReflectionAllocator@PEBVIncrementalAABBTreeNode@Gu@physx@@@physx@@@3@@physx@@IEAAPEAPEBVIncrementalAABBTreeNode@Gu@2@IPEAI@Z 0000000180173950 f i GuIncrementalAABBPrunerCore.obj
 0001:00172a10       ?clear@?$PxHashMapBase@IPEAVIncrementalAABBTreeNode@Gu@physx@@U?$PxHash@I@3@VPxAllocator@3@@physx@@QEAAXXZ 0000000180173a10 f i GuIncrementalAABBPrunerCore.obj
 0001:00172a10       ?clear@?$PxHashMapBase@UPrunerPayload@Gu@physx@@UExtendedBucketPrunerData@23@UExtendedBucketPrunerHash@23@VPxAllocator@3@@physx@@QEAAXXZ 0000000180173a10 f i GuExtendedBucketPruner.obj
 0001:00172aa0       ?create@?$PxHashBase@V?$PxPair@$$CBIPEAVIncrementalAABBTreeNode@Gu@physx@@@physx@@IU?$PxHash@I@2@UGetKey@?$PxHashMapBase@IPEAVIncrementalAABBTreeNode@Gu@physx@@U?$PxHash@I@3@VPxAllocator@3@@2@VPxAllocator@2@$00@physx@@QEAAPEAV?$PxPair@$$CBIPEAVIncrementalAABBTreeNode@Gu@physx@@@2@AEBIAEA_N@Z 0000000180173aa0 f i GuIncrementalAABBPrunerCore.obj
 0001:00172bf0       ?erase@?$PxHashBase@V?$PxPair@$$CBIPEAVIncrementalAABBTreeNode@Gu@physx@@@physx@@IU?$PxHash@I@2@UGetKey@?$PxHashMapBase@IPEAVIncrementalAABBTreeNode@Gu@physx@@U?$PxHash@I@3@VPxAllocator@3@@2@VPxAllocator@2@$00@physx@@QEAA_NAEBIAEAV?$PxPair@$$CBIPEAVIncrementalAABBTreeNode@Gu@physx@@@2@@Z 0000000180173bf0 f i GuIncrementalAABBPrunerCore.obj
 0001:00172d80       ?getCurrentWorldBoxes@PruningPool@Gu@physx@@QEAAPEAVPxBounds3@3@XZ 0000000180173d80 f i GuIncrementalAABBPrunerCore.obj
 0001:00172d80       ?getCurrentWorldBoxes@PruningPool@Gu@physx@@QEBAPEBVPxBounds3@3@XZ 0000000180173d80 f i GuIncrementalAABBPrunerCore.obj
 0001:00172d80       ?getMesh@CollisionTetrahedronMeshData@Gu@physx@@UEAAPEAVPxTetrahedronMeshData@3@XZ 0000000180173d80 f i GuCookingTetrahedronMesh.obj
 0001:00172d80       ?getMesh@CollisionTetrahedronMeshData@Gu@physx@@UEBAPEBVPxTetrahedronMeshData@3@XZ 0000000180173d80 f i GuCookingTetrahedronMesh.obj
 0001:00172d80       ?getMesh@SimulationTetrahedronMeshData@Gu@physx@@UEAAPEAVPxTetrahedronMeshData@3@XZ 0000000180173d80 f i GuCookingTetrahedronMesh.obj
 0001:00172d90       ?getGlobalBounds@IncrementalAABBPrunerCore@Gu@physx@@QEBAXAEAVPxBounds3@3@@Z 0000000180173d90 f   GuIncrementalAABBPrunerCore.obj
 0001:00172eb0       ?getIndex@PruningPool@Gu@physx@@QEBAII@Z 0000000180173eb0 f i GuIncrementalAABBPrunerCore.obj
 0001:00172ec0       ?getPayloadData@PruningPool@Gu@physx@@QEBAAEBUPrunerPayload@23@IPEAUPrunerPayloadData@23@@Z 0000000180173ec0 f i GuIncrementalAABBPrunerCore.obj
 0001:00172f10       ?overlap@IncrementalAABBPrunerCore@Gu@physx@@QEBA_NAEBVShapeData@23@AEAUPrunerOverlapCallback@23@@Z 0000000180173f10 f   GuIncrementalAABBPrunerCore.obj
 0001:00173980       ?raycast@IncrementalAABBPrunerCore@Gu@physx@@QEBA_NAEBV?$PxVec3T@M@3@0AEAMAEAUPrunerRaycastCallback@23@@Z 0000000180174980 f   GuIncrementalAABBPrunerCore.obj
 0001:00173a90       ?recreate@?$PxArray@PEAVIncrementalAABBTreeNode@Gu@physx@@V?$PxReflectionAllocator@PEAVIncrementalAABBTreeNode@Gu@physx@@@3@@physx@@IEAAXI@Z 0000000180174a90 f i GuIncrementalAABBPrunerCore.obj
 0001:00173b80       ?recreate@?$PxArray@PEBVIncrementalAABBTreeNode@Gu@physx@@V?$PxInlineAllocator@$0IAA@V?$PxReflectionAllocator@PEBVIncrementalAABBTreeNode@Gu@physx@@@physx@@@3@@physx@@IEAAXI@Z 0000000180174b80 f i GuIncrementalAABBPrunerCore.obj
 0001:00173c40       ?release@IncrementalAABBPrunerCore@Gu@physx@@QEAAXXZ 0000000180174c40 f   GuIncrementalAABBPrunerCore.obj
 0001:00173d40       ?removeMarkedObjects@IncrementalAABBPrunerCore@Gu@physx@@QEAAII@Z 0000000180174d40 f   GuIncrementalAABBPrunerCore.obj
 0001:00173da0       ?removeObject@IncrementalAABBPrunerCore@Gu@physx@@QEAA_NIIAEAI@Z 0000000180174da0 f   GuIncrementalAABBPrunerCore.obj
 0001:00173fb0       ?reserveInternal@?$PxHashBase@V?$PxPair@$$CBIPEAVIncrementalAABBTreeNode@Gu@physx@@@physx@@IU?$PxHash@I@2@UGetKey@?$PxHashMapBase@IPEAVIncrementalAABBTreeNode@Gu@physx@@U?$PxHash@I@3@VPxAllocator@3@@2@VPxAllocator@2@$00@physx@@AEAAXI@Z 0000000180174fb0 f i GuIncrementalAABBPrunerCore.obj
 0001:00174170       ?resizeUninitialized@?$PxArray@PEBVIncrementalAABBTreeNode@Gu@physx@@V?$PxInlineAllocator@$0IAA@V?$PxReflectionAllocator@PEBVIncrementalAABBTreeNode@Gu@physx@@@physx@@@3@@physx@@QEAAXI@Z 0000000180175170 f i GuIncrementalAABBPrunerCore.obj
 0001:001741c0       ?setTransform@PruningPool@Gu@physx@@QEAA_NIAEBV?$PxTransformT@M@3@@Z 00000001801751c0 f i GuIncrementalAABBPrunerCore.obj
 0001:00174220       ?shiftOrigin@IncrementalAABBPrunerCore@Gu@physx@@QEAAXAEBV?$PxVec3T@M@3@@Z 0000000180175220 f   GuIncrementalAABBPrunerCore.obj
 0001:00174260       ?swapIndex@IncrementalAABBPrunerCore@Gu@physx@@QEAAXII@Z 0000000180175260 f   GuIncrementalAABBPrunerCore.obj
 0001:00174340       ?sweep@IncrementalAABBPrunerCore@Gu@physx@@QEBA_NAEBVShapeData@23@AEBV?$PxVec3T@M@3@AEAMAEAUPrunerRaycastCallback@23@@Z 0000000180175340 f   GuIncrementalAABBPrunerCore.obj
 0001:00174560       ?updateMapping@IncrementalAABBPrunerCore@Gu@physx@@AEAAXAEAV?$PxHashMap@IPEAVIncrementalAABBTreeNode@Gu@physx@@U?$PxHash@I@3@VPxAllocator@3@@3@IPEAVIncrementalAABBTreeNode@23@@Z 0000000180175560 f   GuIncrementalAABBPrunerCore.obj
 0001:001746d0       ?updateObject@IncrementalAABBPrunerCore@Gu@physx@@QEAA_NI@Z 00000001801756d0 f   GuIncrementalAABBPrunerCore.obj
 0001:00174870       ?visualize@IncrementalAABBPrunerCore@Gu@physx@@QEBAXAEAVPxRenderOutput@3@I@Z 0000000180175870 f   GuIncrementalAABBPrunerCore.obj
 0001:001748d0       ??0IncrementalAABBPruner@Gu@physx@@QEAA@I_K@Z 00000001801758d0 f   GuIncrementalAABBPruner.obj
 0001:00174980       ??R?$AABBTreeOverlap@$00USphereAABBTest@Gu@physx@@VIncrementalAABBTree@23@VIncrementalAABBTreeNode@23@UOverlapCallbackAdapter@23@@Gu@physx@@QEAA_NAEBVAABBTreeBounds@12@AEBVIncrementalAABBTree@12@AEBUSphereAABBTest@12@AEAUOverlapCallbackAdapter@12@@Z 0000000180175980 f i GuIncrementalAABBPruner.obj
 0001:00174c50       ??_EBasePruner@Gu@physx@@UEAAPEAXI@Z 0000000180175c50 f i GuIncrementalAABBPruner.obj
 0001:00174c50       ??_GBasePruner@Gu@physx@@UEAAPEAXI@Z 0000000180175c50 f i GuIncrementalAABBPruner.obj
 0001:00174ca0       ??_EIncrementalAABBPruner@Gu@physx@@UEAAPEAXI@Z 0000000180175ca0 f i GuIncrementalAABBPruner.obj
 0001:00174ca0       ??_GIncrementalAABBPruner@Gu@physx@@UEAAPEAXI@Z 0000000180175ca0 f i GuIncrementalAABBPruner.obj
 0001:00174db0       ?addObjects@IncrementalAABBPruner@Gu@physx@@UEAA_NPEAIPEBVPxBounds3@3@PEBUPrunerPayload@23@PEBV?$PxTransformT@M@3@I_N@Z 0000000180175db0 f   GuIncrementalAABBPruner.obj
 0001:00174f60       ?commit@IncrementalAABBPruner@Gu@physx@@UEAAXXZ 0000000180175f60 f   GuIncrementalAABBPruner.obj
 0001:001750b0       ?getGlobalBounds@IncrementalAABBPruner@Gu@physx@@UEBAXAEAVPxBounds3@3@@Z 00000001801760b0 f   GuIncrementalAABBPruner.obj
 0001:00175120       ?getPayloadData@IncrementalAABBPruner@Gu@physx@@UEBAAEBUPrunerPayload@23@IPEAUPrunerPayloadData@23@@Z 0000000180176120 f i GuIncrementalAABBPruner.obj
 0001:00175170       ?overlap@IncrementalAABBPruner@Gu@physx@@UEBA_NAEBVShapeData@23@AEAUPrunerOverlapCallback@23@@Z 0000000180176170 f   GuIncrementalAABBPruner.obj
 0001:00175810       ?preallocate@IncrementalAABBPruner@Gu@physx@@UEAAXI@Z 0000000180176810 f i GuIncrementalAABBPruner.obj
 0001:00175820       ?purge@IncrementalAABBPruner@Gu@physx@@UEAAXXZ 0000000180176820 f   GuIncrementalAABBPruner.obj
 0001:00175870       ?raycast@IncrementalAABBPruner@Gu@physx@@UEBA_NAEBV?$PxVec3T@M@3@0AEAMAEAUPrunerRaycastCallback@23@@Z 0000000180176870 f   GuIncrementalAABBPruner.obj
 0001:001758f0       ?removeObjects@IncrementalAABBPruner@Gu@physx@@UEAAXPEBIIPEAUPrunerPayloadRemovalCallback@23@@Z 00000001801768f0 f   GuIncrementalAABBPruner.obj
 0001:00175a40       ?resize@?$PxArray@PEAVIncrementalAABBTreeNode@Gu@physx@@V?$PxReflectionAllocator@PEAVIncrementalAABBTreeNode@Gu@physx@@@3@@physx@@QEAAXIAEBQEAVIncrementalAABBTreeNode@Gu@2@@Z 0000000180176a40 f i GuIncrementalAABBPruner.obj
 0001:00175b00       ?resizeUninitialized@?$PxArray@PEAVIncrementalAABBTreeNode@Gu@physx@@V?$PxReflectionAllocator@PEAVIncrementalAABBTreeNode@Gu@physx@@@3@@physx@@QEAAXI@Z 0000000180176b00 f i GuIncrementalAABBPruner.obj
 0001:00175b40       ?setTransform@IncrementalAABBPruner@Gu@physx@@UEAA_NIAEBV?$PxTransformT@M@3@@Z 0000000180176b40 f i GuIncrementalAABBPruner.obj
 0001:00175ba0       ?shiftOrigin@IncrementalAABBPruner@Gu@physx@@UEAAXAEBV?$PxVec3T@M@3@@Z 0000000180176ba0 f   GuIncrementalAABBPruner.obj
 0001:00175be0       ?sweep@IncrementalAABBPruner@Gu@physx@@UEBA_NAEBVShapeData@23@AEBV?$PxVec3T@M@3@AEAMAEAUPrunerRaycastCallback@23@@Z 0000000180176be0 f   GuIncrementalAABBPruner.obj
 0001:00175d00       ?updateObjects@IncrementalAABBPruner@Gu@physx@@UEAAXPEBIIM0PEBVPxBounds3@3@PEBUPxTransformPadded@3@@Z 0000000180176d00 f   GuIncrementalAABBPruner.obj
 0001:00175ed0       ?visualize@IncrementalAABBPruner@Gu@physx@@UEBAXAEAVPxRenderOutput@3@II@Z 0000000180176ed0 f   GuIncrementalAABBPruner.obj
 0001:001760c0       ??0PruningPool@Gu@physx@@QEAA@_KW4TransformCacheMode@12@@Z 00000001801770c0 f   GuPruningPool.obj
 0001:001760f0       ??1PruningPool@Gu@physx@@QEAA@XZ 00000001801770f0 f   GuPruningPool.obj
 0001:001761c0       ?addObjects@PruningPool@Gu@physx@@QEAAIPEAIPEBVPxBounds3@3@PEBUPrunerPayload@23@PEBV?$PxTransformT@M@3@I@Z 00000001801771c0 f   GuPruningPool.obj
 0001:00176370       ?preallocate@PruningPool@Gu@physx@@QEAAXI@Z 0000000180177370 f   GuPruningPool.obj
 0001:00176380       ?removeObject@PruningPool@Gu@physx@@QEAAIIPEAUPrunerPayloadRemovalCallback@23@@Z 0000000180177380 f   GuPruningPool.obj
 0001:001764c0       ?resize@PruningPool@Gu@physx@@QEAA_NI@Z 00000001801774c0 f   GuPruningPool.obj
 0001:001767e0       ?shiftOrigin@PruningPool@Gu@physx@@QEAAXAEBV?$PxVec3T@M@3@@Z 00000001801777e0 f   GuPruningPool.obj
 0001:00176bb0       ?updateAndInflateBounds@PruningPool@Gu@physx@@QEAAXPEBI0PEBVPxBounds3@3@PEBUPxTransformPadded@3@IM@Z 0000000180177bb0 f   GuPruningPool.obj
 0001:00178600       ??0BucketPruner@Gu@physx@@QEAA@_K@Z 0000000180179600 f   GuBucketPruner.obj
 0001:00178650       ??0BucketPrunerCore@Gu@physx@@QEAA@_N@Z 0000000180179650 f   GuBucketPruner.obj
 0001:001789e0       ??1BucketPrunerCore@Gu@physx@@QEAA@XZ 00000001801799e0 f   GuBucketPruner.obj
 0001:00178a00       ??R?$BucketPrunerOverlapTraversal@UBucketPrunerAABBAABBTest@@$00@@QEBA_NAEBVBucketPrunerCore@Gu@physx@@AEBUBucketPrunerAABBAABBTest@@AEAUPrunerOverlapCallback@23@AEBVPxBounds3@3@@Z 0000000180179a00 f i GuBucketPruner.obj
 0001:00178f80       ??R?$BucketPrunerOverlapTraversal@UOBBAABBTest_SIMD@@$0A@@@QEBA_NAEBVBucketPrunerCore@Gu@physx@@AEBUOBBAABBTest_SIMD@@AEAUPrunerOverlapCallback@23@AEBVPxBounds3@3@@Z 0000000180179f80 f i GuBucketPruner.obj
 0001:00179780       ??R?$BucketPrunerOverlapTraversal@USphereAABBTest_SIMD@@$00@@QEBA_NAEBVBucketPrunerCore@Gu@physx@@AEBUSphereAABBTest_SIMD@@AEAUPrunerOverlapCallback@23@AEBVPxBounds3@3@@Z 000000018017a780 f i GuBucketPruner.obj
 0001:00179d20       ??_FBucketPrunerCore@Gu@physx@@QEAAXXZ 000000018017ad20 f i GuBucketPruner.obj
 0001:00179d30       ??_EBucketPruner@Gu@physx@@UEAAPEAXI@Z 000000018017ad30 f i GuBucketPruner.obj
 0001:00179d30       ??_GBucketPruner@Gu@physx@@UEAAPEAXI@Z 000000018017ad30 f i GuBucketPruner.obj
 0001:00179dd0       ?addObject@BucketPrunerCore@Gu@physx@@QEAA_NAEBUPrunerPayload@23@AEBVPxBounds3@3@AEBV?$PxTransformT@M@3@I@Z 000000018017add0 f   GuBucketPruner.obj
 0001:0017a0e0       ?addObjects@BucketPruner@Gu@physx@@UEAA_NPEAIPEBVPxBounds3@3@PEBUPrunerPayload@23@PEBV?$PxTransformT@M@3@I_N@Z 000000018017b0e0 f   GuBucketPruner.obj
 0001:0017a170       ?addPair@BucketPrunerMap@Gu@physx@@QEAAPEAUBucketPrunerPair@23@AEBUPrunerPayload@23@II@Z 000000018017b170 f   GuBucketPruner.obj
 0001:0017a360       ?allocateSortedMemory@BucketPrunerCore@Gu@physx@@AEAAXI@Z 000000018017b360 f   GuBucketPruner.obj
 0001:0017a520       ?classifyBoxes@BucketPrunerCore@Gu@physx@@AEAAXXZ 000000018017b520 f   GuBucketPruner.obj
 0001:0017ad00       ?classifyBoxes@BucketPrunerNode@Gu@physx@@QEAAXMMIPEIAUBucketBox@23@PEIBUPrunerPayload@23@PEIBV?$PxTransformT@M@3@0PEIAU523@PEIAV63@_NI@Z 000000018017bd00 f   GuBucketPruner.obj
 0001:0017b560       ?build@CompanionPrunerBucket@@UEAAXXZ 000000018017c560 f   GuSecondaryPruner.obj
 0001:0017b560       ?commit@BucketPruner@Gu@physx@@UEAAXXZ 000000018017c560 f   GuBucketPruner.obj
 0001:0017b570       ?findPair@BucketPrunerMap@Gu@physx@@QEBAPEBUBucketPrunerPair@23@AEBUPrunerPayload@23@@Z 000000018017c570 f   GuBucketPruner.obj
 0001:0017b960       ?getGlobalBounds@BucketPruner@Gu@physx@@UEBAXAEAVPxBounds3@3@@Z 000000018017c960 f   GuBucketPruner.obj
 0001:0017b9d0       ?getGlobalBounds@BucketPrunerCore@Gu@physx@@QEBAXAEAVPxBounds3@3@@Z 000000018017c9d0 f   GuBucketPruner.obj
 0001:0017ba40       ?getPayloadData@BucketPruner@Gu@physx@@UEBAAEBUPrunerPayload@23@IPEAUPrunerPayloadData@23@@Z 000000018017ca40 f i GuBucketPruner.obj
 0001:0017baa0       ?overlap@BucketPruner@Gu@physx@@UEBA_NAEBVShapeData@23@AEAUPrunerOverlapCallback@23@@Z 000000018017caa0 f   GuBucketPruner.obj
 0001:0017bac0       ?overlap@BucketPrunerCore@Gu@physx@@QEBA_NAEBVShapeData@23@AEAUPrunerOverlapCallback@23@@Z 000000018017cac0 f   GuBucketPruner.obj
 0001:0017bdb0       ?preallocate@BucketPruner@Gu@physx@@UEAAXI@Z 000000018017cdb0 f i GuBucketPruner.obj
 0001:0017bf90       ?purge@BucketPrunerMap@Gu@physx@@QEAAXXZ 000000018017cf90 f   GuBucketPruner.obj
 0001:0017c020       ?raycast@BucketPruner@Gu@physx@@UEBA_NAEBV?$PxVec3T@M@3@0AEAMAEAUPrunerRaycastCallback@23@@Z 000000018017d020 f   GuBucketPruner.obj
 0001:0017c070       ?raycast@BucketPrunerCore@Gu@physx@@QEBA_NAEBV?$PxVec3T@M@3@0AEAMAEAUPrunerRaycastCallback@23@@Z 000000018017d070 f   GuBucketPruner.obj
 0001:0017c0b0       ?reallocPairs@BucketPrunerMap@Gu@physx@@QEAAXXZ 000000018017d0b0 f   GuBucketPruner.obj
 0001:0017c2f0       ?release@BucketPrunerCore@Gu@physx@@QEAAXXZ 000000018017d2f0 f   GuBucketPruner.obj
 0001:0017c430       ?removeMarkedObjects@BucketPrunerCore@Gu@physx@@QEAAII@Z 000000018017d430 f   GuBucketPruner.obj
 0001:0017c820       ?removeObject@BucketPrunerCore@Gu@physx@@QEAA_NAEBUPrunerPayload@23@AEAI@Z 000000018017d820 f   GuBucketPruner.obj
 0001:0017cae0       ?removeObjects@BucketPruner@Gu@physx@@UEAAXPEBIIPEAUPrunerPayloadRemovalCallback@23@@Z 000000018017dae0 f   GuBucketPruner.obj
 0001:0017cb90       ?removePair@BucketPrunerMap@Gu@physx@@QEAA_NAEBUPrunerPayload@23@AEAI1@Z 000000018017db90 f   GuBucketPruner.obj
 0001:0017cd10       ?removePairInternal@BucketPrunerMap@Gu@physx@@QEAAXAEBUPrunerPayload@23@II@Z 000000018017dd10 f   GuBucketPruner.obj
 0001:0017ceb0       ?resizeCore@BucketPrunerCore@Gu@physx@@AEAAXXZ 000000018017deb0 f   GuBucketPruner.obj
 0001:0017d100       ?setTransform@BucketPruner@Gu@physx@@UEAA_NIAEBV?$PxTransformT@M@3@@Z 000000018017e100 f i GuBucketPruner.obj
 0001:0017d160       ?shiftOrigin@BucketPruner@Gu@physx@@UEAAXAEBV?$PxVec3T@M@3@@Z 000000018017e160 f   GuBucketPruner.obj
 0001:0017d160       ?shiftOrigin@CompanionPrunerBucket@@UEAAXAEBV?$PxVec3T@M@physx@@@Z 000000018017e160 f   GuSecondaryPruner.obj
 0001:0017d170       ?shiftOrigin@BucketPrunerCore@Gu@physx@@QEAAXAEBV?$PxVec3T@M@3@@Z 000000018017e170 f   GuBucketPruner.obj
 0001:0017e030       ?sweep@BucketPruner@Gu@physx@@UEBA_NAEBVShapeData@23@AEBV?$PxVec3T@M@3@AEAMAEAUPrunerRaycastCallback@23@@Z 000000018017f030 f   GuBucketPruner.obj
 0001:0017e050       ?sweep@BucketPrunerCore@Gu@physx@@QEBA_NAEBVShapeData@23@AEBV?$PxVec3T@M@3@AEAMAEAUPrunerRaycastCallback@23@@Z 000000018017f050 f   GuBucketPruner.obj
 0001:0017e120       ?updateObject@BucketPrunerCore@Gu@physx@@QEAA_NAEBVPxBounds3@3@AEBUPrunerPayload@23@AEBV?$PxTransformT@M@3@@Z 000000018017f120 f   GuBucketPruner.obj
 0001:0017e180       ?updateObjects@BucketPruner@Gu@physx@@UEAAXPEBIIM0PEBVPxBounds3@3@PEBUPxTransformPadded@3@@Z 000000018017f180 f   GuBucketPruner.obj
 0001:0017e290       ?visualize@BucketPruner@Gu@physx@@UEBAXAEAVPxRenderOutput@3@II@Z 000000018017f290 f   GuBucketPruner.obj
 0001:0017e290       ?visualize@CompanionPrunerBucket@@UEBAXAEAVPxRenderOutput@physx@@I@Z 000000018017f290 f   GuSecondaryPruner.obj
 0001:0017e2a0       ?visualize@BucketPrunerCore@Gu@physx@@QEBAXAEAVPxRenderOutput@3@I@Z 000000018017f2a0 f   GuBucketPruner.obj
 0001:0017e7e0       ?addObject@MaverickNode@Gu@physx@@QEAA_NAEBUPrunerPayload@23@IAEBVPxBounds3@3@AEBV?$PxTransformT@M@3@I@Z 000000018017f7e0 f   GuMaverickNode.obj
 0001:0017e8c0       ?removeMarkedObjects@MaverickNode@Gu@physx@@QEAAII@Z 000000018017f8c0 f   GuMaverickNode.obj
 0001:0017ea40       ?removeObject@MaverickNode@Gu@physx@@QEAA_NIAEAI@Z 000000018017fa40 f   GuMaverickNode.obj
 0001:0017ebd0       ?shiftOrigin@MaverickNode@Gu@physx@@QEAAXAEBV?$PxVec3T@M@3@@Z 000000018017fbd0 f   GuMaverickNode.obj
 0001:0017ecc0       ?updateObject@MaverickNode@Gu@physx@@QEAA_NIAEBVPxBounds3@3@AEBV?$PxTransformT@M@3@@Z 000000018017fcc0 f   GuMaverickNode.obj
 0001:0017eda0       ??0ExtendedBucketPruner@Gu@physx@@QEAA@_KW4CompanionPrunerType@12@PEBVPruningPool@12@@Z 000000018017fda0 f   GuExtendedBucketPruner.obj
 0001:0017efd0       ??1ExtendedBucketPruner@Gu@physx@@QEAA@XZ 000000018017ffd0 f   GuExtendedBucketPruner.obj
 0001:0017f140       ??R?$AABBTreeOverlap@$00U?$OBBAABBTests@$00@Gu@physx@@VAABBTree@23@UBVHNode@23@U?$MainTreeOverlapPrunerCallback@U?$OBBAABBTests@$00@Gu@physx@@@@@Gu@physx@@QEAA_NAEBVAABBTreeBounds@12@AEBVAABBTree@12@AEBU?$OBBAABBTests@$00@12@AEAU?$MainTreeOverlapPrunerCallback@U?$OBBAABBTests@$00@Gu@physx@@@@@Z 0000000180180140 f i GuExtendedBucketPruner.obj
 0001:0017f720       ??R?$AABBTreeOverlap@$00U?$OBBAABBTests@$00@Gu@physx@@VAABBTree@23@UBVHNode@23@UOverlapCallbackAdapter@23@@Gu@physx@@QEAA_NAEBVAABBTreeBounds@12@AEBVAABBTree@12@AEBU?$OBBAABBTests@$00@12@AEAUOverlapCallbackAdapter@12@@Z 0000000180180720 f i GuExtendedBucketPruner.obj
 0001:0017fce0       ??R?$AABBTreeOverlap@$00UAABBAABBTest@Gu@physx@@VAABBTree@23@UBVHNode@23@U?$MainTreeOverlapPrunerCallback@UAABBAABBTest@Gu@physx@@@@@Gu@physx@@QEAA_NAEBVAABBTreeBounds@12@AEBVAABBTree@12@AEBUAABBAABBTest@12@AEAU?$MainTreeOverlapPrunerCallback@UAABBAABBTest@Gu@physx@@@@@Z 0000000180180ce0 f i GuExtendedBucketPruner.obj
 0001:0017ff90       ??R?$AABBTreeOverlap@$00UAABBAABBTest@Gu@physx@@VAABBTree@23@UBVHNode@23@UOverlapCallbackAdapter@23@@Gu@physx@@QEAA_NAEBVAABBTreeBounds@12@AEBVAABBTree@12@AEBUAABBAABBTest@12@AEAUOverlapCallbackAdapter@12@@Z 0000000180180f90 f i GuExtendedBucketPruner.obj
 0001:00180220       ??R?$AABBTreeOverlap@$00UCapsuleAABBTest@Gu@physx@@VAABBTree@23@UBVHNode@23@U?$MainTreeOverlapPrunerCallback@UCapsuleAABBTest@Gu@physx@@@@@Gu@physx@@QEAA_NAEBVAABBTreeBounds@12@AEBVAABBTree@12@AEBUCapsuleAABBTest@12@AEAU?$MainTreeOverlapPrunerCallback@UCapsuleAABBTest@Gu@physx@@@@@Z 0000000180181220 f i GuExtendedBucketPruner.obj
 0001:001805d0       ??R?$AABBTreeOverlap@$00UCapsuleAABBTest@Gu@physx@@VAABBTree@23@UBVHNode@23@UOverlapCallbackAdapter@23@@Gu@physx@@QEAA_NAEBVAABBTreeBounds@12@AEBVAABBTree@12@AEBUCapsuleAABBTest@12@AEAUOverlapCallbackAdapter@12@@Z 00000001801815d0 f i GuExtendedBucketPruner.obj
 0001:00180960       ??R?$AABBTreeOverlap@$00USphereAABBTest@Gu@physx@@VAABBTree@23@UBVHNode@23@U?$MainTreeOverlapPrunerCallback@USphereAABBTest@Gu@physx@@@@@Gu@physx@@QEAA_NAEBVAABBTreeBounds@12@AEBVAABBTree@12@AEBUSphereAABBTest@12@AEAU?$MainTreeOverlapPrunerCallback@USphereAABBTest@Gu@physx@@@@@Z 0000000180181960 f i GuExtendedBucketPruner.obj
 0001:00180c70       ??R?$AABBTreeOverlap@$00USphereAABBTest@Gu@physx@@VAABBTree@23@UBVHNode@23@UOverlapCallbackAdapter@23@@Gu@physx@@QEAA_NAEBVAABBTreeBounds@12@AEBVAABBTree@12@AEBUSphereAABBTest@12@AEAUOverlapCallbackAdapter@12@@Z 0000000180181c70 f i GuExtendedBucketPruner.obj
 0001:00180f60       ??R?$AABBTreeRaycast@$00$00VAABBTree@Gu@physx@@UBVHNode@23@U?$MainTreeRaycastPrunerCallback@$00@@@Gu@physx@@QEAA_NAEBVAABBTreeBounds@12@AEBVAABBTree@12@AEBV?$PxVec3T@M@2@2AEAM2AEAU?$MainTreeRaycastPrunerCallback@$00@@@Z 0000000180181f60 f i GuExtendedBucketPruner.obj
 0001:00181680       ??R?$AABBTreeRaycast@$00$00VAABBTree@Gu@physx@@UBVHNode@23@URaycastCallbackAdapter@23@@Gu@physx@@QEAA_NAEBVAABBTreeBounds@12@AEBVAABBTree@12@AEBV?$PxVec3T@M@2@2AEAM2AEAURaycastCallbackAdapter@12@@Z 0000000180182680 f i GuExtendedBucketPruner.obj
 0001:00181d60       ??R?$AABBTreeRaycast@$0A@$00VAABBTree@Gu@physx@@UBVHNode@23@U?$MainTreeRaycastPrunerCallback@$0A@@@@Gu@physx@@QEAA_NAEBVAABBTreeBounds@12@AEBVAABBTree@12@AEBV?$PxVec3T@M@2@2AEAM2AEAU?$MainTreeRaycastPrunerCallback@$0A@@@@Z 0000000180182d60 f i GuExtendedBucketPruner.obj
 0001:00182410       ??R?$AABBTreeRaycast@$0A@$00VAABBTree@Gu@physx@@UBVHNode@23@URaycastCallbackAdapter@23@@Gu@physx@@QEAA_NAEBVAABBTreeBounds@12@AEBVAABBTree@12@AEBV?$PxVec3T@M@2@2AEAM2AEAURaycastCallbackAdapter@12@@Z 0000000180183410 f i GuExtendedBucketPruner.obj
 0001:00182a80       ?addTree@ExtendedBucketPruner@Gu@physx@@QEAAXAEBVAABBTreeMergeData@23@I@Z 0000000180183a80 f   GuExtendedBucketPruner.obj
 0001:00182d40       ?buildMainAABBTree@ExtendedBucketPruner@Gu@physx@@AEAAXXZ 0000000180183d40 f   GuExtendedBucketPruner.obj
 0001:00182df0       ?create@?$PxHashBase@V?$PxPair@$$CBUPrunerPayload@Gu@physx@@UExtendedBucketPrunerData@23@@physx@@UPrunerPayload@Gu@2@UExtendedBucketPrunerHash@42@UGetKey@?$PxHashMapBase@UPrunerPayload@Gu@physx@@UExtendedBucketPrunerData@23@UExtendedBucketPrunerHash@23@VPxAllocator@3@@2@VPxAllocator@2@$00@physx@@QEAAPEAV?$PxPair@$$CBUPrunerPayload@Gu@physx@@UExtendedBucketPrunerData@23@@2@AEBUPrunerPayload@Gu@2@AEA_N@Z 0000000180183df0 f i GuExtendedBucketPruner.obj
 0001:00182fd0       ?eraseInternal@?$PxHashBase@V?$PxPair@$$CBUPrunerPayload@Gu@physx@@UExtendedBucketPrunerData@23@@physx@@UPrunerPayload@Gu@2@UExtendedBucketPrunerHash@42@UGetKey@?$PxHashMapBase@UPrunerPayload@Gu@physx@@UExtendedBucketPrunerData@23@UExtendedBucketPrunerHash@23@VPxAllocator@3@@2@VPxAllocator@2@$00@physx@@AEAA_NPEAI@Z 0000000180183fd0 f i GuExtendedBucketPruner.obj
 0001:001830f0       ?find@?$PxHashMapBase@UPrunerPayload@Gu@physx@@UExtendedBucketPrunerData@23@UExtendedBucketPrunerHash@23@VPxAllocator@3@@physx@@QEBAPEBV?$PxPair@$$CBUPrunerPayload@Gu@physx@@UExtendedBucketPrunerData@23@@2@AEBUPrunerPayload@Gu@2@@Z 00000001801840f0 f i GuExtendedBucketPruner.obj
 0001:001831e0       ?getGlobalBounds@ExtendedBucketPruner@Gu@physx@@QEBAXAEAVPxBounds3@3@@Z 00000001801841e0 f   GuExtendedBucketPruner.obj
 0001:001832b0       ?invalidateObject@ExtendedBucketPruner@Gu@physx@@AEAAXAEBUExtendedBucketPrunerData@23@IAEBUPrunerPayload@23@I@Z 00000001801842b0 f   GuExtendedBucketPruner.obj
 0001:001833f0       ?overlap@ExtendedBucketPruner@Gu@physx@@QEBA_NAEBVShapeData@23@AEAUPrunerOverlapCallback@23@@Z 00000001801843f0 f   GuExtendedBucketPruner.obj
 0001:00183a90       ?raycast@ExtendedBucketPruner@Gu@physx@@QEBA_NAEBV?$PxVec3T@M@3@0AEAMAEAUPrunerRaycastCallback@23@@Z 0000000180184a90 f   GuExtendedBucketPruner.obj
 0001:00183b70       ?refitMarkedNodes@ExtendedBucketPruner@Gu@physx@@QEAAXPEBVPxBounds3@3@@Z 0000000180184b70 f   GuExtendedBucketPruner.obj
 0001:001840e0       ?release@ExtendedBucketPruner@Gu@physx@@QEAAXXZ 00000001801850e0 f   GuExtendedBucketPruner.obj
 0001:001841b0       ?removeMarkedObjects@ExtendedBucketPruner@Gu@physx@@QEAAII@Z 00000001801851b0 f   GuExtendedBucketPruner.obj
 0001:001844d0       ?removeObject@ExtendedBucketPruner@Gu@physx@@QEAA_NAEBUPrunerPayload@23@II0I@Z 00000001801854d0 f   GuExtendedBucketPruner.obj
 0001:001846b0       ?reserveInternal@?$PxHashBase@V?$PxPair@$$CBUPrunerPayload@Gu@physx@@UExtendedBucketPrunerData@23@@physx@@UPrunerPayload@Gu@2@UExtendedBucketPrunerHash@42@UGetKey@?$PxHashMapBase@UPrunerPayload@Gu@physx@@UExtendedBucketPrunerData@23@UExtendedBucketPrunerHash@23@VPxAllocator@3@@2@VPxAllocator@2@$00@physx@@AEAAXI@Z 00000001801856b0 f i GuExtendedBucketPruner.obj
 0001:001848b0       ?shiftOrigin@ExtendedBucketPruner@Gu@physx@@QEAAXAEBV?$PxVec3T@M@3@@Z 00000001801858b0 f   GuExtendedBucketPruner.obj
 0001:00184930       ?swapIndex@ExtendedBucketPruner@Gu@physx@@QEAAXIAEBUPrunerPayload@23@I_N@Z 0000000180185930 f   GuExtendedBucketPruner.obj
 0001:00184a00       ?sweep@ExtendedBucketPruner@Gu@physx@@QEBA_NAEBVShapeData@23@AEBV?$PxVec3T@M@3@AEAMAEAUPrunerRaycastCallback@23@@Z 0000000180185a00 f   GuExtendedBucketPruner.obj
 0001:00184b90       ?updateObject@ExtendedBucketPruner@Gu@physx@@QEAA_NAEBVPxBounds3@3@AEBV?$PxTransformT@M@3@AEBUPrunerPayload@23@II@Z 0000000180185b90 f   GuExtendedBucketPruner.obj
 0001:00184c60       ?visualize@ExtendedBucketPruner@Gu@physx@@QEBAXAEAVPxRenderOutput@3@I@Z 0000000180185c60 f   GuExtendedBucketPruner.obj
 0001:00184cf0       ??0?$OBBAABBTests@$00@Gu@physx@@QEAA@AEBV?$PxVec3T@M@2@AEBV?$PxMat33T@M@2@0@Z 0000000180185cf0 f i GuSecondaryPruner.obj
 0001:00186c20       ??_ECompanionPruner@Gu@physx@@UEAAPEAXI@Z 0000000180187c20 f i GuSecondaryPruner.obj
 0001:00186c20       ??_GCompanionPruner@Gu@physx@@UEAAPEAXI@Z 0000000180187c20 f i GuSecondaryPruner.obj
 0001:00186c70       ??_ECompanionPrunerAABBTree@@UEAAPEAXI@Z 0000000180187c70 f i GuSecondaryPruner.obj
 0001:00186c70       ??_GCompanionPrunerAABBTree@@UEAAPEAXI@Z 0000000180187c70 f i GuSecondaryPruner.obj
 0001:00186d20       ??_ECompanionPrunerBucket@@UEAAPEAXI@Z 0000000180187d20 f i GuSecondaryPruner.obj
 0001:00186d20       ??_GCompanionPrunerBucket@@UEAAPEAXI@Z 0000000180187d20 f i GuSecondaryPruner.obj
 0001:00186da0       ??_ECompanionPrunerIncremental@@UEAAPEAXI@Z 0000000180187da0 f i GuSecondaryPruner.obj
 0001:00186da0       ??_GCompanionPrunerIncremental@@UEAAPEAXI@Z 0000000180187da0 f i GuSecondaryPruner.obj
 0001:00186e20       ?addObject@CompanionPrunerAABBTree@@UEAA_NAEBUPrunerPayload@Gu@physx@@IAEBVPxBounds3@4@AEBV?$PxTransformT@M@4@II@Z 0000000180187e20 f   GuSecondaryPruner.obj
 0001:00187060       ?addObject@CompanionPrunerBucket@@UEAA_NAEBUPrunerPayload@Gu@physx@@IAEBVPxBounds3@4@AEBV?$PxTransformT@M@4@II@Z 0000000180188060 f i GuSecondaryPruner.obj
 0001:00187080       ?addObject@CompanionPrunerIncremental@@UEAA_NAEBUPrunerPayload@Gu@physx@@IAEBVPxBounds3@4@AEBV?$PxTransformT@M@4@II@Z 0000000180188080 f i GuSecondaryPruner.obj
 0001:001870a0       ?addObjectInternal@CompanionPrunerAABBTree@@QEAA_NII@Z 00000001801880a0 f   GuSecondaryPruner.obj
 0001:00187240       ?build@CompanionPrunerAABBTree@@UEAAXXZ 0000000180188240 f   GuSecondaryPruner.obj
 0001:00187740       ?createCompanionPruner@Gu@physx@@YAPEAVCompanionPruner@12@_KW4CompanionPrunerType@12@PEBVPruningPool@12@@Z 0000000180188740 f   GuSecondaryPruner.obj
 0001:00187940       ?getGlobalBounds@CompanionPrunerAABBTree@@UEBAXAEAVPxBounds3@physx@@@Z 0000000180188940 f   GuSecondaryPruner.obj
 0001:00187a30       ?getGlobalBounds@CompanionPrunerBucket@@UEBAXAEAVPxBounds3@physx@@@Z 0000000180188a30 f i GuSecondaryPruner.obj
 0001:00187a40       ?getGlobalBounds@CompanionPrunerIncremental@@UEBAXAEAVPxBounds3@physx@@@Z 0000000180188a40 f i GuSecondaryPruner.obj
 0001:00187a50       ?getNbObjects@CompanionPrunerAABBTree@@UEBAIXZ 0000000180188a50 f   GuSecondaryPruner.obj
 0001:00187a60       ?getNbObjects@CompanionPrunerBucket@@UEBAIXZ 0000000180188a60 f i GuSecondaryPruner.obj
 0001:00187a70       ?getNbObjects@CompanionPrunerIncremental@@UEBAIXZ 0000000180188a70 f i GuSecondaryPruner.obj
 0001:00187a80       ?growAndPushBack@?$PxArray@ULocalData@CompanionPrunerAABBTree@@V?$PxReflectionAllocator@ULocalData@CompanionPrunerAABBTree@@@physx@@@physx@@IEAAAEAULocalData@CompanionPrunerAABBTree@@AEBU34@@Z 0000000180188a80 f i GuSecondaryPruner.obj
 0001:00187ba0       ?overlap@CompanionPrunerAABBTree@@UEBA_NAEBVShapeData@Gu@physx@@AEAUPrunerOverlapCallback@34@@Z 0000000180188ba0 f   GuSecondaryPruner.obj
 0001:00188aa0       ?overlap@CompanionPrunerBucket@@UEBA_NAEBVShapeData@Gu@physx@@AEAUPrunerOverlapCallback@34@@Z 0000000180189aa0 f i GuSecondaryPruner.obj
 0001:00188ac0       ?overlap@CompanionPrunerIncremental@@UEBA_NAEBVShapeData@Gu@physx@@AEAUPrunerOverlapCallback@34@@Z 0000000180189ac0 f i GuSecondaryPruner.obj
 0001:00188ae0       ?raycast@CompanionPrunerAABBTree@@UEBA_NAEBV?$PxVec3T@M@physx@@0AEAMAEAUPrunerRaycastCallback@Gu@3@@Z 0000000180189ae0 f   GuSecondaryPruner.obj
 0001:00188ec0       ?raycast@CompanionPrunerBucket@@UEBA_NAEBV?$PxVec3T@M@physx@@0AEAMAEAUPrunerRaycastCallback@Gu@3@@Z 0000000180189ec0 f i GuSecondaryPruner.obj
 0001:00188ee0       ?raycast@CompanionPrunerIncremental@@UEBA_NAEBV?$PxVec3T@M@physx@@0AEAMAEAUPrunerRaycastCallback@Gu@3@@Z 0000000180189ee0 f i GuSecondaryPruner.obj
 0001:00188f00       ?release@CompanionPrunerAABBTree@@UEAAXXZ 0000000180189f00 f   GuSecondaryPruner.obj
 0001:00188f10       ?release@CompanionPrunerBucket@@UEAAXXZ 0000000180189f10 f i GuSecondaryPruner.obj
 0001:00188f20       ?release@CompanionPrunerIncremental@@UEAAXXZ 0000000180189f20 f i GuSecondaryPruner.obj
 0001:00188f30       ?releaseInternal@CompanionPrunerAABBTree@@QEAAXXZ 0000000180189f30 f   GuSecondaryPruner.obj
 0001:00188fb0       ?removeMarkedObjects@CompanionPrunerAABBTree@@UEAAII@Z 0000000180189fb0 f   GuSecondaryPruner.obj
 0001:00188fd0       ?removeMarkedObjects@CompanionPrunerBucket@@UEAAII@Z 0000000180189fd0 f i GuSecondaryPruner.obj
 0001:00188fe0       ?removeMarkedObjects@CompanionPrunerIncremental@@UEAAII@Z 0000000180189fe0 f i GuSecondaryPruner.obj
 0001:00188ff0       ?removeObject@CompanionPrunerAABBTree@@UEAA_NAEBUPrunerPayload@Gu@physx@@III@Z 0000000180189ff0 f   GuSecondaryPruner.obj
 0001:00189090       ?removeObject@CompanionPrunerBucket@@UEAA_NAEBUPrunerPayload@Gu@physx@@III@Z 000000018018a090 f i GuSecondaryPruner.obj
 0001:001890b0       ?removeObject@CompanionPrunerIncremental@@UEAA_NAEBUPrunerPayload@Gu@physx@@III@Z 000000018018a0b0 f i GuSecondaryPruner.obj
 0001:001890d0       ?shiftOrigin@CompanionPrunerAABBTree@@UEAAXAEBV?$PxVec3T@M@physx@@@Z 000000018018a0d0 f   GuSecondaryPruner.obj
 0001:00189200       ?shiftOrigin@CompanionPrunerIncremental@@UEAAXAEBV?$PxVec3T@M@physx@@@Z 000000018018a200 f i GuSecondaryPruner.obj
 0001:00189210       ?swapIndex@CompanionPrunerIncremental@@UEAAXII@Z 000000018018a210 f i GuSecondaryPruner.obj
 0001:00189220       ?sweep@CompanionPrunerAABBTree@@UEBA_NAEBVShapeData@Gu@physx@@AEBV?$PxVec3T@M@4@AEAMAEAUPrunerRaycastCallback@34@@Z 000000018018a220 f   GuSecondaryPruner.obj
 0001:00189730       ?sweep@CompanionPrunerBucket@@UEBA_NAEBVShapeData@Gu@physx@@AEBV?$PxVec3T@M@4@AEAMAEAUPrunerRaycastCallback@34@@Z 000000018018a730 f i GuSecondaryPruner.obj
 0001:00189750       ?sweep@CompanionPrunerIncremental@@UEBA_NAEBVShapeData@Gu@physx@@AEBV?$PxVec3T@M@4@AEAMAEAUPrunerRaycastCallback@34@@Z 000000018018a750 f i GuSecondaryPruner.obj
 0001:00189770       ?timeStampChange@CompanionPrunerIncremental@@UEAAXXZ 000000018018a770 f i GuSecondaryPruner.obj
 0001:00189790       ?updateObject@CompanionPrunerAABBTree@@UEAA_NAEBUPrunerPayload@Gu@physx@@IAEBVPxBounds3@4@AEBV?$PxTransformT@M@4@I@Z 000000018018a790 f   GuSecondaryPruner.obj
 0001:00189810       ?updateObject@CompanionPrunerBucket@@UEAA_NAEBUPrunerPayload@Gu@physx@@IAEBVPxBounds3@4@AEBV?$PxTransformT@M@4@I@Z 000000018018a810 f i GuSecondaryPruner.obj
 0001:00189830       ?updateObject@CompanionPrunerIncremental@@UEAA_NAEBUPrunerPayload@Gu@physx@@IAEBVPxBounds3@4@AEBV?$PxTransformT@M@4@I@Z 000000018018a830 f i GuSecondaryPruner.obj
 0001:00189840       ?visualize@CompanionPrunerAABBTree@@UEBAXAEAVPxRenderOutput@physx@@I@Z 000000018018a840 f   GuSecondaryPruner.obj
 0001:00189860       ?visualize@CompanionPrunerIncremental@@UEBAXAEAVPxRenderOutput@physx@@I@Z 000000018018a860 f i GuSecondaryPruner.obj
 0001:00189870       ??0AABBPruner@Gu@physx@@QEAA@_N_KW4CompanionPrunerType@12@W4BVHBuildStrategy@12@I@Z 000000018018a870 f   GuAABBPruner.obj
 0001:001899a0       ??1AABBPruner@Gu@physx@@UEAA@XZ 000000018018a9a0 f   GuAABBPruner.obj
 0001:00189b00       ??_EAABBPruner@Gu@physx@@UEAAPEAXI@Z 000000018018ab00 f i GuAABBPruner.obj
 0001:00189b00       ??_GAABBPruner@Gu@physx@@UEAAPEAXI@Z 000000018018ab00 f i GuAABBPruner.obj
 0001:00189b70       ?addObjects@AABBPruner@Gu@physx@@UEAA_NPEAIPEBVPxBounds3@3@PEBUPrunerPayload@23@PEBV?$PxTransformT@M@3@I_N@Z 000000018018ab70 f   GuAABBPruner.obj
 0001:00189cd0       ?buildStep@AABBPruner@Gu@physx@@UEAA_N_N@Z 000000018018acd0 f   GuAABBPruner.obj
 0001:00189f00       ?commit@AABBPruner@Gu@physx@@UEAAXXZ 000000018018af00 f   GuAABBPruner.obj
 0001:0018a2f0       ?getGlobalBounds@AABBPruner@Gu@physx@@UEBAXAEAVPxBounds3@3@@Z 000000018018b2f0 f   GuAABBPruner.obj
 0001:0018a410       ?getPayloadData@AABBPruner@Gu@physx@@UEBAAEBUPrunerPayload@23@IPEAUPrunerPayloadData@23@@Z 000000018018b410 f i GuAABBPruner.obj
 0001:0018a470       ?growAndPushBack@?$PxArray@UNewTreeFixup@AABBPruner@Gu@physx@@V?$PxReflectionAllocator@UNewTreeFixup@AABBPruner@Gu@physx@@@4@@physx@@IEAAAEAUNewTreeFixup@AABBPruner@Gu@2@AEBU3452@@Z 000000018018b470 f i GuAABBPruner.obj
 0001:0018a590       ?isDynamic@AABBPruner@Gu@physx@@UEBA_NXZ 000000018018b590 f i GuAABBPruner.obj
 0001:0018a5a0       ?merge@AABBPruner@Gu@physx@@UEAAXPEBX@Z 000000018018b5a0 f   GuAABBPruner.obj
 0001:0018a620       ?overlap@AABBPruner@Gu@physx@@UEBA_NAEBVShapeData@23@AEAUPrunerOverlapCallback@23@@Z 000000018018b620 f   GuAABBPruner.obj
 0001:0018ac30       ?preallocate@AABBPruner@Gu@physx@@UEAAXI@Z 000000018018bc30 f i GuAABBPruner.obj
 0001:0018ac40       ?prepareBuild@AABBPruner@Gu@physx@@UEAA_NXZ 000000018018bc40 f   GuAABBPruner.obj
 0001:0018add0       ?purge@AABBPruner@Gu@physx@@UEAAXXZ 000000018018bdd0 f   GuAABBPruner.obj
 0001:0018adf0       ?raycast@AABBPruner@Gu@physx@@UEBA_NAEBV?$PxVec3T@M@3@0AEAMAEAUPrunerRaycastCallback@23@@Z 000000018018bdf0 f   GuAABBPruner.obj
 0001:0018aee0       ?release@AABBPruner@Gu@physx@@QEAAXXZ 000000018018bee0 f   GuAABBPruner.obj
 0001:0018b010       ?removeObjects@AABBPruner@Gu@physx@@UEAAXPEBIIPEAUPrunerPayloadRemovalCallback@23@@Z 000000018018c010 f   GuAABBPruner.obj
 0001:0018b220       ?setRebuildRateHint@AABBPruner@Gu@physx@@UEAAXI@Z 000000018018c220 f   GuAABBPruner.obj
 0001:0018b240       ?setTransform@AABBPruner@Gu@physx@@UEAA_NIAEBV?$PxTransformT@M@3@@Z 000000018018c240 f i GuAABBPruner.obj
 0001:0018b2a0       ?shiftOrigin@AABBPruner@Gu@physx@@UEAAXAEBV?$PxVec3T@M@3@@Z 000000018018c2a0 f   GuAABBPruner.obj
 0001:0018b310       ?sweep@AABBPruner@Gu@physx@@UEBA_NAEBVShapeData@23@AEBV?$PxVec3T@M@3@AEAMAEAUPrunerRaycastCallback@23@@Z 000000018018c310 f   GuAABBPruner.obj
 0001:0018b4a0       ?updateObjects@AABBPruner@Gu@physx@@UEAAXPEBIIM0PEBVPxBounds3@3@PEBUPxTransformPadded@3@@Z 000000018018c4a0 f   GuAABBPruner.obj
 0001:0018b640       ?visualize@AABBPruner@Gu@physx@@UEBAXAEAVPxRenderOutput@3@II@Z 000000018018c640 f   GuAABBPruner.obj
 0001:0018b6f0       ??0ActorShapeMap@Gu@physx@@QEAA@XZ 000000018018c6f0 f   GuActorShapeMap.obj
 0001:0018b750       ??1ActorShapeMap@Gu@physx@@QEAA@XZ 000000018018c750 f   GuActorShapeMap.obj
 0001:0018b7b0       ?add@ActorShapeMap@Gu@physx@@QEAA_NIPEBX0_K@Z 000000018018c7b0 f   GuActorShapeMap.obj
 0001:0018b960       ?create@?$PxHashBase@V?$PxPair@$$CBUActorShape@ActorShapeMap@Gu@physx@@_K@physx@@UActorShape@ActorShapeMap@Gu@2@U?$PxHash@UActorShape@ActorShapeMap@Gu@physx@@@2@UGetKey@?$PxHashMapBase@UActorShape@ActorShapeMap@Gu@physx@@_KU?$PxHash@UActorShape@ActorShapeMap@Gu@physx@@@4@VPxAllocator@4@@2@VPxAllocator@2@$00@physx@@QEAAPEAV?$PxPair@$$CBUActorShape@ActorShapeMap@Gu@physx@@_K@2@AEBUActorShape@ActorShapeMap@Gu@2@AEA_N@Z 000000018018c960 f i GuActorShapeMap.obj
 0001:0018bb50       ?eraseInternal@?$PxHashBase@V?$PxPair@$$CBUActorShape@ActorShapeMap@Gu@physx@@_K@physx@@UActorShape@ActorShapeMap@Gu@2@U?$PxHash@UActorShape@ActorShapeMap@Gu@physx@@@2@UGetKey@?$PxHashMapBase@UActorShape@ActorShapeMap@Gu@physx@@_KU?$PxHash@UActorShape@ActorShapeMap@Gu@physx@@@4@VPxAllocator@4@@2@VPxAllocator@2@$00@physx@@AEAA_NPEAI@Z 000000018018cb50 f i GuActorShapeMap.obj
 0001:0018bc60       ?find@ActorShapeMap@Gu@physx@@QEBA_KIPEBX0@Z 000000018018cc60 f   GuActorShapeMap.obj
 0001:0018bd50       ?remove@ActorShapeMap@Gu@physx@@QEAA_NIPEBX0PEA_K@Z 000000018018cd50 f   GuActorShapeMap.obj
 0001:0018be90       ?reserveInternal@?$PxHashBase@V?$PxPair@$$CBUActorShape@ActorShapeMap@Gu@physx@@_K@physx@@UActorShape@ActorShapeMap@Gu@2@U?$PxHash@UActorShape@ActorShapeMap@Gu@physx@@@2@UGetKey@?$PxHashMapBase@UActorShape@ActorShapeMap@Gu@physx@@_KU?$PxHash@UActorShape@ActorShapeMap@Gu@physx@@@4@VPxAllocator@4@@2@VPxAllocator@2@$00@physx@@AEAAXI@Z 000000018018ce90 f i GuActorShapeMap.obj
 0001:0018c0a0       ??0QuerySystem@Gu@physx@@QEAA@_KMAEBVAdapter@12@_N@Z 000000018018d0a0 f   GuQuerySystem.obj
 0001:0018c170       ??1QuerySystem@Gu@physx@@QEAA@XZ 000000018018d170 f   GuQuerySystem.obj
 0001:0018c3c0       ??_GPrunerExt@QuerySystem@Gu@physx@@QEAAPEAXI@Z 000000018018d3c0 f i GuQuerySystem.obj
 0001:0018c4d0       ?addPruner@QuerySystem@Gu@physx@@QEAAIPEAVPruner@23@I@Z 000000018018d4d0 f   GuQuerySystem.obj
 0001:0018c5f0       ?addPrunerShape@QuerySystem@Gu@physx@@QEAA_KAEBUPrunerPayload@23@I_NAEBV?$PxTransformT@M@3@PEBVPxBounds3@3@@Z 000000018018d5f0 f   GuQuerySystem.obj
 0001:0018c730       ?addToDirtyList@PrunerExt@QuerySystem@Gu@physx@@QEAAXIIAEBV?$PxTransformT@M@4@PEBVPxBounds3@4@@Z 000000018018d730 f   GuQuerySystem.obj
 0001:0018c970       ?commitUpdates@QuerySystem@Gu@physx@@QEAAXXZ 000000018018d970 f   GuQuerySystem.obj
 0001:0018ca20       ?createTreeOfPruners@QuerySystem@Gu@physx@@QEAAXXZ 000000018018da20 f   GuQuerySystem.obj
 0001:0018cb80       ?flushMemory@QuerySystem@Gu@physx@@QEAAXXZ 000000018018db80 f   GuQuerySystem.obj
 0001:0018cc10       ?getPayloadData@QuerySystem@Gu@physx@@QEBAAEBUPrunerPayload@23@_KPEAUPrunerPayloadData@23@@Z 000000018018dc10 f   GuQuerySystem.obj
 0001:0018cc30       ?growAndPushBack@?$PxArray@PEAUPrunerExt@QuerySystem@Gu@physx@@V?$PxReflectionAllocator@PEAUPrunerExt@QuerySystem@Gu@physx@@@4@@physx@@IEAAAEAPEAUPrunerExt@QuerySystem@Gu@2@AEBQEAU3452@@Z 000000018018dc30 f i GuQuerySystem.obj
 0001:0018cd50       ?overlap@QuerySystem@Gu@physx@@QEBAXAEBVShapeData@23@AEAUPrunerOverlapCallback@23@PEBVPrunerFilter@23@@Z 000000018018dd50 f   GuQuerySystem.obj
 0001:0018ce50       ?processDirtyLists@QuerySystem@Gu@physx@@AEAAXXZ 000000018018de50 f   GuQuerySystem.obj
 0001:0018d130       ?raycast@QuerySystem@Gu@physx@@QEBAXAEBV?$PxVec3T@M@3@0AEAMAEAUPrunerRaycastCallback@23@PEBVPrunerFilter@23@@Z 000000018018e130 f   GuQuerySystem.obj
 0001:0018d270       ?recreate@?$PxArray@UData@PrunerExt@QuerySystem@Gu@physx@@V?$PxReflectionAllocator@UData@PrunerExt@QuerySystem@Gu@physx@@@5@@physx@@IEAAXI@Z 000000018018e270 f i GuQuerySystem.obj
 0001:0018d560       ?removePruner@QuerySystem@Gu@physx@@QEAAXI@Z 000000018018e560 f   GuQuerySystem.obj
 0001:0018d620       ?removePrunerShape@QuerySystem@Gu@physx@@QEAAX_KPEAUPrunerPayloadRemovalCallback@23@@Z 000000018018e620 f   GuQuerySystem.obj
 0001:0018d850       ?sweep@QuerySystem@Gu@physx@@QEBAXAEBVShapeData@23@AEBV?$PxVec3T@M@3@AEAMAEAUPrunerRaycastCallback@23@PEBVPrunerFilter@23@@Z 000000018018e850 f   GuQuerySystem.obj
 0001:0018d980       ?sync@QuerySystem@Gu@physx@@QEAAXIPEBI0PEBVPxBounds3@3@PEBUPxTransformPadded@3@I@Z 000000018018e980 f   GuQuerySystem.obj
 0001:0018da30       ?update@QuerySystem@Gu@physx@@QEAAX_N0@Z 000000018018ea30 f   GuQuerySystem.obj
 0001:0018db00       ?updatePrunerShape@QuerySystem@Gu@physx@@QEAAX_K_NAEBV?$PxTransformT@M@3@PEBVPxBounds3@3@@Z 000000018018eb00 f   GuQuerySystem.obj
 0001:0018dcf0       createAABBPruner           000000018018ecf0 f   GuFactory.obj
 0001:0018ddb0       createBucketPruner         000000018018edb0 f   GuFactory.obj
 0001:0018de40       createIncrementalPruner    000000018018ee40 f   GuFactory.obj
 0001:0018ded0       ??$PxSmallSort@I$$CBUSortBoundsPredicate@physx@@@physx@@YAXPEAIHHAEBUSortBoundsPredicate@0@@Z 000000018018eed0 f i GuRTreeCooking.obj
 0001:0018e180       ??$PxSort@IU?$PxLess@I@physx@@V?$PxReflectionAllocator@I@2@@physx@@YAXPEAIIAEBU?$PxLess@I@0@AEBV?$PxReflectionAllocator@I@0@I@Z 000000018018f180 f i GuRTreeCooking.obj
 0001:0018e5d0       ??$PxSort@IUSortBoundsPredicate@physx@@V?$PxReflectionAllocator@I@2@@physx@@YAXPEAIIAEBUSortBoundsPredicate@0@AEBV?$PxReflectionAllocator@I@0@I@Z 000000018018f5d0 f i GuRTreeCooking.obj
 0001:0018ea80       ??$quickSelectFirstK@UBoundsLTE@physx@@@quickSelect@physx@@YAXPEIAIIIIAEBUBoundsLTE@1@@Z 000000018018fa80 f i GuRTreeCooking.obj
 0001:0018ec50       ?allocate@?$PxArray@UInterval@physx@@V?$PxInlineAllocator@$0CAAA@V?$PxReflectionAllocator@UInterval@physx@@@physx@@@2@@physx@@IEAAPEAUInterval@2@IPEAI@Z 000000018018fc50 f i GuRTreeCooking.obj
 0001:0018f9b0       ?buildFromTriangles@RTreeCooker@physx@@SAXAEAURTree@Gu@2@PEBV?$PxVec3T@M@2@IPEBGPEBIIAEAV?$PxArray@IV?$PxReflectionAllocator@I@physx@@@2@PEAURemapCallback@12@MW4Enum@PxMeshCookingHint@2@@Z 00000001801909b0 f   GuRTreeCooking.obj
 0001:0018fc30       ?copy@?$PxArray@URTreeNodeNQ@physx@@V?$PxReflectionAllocator@URTreeNodeNQ@physx@@@2@@physx@@KAXPEAURTreeNodeNQ@2@0PEBU32@@Z 0000000180190c30 f i GuRTreeCooking.obj
 0001:0018fdf0       ?growAndPushBack@?$PxArray@UInterval@physx@@V?$PxInlineAllocator@$0CAAA@V?$PxReflectionAllocator@UInterval@physx@@@physx@@@2@@physx@@IEAAAEAUInterval@2@AEBU32@@Z 0000000180190df0 f i GuRTreeCooking.obj
 0001:0018fee0       ?growAndPushBack@?$PxArray@UPxBounds3V@physx@@V?$PxReflectionAllocator@UPxBounds3V@physx@@@2@@physx@@IEAAAEAUPxBounds3V@2@AEBU32@@Z 0000000180190ee0 f i GuRTreeCooking.obj
 0001:00190010       ?growAndPushBack@?$PxArray@URTreeNodeNQ@physx@@V?$PxReflectionAllocator@URTreeNodeNQ@physx@@@2@@physx@@IEAAAEAURTreeNodeNQ@2@AEBU32@@Z 0000000180191010 f i GuRTreeCooking.obj
 0001:00190150       ?growAndPushBack@?$PxArray@URTreeNodeQ@Gu@physx@@V?$PxReflectionAllocator@URTreeNodeQ@Gu@physx@@@3@@physx@@IEAAAEAURTreeNodeQ@Gu@2@AEBU342@@Z 0000000180191150 f i GuRTreeCooking.obj
 0001:00190290       ?recreate@?$PxArray@UPxBounds3V@physx@@V?$PxReflectionAllocator@UPxBounds3V@physx@@@2@@physx@@IEAAXI@Z 0000000180191290 f i GuRTreeCooking.obj
 0001:00190390       ?recreate@?$PxArray@URTreeNodeNQ@physx@@V?$PxReflectionAllocator@URTreeNodeNQ@physx@@@2@@physx@@IEAAXI@Z 0000000180191390 f i GuRTreeCooking.obj
 0001:00190460       ?recreate@?$PxArray@URTreeNodeQ@Gu@physx@@V?$PxReflectionAllocator@URTreeNodeQ@Gu@physx@@@3@@physx@@IEAAXI@Z 0000000180191460 f i GuRTreeCooking.obj
 0001:00190560       ?resizeUninitialized@?$PxArray@URTreeNodeNQ@physx@@V?$PxReflectionAllocator@URTreeNodeNQ@physx@@@2@@physx@@QEAAXI@Z 0000000180191560 f i GuRTreeCooking.obj
 0001:001905a0       ?sort4@SubSortQuick@physx@@QEAAXPEIAIIAEAV?$PxArray@URTreeNodeNQ@physx@@V?$PxReflectionAllocator@URTreeNodeNQ@physx@@@2@@2@AEAIAEAUPxBounds3V@2@I@Z 00000001801915a0 f i GuRTreeCooking.obj
 0001:00190930       ?sort4@SubSortSAH@physx@@QEAAXPEAIIAEAV?$PxArray@URTreeNodeNQ@physx@@V?$PxReflectionAllocator@URTreeNodeNQ@physx@@@2@@2@AEAIIPEAURTreeNodeNQ@2@@Z 0000000180191930 f i GuRTreeCooking.obj
 0001:00191200       ?split@SubSortSAH@physx@@QEAAIPEAII@Z 0000000180192200 f i GuRTreeCooking.obj
 0001:00191cc0       cookBVH                    0000000180192cc0 f   GuCookingBVH.obj
 0001:00191e50       createBVH                  0000000180192e50 f   GuCookingBVH.obj
 0001:00191fe0       cookHeightField            0000000180192fe0 f   GuCookingHF.obj
 0001:001920f0       createHeightField          00000001801930f0 f   GuCookingHF.obj
 0001:00192780       ?isFinite@?$PxVec3T@M@physx@@QEBA_NXZ 0000000180193780 f i GuCookingConvexMesh.obj
 0001:001927e0       computeHullPolygons        00000001801937e0 f   GuCookingConvexMesh.obj
 0001:001929c0       cookConvexMesh             00000001801939c0 f   GuCookingConvexMesh.obj
 0001:00192b30       createConvexMesh           0000000180193b30 f   GuCookingConvexMesh.obj
 0001:00192cd0       validateConvexMesh         0000000180193cd0 f   GuCookingConvexMesh.obj
 0001:00192df0       ??1BV4TriangleMeshBuilder@physx@@UEAA@XZ 0000000180193df0 f   GuCookingTriangleMesh.obj
 0001:00192e80       ??1RTreeTriangleMeshBuilder@physx@@UEAA@XZ 0000000180193e80 f   GuCookingTriangleMesh.obj
 0001:00192ef0       ??_EBV4TriangleMeshBuilder@physx@@UEAAPEAXI@Z 0000000180193ef0 f i GuCookingTriangleMesh.obj
 0001:00192ef0       ??_GBV4TriangleMeshBuilder@physx@@UEAAPEAXI@Z 0000000180193ef0 f i GuCookingTriangleMesh.obj
 0001:00192f30       ??_ERTreeTriangleMeshBuilder@physx@@UEAAPEAXI@Z 0000000180193f30 f i GuCookingTriangleMesh.obj
 0001:00192f30       ??_GRTreeTriangleMeshBuilder@physx@@UEAAPEAXI@Z 0000000180193f30 f i GuCookingTriangleMesh.obj
 0001:00192f70       ??_ETriangleMeshBuilder@physx@@UEAAPEAXI@Z 0000000180193f70 f i GuCookingTriangleMesh.obj
 0001:00192f70       ??_GTriangleMeshBuilder@physx@@UEAAPEAXI@Z 0000000180193f70 f i GuCookingTriangleMesh.obj
 0001:00193910       ?buildInertiaTensor@TriangleMeshBuilder@physx@@IEAAX_N@Z 0000000180194910 f   GuCookingTriangleMesh.obj
 0001:00193ab0       ?buildInertiaTensorFromSDF@TriangleMeshBuilder@physx@@IEAAXXZ 0000000180194ab0 f   GuCookingTriangleMesh.obj
 0001:00193d20       ?checkMeshIndicesSize@TriangleMeshBuilder@physx@@QEAAXXZ 0000000180194d20 f   GuCookingTriangleMesh.obj
 0001:00194040       ?cleanMesh@TriangleMeshBuilder@physx@@QEAA_N_NPEAW4Enum@PxTriangleMeshCookingResult@2@@Z 0000000180195040 f   GuCookingTriangleMesh.obj
 0001:00194520       ?createGRBMidPhaseAndData@TriangleMeshBuilder@physx@@QEAA_NI@Z 0000000180195520 f   GuCookingTriangleMesh.obj
 0001:001946d0       ?createMidPhaseStructure@BV32TriangleMeshBuilder@physx@@SA_NAEBUPxCookingParams@2@AEAVTriangleMeshData@Gu@2@AEAVBV32Tree@52@@Z 00000001801956d0 f   GuCookingTriangleMesh.obj
 0001:00194920       ?createMidPhaseStructure@BV4TriangleMeshBuilder@physx@@UEAA_NXZ 0000000180195920 f   GuCookingTriangleMesh.obj
 0001:00194be0       ?createMidPhaseStructure@RTreeTriangleMeshBuilder@physx@@UEAA_NXZ 0000000180195be0 f   GuCookingTriangleMesh.obj
 0001:00194cd0       ?createSharedEdgeData@TriangleMeshBuilder@physx@@QEAAX_N0@Z 0000000180195cd0 f   GuCookingTriangleMesh.obj
 0001:00195270       ?createVertMapping@TriangleMeshBuilder@physx@@QEAAXXZ 0000000180196270 f   GuCookingTriangleMesh.obj
 0001:001955e0       ?importMesh@TriangleMeshBuilder@physx@@IEAA_NAEBVPxTriangleMeshDesc@2@PEAW4Enum@PxTriangleMeshCookingResult@2@_N@Z 00000001801965e0 f   GuCookingTriangleMesh.obj
 0001:00195b70       ?isValid@PxTriangleMeshDesc@physx@@QEBA_NXZ 0000000180196b70 f i GuCookingTriangleMesh.obj
 0001:00195c40       ?loadFromDescInternal@TriangleMeshBuilder@physx@@IEAA_NAEAVPxTriangleMeshDesc@2@PEAW4Enum@PxTriangleMeshCookingResult@2@_N@Z 0000000180196c40 f   GuCookingTriangleMesh.obj
 0001:00195e60       ?onMeshIndexFormatChange@BV4TriangleMeshBuilder@physx@@UEAAXXZ 0000000180196e60 f   GuCookingTriangleMesh.obj
 0001:00195ea0       ?remap@RTreeCookerRemap@@UEAAXPEAIII@Z 0000000180196ea0 f i GuCookingTriangleMesh.obj
 0001:00195ec0       ?remapTopology@TriangleMeshBuilder@physx@@QEAAXPEBI@Z 0000000180196ec0 f   GuCookingTriangleMesh.obj
 0001:00196160       ?save@TriangleMeshBuilder@physx@@QEBA_NAEAVPxOutputStream@2@_NAEBUPxCookingParams@2@@Z 0000000180197160 f   GuCookingTriangleMesh.obj
 0001:00196910       ?saveMidPhaseStructure@BV32TriangleMeshBuilder@physx@@SAXPEAVBV32Tree@Gu@2@AEAVPxOutputStream@2@_N@Z 0000000180197910 f   GuCookingTriangleMesh.obj
 0001:00196b10       ?saveMidPhaseStructure@BV4TriangleMeshBuilder@physx@@UEBAXAEAVPxOutputStream@2@_N@Z 0000000180197b10 f   GuCookingTriangleMesh.obj
 0001:00196cc0       ?saveMidPhaseStructure@RTreeTriangleMeshBuilder@physx@@UEBAXAEAVPxOutputStream@2@_N@Z 0000000180197cc0 f   GuCookingTriangleMesh.obj
 0001:00196f00       cookTriangleMesh           0000000180197f00 f   GuCookingTriangleMesh.obj
 0001:00197210       createTriangleMesh         0000000180198210 f   GuCookingTriangleMesh.obj
 0001:00197430       validateTriangleMesh       0000000180198430 f   GuCookingTriangleMesh.obj
 0001:001976f0       ??0SoftBodyCollisionData@Gu@physx@@QEAA@XZ 00000001801986f0 f i GuCookingTetrahedronMesh.obj
 0001:00197750       ??_ECollisionTetrahedronMeshData@Gu@physx@@UEAAPEAXI@Z 0000000180198750 f i GuCookingTetrahedronMesh.obj
 0001:00197750       ??_GCollisionTetrahedronMeshData@Gu@physx@@UEAAPEAXI@Z 0000000180198750 f i GuCookingTetrahedronMesh.obj
 0001:00197820       ??_EPxCollisionTetrahedronMeshData@physx@@UEAAPEAXI@Z 0000000180198820 f i GuCookingTetrahedronMesh.obj
 0001:00197820       ??_GPxCollisionTetrahedronMeshData@physx@@UEAAPEAXI@Z 0000000180198820 f i GuCookingTetrahedronMesh.obj
 0001:00197870       ??_EPxSimulationTetrahedronMeshData@physx@@UEAAPEAXI@Z 0000000180198870 f i GuCookingTetrahedronMesh.obj
 0001:00197870       ??_GPxSimulationTetrahedronMeshData@physx@@UEAAPEAXI@Z 0000000180198870 f i GuCookingTetrahedronMesh.obj
 0001:001978c0       ??_ESimulationTetrahedronMeshData@Gu@physx@@UEAAPEAXI@Z 00000001801988c0 f i GuCookingTetrahedronMesh.obj
 0001:001978c0       ??_GSimulationTetrahedronMeshData@Gu@physx@@UEAAPEAXI@Z 00000001801988c0 f i GuCookingTetrahedronMesh.obj
 0001:00197990       ?PointOutsideOfPlane4@Gu@physx@@YA?AV?$PxVec4T@M@2@AEBV?$PxVec3T@M@2@0000@Z 0000000180198990 f i GuCookingTetrahedronMesh.obj
 0001:00197e00       ?combineGridModelPartitions@@YAXAEBVTetrahedronMeshData@Gu@physx@@AEAVSoftBodySimulationData@23@PEAPEAI@Z 0000000180198e00 f   GuCookingTetrahedronMesh.obj
 0001:00198630       ?combineGridModelPartitionsHexMesh_parallelGS@@YAXAEBVTetrahedronMeshData@Gu@physx@@AEAVSoftBodySimulationData@23@PEAPEAI@Z 0000000180199630 f   GuCookingTetrahedronMesh.obj
 0001:001989e0       ?computeCollisionData@TetrahedronMeshBuilder@physx@@SA_NAEBVPxTetrahedronMeshDesc@2@AEAVTetrahedronMeshData@Gu@2@AEAVSoftBodyCollisionData@52@AEBUPxCookingParams@2@_N@Z 00000001801999e0 f   GuCookingTetrahedronMesh.obj
 0001:00198c20       ?computeGridModelTetrahedronPartitions@@YAPEAIAEBVTetrahedronMeshData@Gu@physx@@AEAVSoftBodySimulationData@23@@Z 0000000180199c20 f   GuCookingTetrahedronMesh.obj
 0001:001990c0       ?computeGridModelVoxelPartitions@@YAPEAIAEBVTetrahedronMeshData@Gu@physx@@AEAVSoftBodySimulationData@23@@Z 000000018019a0c0 f   GuCookingTetrahedronMesh.obj
 0001:00199990       ?computeModelsMapping@TetrahedronMeshBuilder@physx@@SAXAEAVTetrahedronMeshData@Gu@2@AEBV342@AEBVSoftBodyCollisionData@42@AEAVCollisionMeshMappingData@42@_NPEBUPxBoundedData@2@@Z 000000018019a990 f   GuCookingTetrahedronMesh.obj
 0001:0019a370       ?computeRestPoseAndPointMass@@YAXPEAU?$TetrahedronT@I@Gu@physx@@IPEBV?$PxVec3T@M@3@PEAMPEAV?$PxMat33T@M@3@@Z 000000018019b370 f   GuCookingTetrahedronMesh.obj
 0001:0019a8f0       ?computeSimData@TetrahedronMeshBuilder@physx@@SAXAEBVPxTetrahedronMeshDesc@2@AEAVTetrahedronMeshData@Gu@2@AEAVSoftBodySimulationData@52@AEBUPxCookingParams@2@@Z 000000018019b8f0 f   GuCookingTetrahedronMesh.obj
 0001:0019b010       ?computeTetData@TetrahedronMeshBuilder@physx@@SAXAEBVPxTetrahedronMeshDesc@2@AEAVTetrahedronMeshData@Gu@2@@Z 000000018019c010 f   GuCookingTetrahedronMesh.obj
 0001:0019b100       ?computeTetrahedronPartition@@YAIPEBU?$TetrahedronT@I@Gu@physx@@IPEAII@Z 000000018019c100 f   GuCookingTetrahedronMesh.obj
 0001:0019b1f0       ?create@?$PxHashBase@IIU?$PxHash@I@physx@@UGetKey@?$PxHashSetBase@IU?$PxHash@I@physx@@VPxAllocator@2@$0A@@2@VPxAllocator@2@$0A@@physx@@QEAAPEAIAEBIAEA_N@Z 000000018019c1f0 f i GuCookingTetrahedronMesh.obj
 0001:0019b370       ?createCollisionModelMapping@TetrahedronMeshBuilder@physx@@SAXAEBVTetrahedronMeshData@Gu@2@AEBVSoftBodyCollisionData@42@AEAVCollisionMeshMappingData@42@@Z 000000018019c370 f   GuCookingTetrahedronMesh.obj
 0001:0019b960       ?createGRBMidPhaseAndData@TetrahedronMeshBuilder@physx@@SA_NIAEAVTetrahedronMeshData@Gu@2@AEAVSoftBodyCollisionData@42@AEBUPxCookingParams@2@@Z 000000018019c960 f   GuCookingTetrahedronMesh.obj
 0001:0019c6d0       ?createMidPhaseStructure@BV32TetrahedronMeshBuilder@physx@@SA_NAEBUPxCookingParams@2@AEAVTetrahedronMeshData@Gu@2@AEAVBV32Tree@52@AEAVSoftBodyCollisionData@52@@Z 000000018019d6d0 f   GuCookingTetrahedronMesh.obj
 0001:0019c9a0       ?createMidPhaseStructure@TetrahedronMeshBuilder@physx@@SA_NAEAVTetrahedronMeshData@Gu@2@AEAVSoftBodyCollisionData@42@AEBUPxCookingParams@2@@Z 000000018019d9a0 f   GuCookingTetrahedronMesh.obj
 0001:0019cb50       ?freeListAdd@?$PxHashBase@IIU?$PxHash@I@physx@@UGetKey@?$PxHashSetBase@IU?$PxHash@I@physx@@VPxAllocator@2@$0A@@2@VPxAllocator@2@$0A@@physx@@AEAAXII@Z 000000018019db50 f i GuCookingTetrahedronMesh.obj
 0001:0019d7b0       ?getData@CollisionTetrahedronMeshData@Gu@physx@@UEAAPEAVPxSoftBodyCollisionData@3@XZ 000000018019e7b0 f i GuCookingTetrahedronMesh.obj
 0001:0019d7b0       ?getData@CollisionTetrahedronMeshData@Gu@physx@@UEBAPEBVPxSoftBodyCollisionData@3@XZ 000000018019e7b0 f i GuCookingTetrahedronMesh.obj
 0001:0019d7b0       ?getData@SimulationTetrahedronMeshData@Gu@physx@@UEAAPEAVPxSoftBodySimulationData@3@XZ 000000018019e7b0 f i GuCookingTetrahedronMesh.obj
 0001:0019d7d0       ?importMesh@TetrahedronMeshBuilder@physx@@SA_NAEBVPxTetrahedronMeshDesc@2@AEBUPxCookingParams@2@AEAVTetrahedronMeshData@Gu@2@AEAVSoftBodyCollisionData@62@_N@Z 000000018019e7d0 f   GuCookingTetrahedronMesh.obj
 0001:0019dad0       ?isValid@PxTetrahedronMeshDesc@physx@@QEBA_NXZ 000000018019ead0 f i GuCookingTetrahedronMesh.obj
 0001:0019db50       ?loadFromDesc@TetrahedronMeshBuilder@physx@@SA_NAEBVPxTetrahedronMeshDesc@2@0VPxSoftBodySimulationDataDesc@2@AEAVTetrahedronMeshData@Gu@2@AEAVSoftBodySimulationData@62@2AEAVSoftBodyCollisionData@62@AEAVCollisionMeshMappingData@62@AEBUPxCookingParams@2@_N@Z 000000018019eb50 f   GuCookingTetrahedronMesh.obj
 0001:0019dcc0       ?recreate@?$PxArray@V?$PxArray@IV?$PxReflectionAllocator@I@physx@@@physx@@V?$PxReflectionAllocator@V?$PxArray@IV?$PxReflectionAllocator@I@physx@@@physx@@@2@@physx@@IEAAXI@Z 000000018019ecc0 f i GuCookingTetrahedronMesh.obj
 0001:0019ddd0       ?release@CollisionTetrahedronMeshData@Gu@physx@@UEAAXXZ 000000018019edd0 f i GuCookingTetrahedronMesh.obj
 0001:0019ddf0       ?reserveInternal@?$PxHashBase@IIU?$PxHash@I@physx@@UGetKey@?$PxHashSetBase@IU?$PxHash@I@physx@@VPxAllocator@2@$0A@@2@VPxAllocator@2@$0A@@physx@@AEAAXI@Z 000000018019edf0 f i GuCookingTetrahedronMesh.obj
 0001:0019e0b0       ?reserveInternal@?$PxHashBase@V?$PxPair@$$CBVSortedTriangleInds@@I@physx@@VSortedTriangleInds@@USortedTriangleIndsHash@@UGetKey@?$PxHashMapBase@VSortedTriangleInds@@IUSortedTriangleIndsHash@@VPxAllocator@physx@@@2@VPxAllocator@2@$00@physx@@AEAAXI@Z 000000018019f0b0 f i GuCookingTetrahedronMesh.obj
 0001:0019e2f0       ?resize@?$PxArray@V?$PxArray@IV?$PxReflectionAllocator@I@physx@@@physx@@V?$PxReflectionAllocator@V?$PxArray@IV?$PxReflectionAllocator@I@physx@@@physx@@@2@@physx@@QEAAXIAEBV?$PxArray@IV?$PxReflectionAllocator@I@physx@@@2@@Z 000000018019f2f0 f i GuCookingTetrahedronMesh.obj
 0001:0019e390       ?saveSoftBodyMeshData@TetrahedronMeshBuilder@physx@@SA_NAEAVPxOutputStream@2@_NAEBUPxCookingParams@2@AEBVTetrahedronMeshData@Gu@2@AEBVSoftBodySimulationData@62@3AEBVSoftBodyCollisionData@62@AEBVCollisionMeshMappingData@62@@Z 000000018019f390 f   GuCookingTetrahedronMesh.obj
 0001:0019eac0       ?saveTetrahedronMeshData@TetrahedronMeshBuilder@physx@@SA_NAEAVPxOutputStream@2@_NAEBUPxCookingParams@2@AEBVTetrahedronMeshData@Gu@2@@Z 000000018019fac0 f   GuCookingTetrahedronMesh.obj
 0001:0019ec70       ?smoothMassRatiosWhilePreservingTotalMass@@YAXPEAMIPEBIHMM@Z 000000018019fc70 f   GuCookingTetrahedronMesh.obj
 0001:0019f110       ?support@?$LocalConvex@VTetrahedronV@Gu@physx@@@Gu@physx@@UEBA?AT__m128@@AEBT4@@Z 00000001801a0110 f i GuCookingTetrahedronMesh.obj
 0001:0019f1d0       ?support@?$LocalConvex@VTetrahedronV@Gu@physx@@@Gu@physx@@UEBA?AT__m128@@AEBT4@AEAH@Z 00000001801a01d0 f i GuCookingTetrahedronMesh.obj
 0001:0019f390       assembleSoftBodyMesh       00000001801a0390 f   GuCookingTetrahedronMesh.obj
 0001:0019f3f0       assembleSoftBodyMesh_Sim   00000001801a03f0 f   GuCookingTetrahedronMesh.obj
 0001:0019f4a0       computeCollisionData       00000001801a04a0 f   GuCookingTetrahedronMesh.obj
 0001:0019f6a0       computeModelsMapping       00000001801a06a0 f   GuCookingTetrahedronMesh.obj
 0001:0019f7a0       computeSimulationData      00000001801a07a0 f   GuCookingTetrahedronMesh.obj
 0001:0019f970       cookSoftBodyMesh           00000001801a0970 f   GuCookingTetrahedronMesh.obj
 0001:0019ff80       cookTetrahedronMesh        00000001801a0f80 f   GuCookingTetrahedronMesh.obj
 0001:001a0080       createSoftBodyMesh         00000001801a1080 f   GuCookingTetrahedronMesh.obj
 0001:001a0710       createTetrahedronMesh      00000001801a1710 f   GuCookingTetrahedronMesh.obj
 0001:001a2460       ?computeVolumeIntegrals@physx@@YA_NAEBVPxSimpleTriangleMesh@1@MAEAUPxIntegrals@1@@Z 00000001801a3460 f   GuCookingVolumeIntegration.obj
 0001:001a24a0       ?computeVolumeIntegralsEberly@physx@@YA_NAEBVPxConvexMeshDesc@1@MAEAUPxIntegrals@1@AEBV?$PxVec3T@M@1@_N@Z 00000001801a34a0 f   GuCookingVolumeIntegration.obj
 0001:001a2b00       ??0QuickHull@local@@QEAA@AEBUPxCookingParams@physx@@AEBVPxConvexMeshDesc@3@@Z 00000001801a3b00 f   GuCookingQuickHullConvexHullLib.obj
 0001:001a2bb0       ??0QuickHullConvexHullLib@physx@@QEAA@AEBVPxConvexMeshDesc@1@AEBUPxCookingParams@1@@Z 00000001801a3bb0 f   GuCookingQuickHullConvexHullLib.obj
 0001:001a2c90       ??1?$MemBlock@UQuickHullFace@local@@$00@local@@QEAA@XZ 00000001801a3c90 f i GuCookingQuickHullConvexHullLib.obj
 0001:001a2c90       ??1?$MemBlock@UQuickHullHalfEdge@local@@$0A@@local@@QEAA@XZ 00000001801a3c90 f i GuCookingQuickHullConvexHullLib.obj
 0001:001a2d50       ??1QuickHull@local@@QEAA@XZ 00000001801a3d50 f   GuCookingQuickHullConvexHullLib.obj
 0001:001a2eb0       ??_GConvexHull@physx@@QEAAPEAXI@Z 00000001801a3eb0 f i GuCookingQuickHullConvexHullLib.obj
 0001:001a2fa0       ??_EConvexHullLib@physx@@UEAAPEAXI@Z 00000001801a3fa0 f i GuCookingQuickHullConvexHullLib.obj
 0001:001a2fa0       ??_GConvexHullLib@physx@@UEAAPEAXI@Z 00000001801a3fa0 f i GuCookingQuickHullConvexHullLib.obj
 0001:001a2fe0       ??_EQuickHullConvexHullLib@physx@@UEAAPEAXI@Z 00000001801a3fe0 f i GuCookingQuickHullConvexHullLib.obj
 0001:001a2fe0       ??_GQuickHullConvexHullLib@physx@@UEAAPEAXI@Z 00000001801a3fe0 f i GuCookingQuickHullConvexHullLib.obj
 0001:001a3100       ?addPointToHull@QuickHull@local@@IEAA_NPEBUQuickHullVertex@2@AEAUQuickHullFace@2@AEA_N@Z 00000001801a4100 f   GuCookingQuickHullConvexHullLib.obj
 0001:001a33d0       ?addSimplex@QuickHull@local@@IEAA_NPEAUQuickHullVertex@2@_N@Z 00000001801a43d0 f   GuCookingQuickHullConvexHullLib.obj
 0001:001a3910       ?buildHull@QuickHull@local@@QEAA?AW4Enum@QuickHullResult@2@XZ 00000001801a4910 f   GuCookingQuickHullConvexHullLib.obj
 0001:001a3b50       ?calculateHorizon@QuickHull@local@@IEAAXAEBV?$PxVec3T@M@physx@@PEAUQuickHullHalfEdge@2@AEAUQuickHullFace@2@AEAV?$PxArray@PEAUQuickHullHalfEdge@local@@V?$PxReflectionAllocator@PEAUQuickHullHalfEdge@local@@@physx@@@4@AEAV?$PxArray@PEAUQuickHullFace@local@@V?$PxReflectionAllocator@PEAUQuickHullFace@local@@@physx@@@4@@Z 00000001801a4b50 f   GuCookingQuickHullConvexHullLib.obj
 0001:001a3d00       ?canMergeFaces@QuickHull@local@@IEAA_NAEBUQuickHullHalfEdge@2@@Z 00000001801a4d00 f   GuCookingQuickHullConvexHullLib.obj
 0001:001a4520       ?cleanupForSimplex@QuickHullConvexHullLib@physx@@IEAA_NPEAV?$PxVec3T@M@2@IPEAUQuickHullVertex@local@@1AEAM2@Z 00000001801a5520 f   GuCookingQuickHullConvexHullLib.obj
 0001:001a5170       ?computeMinMaxVerts@QuickHull@local@@IEAAXXZ 00000001801a6170 f   GuCookingQuickHullConvexHullLib.obj
 0001:001a5540       ?connectHalfEdges@QuickHullFace@local@@AEAAPEAU12@PEAUQuickHullHalfEdge@2@0@Z 00000001801a6540 f   GuCookingQuickHullConvexHullLib.obj
 0001:001a58b0       ?copy@?$PxArray@UExpandPoint@local@@V?$PxReflectionAllocator@UExpandPoint@local@@@physx@@@physx@@KAXPEAUExpandPoint@local@@0PEBU34@@Z 00000001801a68b0 f i GuCookingQuickHullConvexHullLib.obj
 0001:001a5b10       ?copy@?$PxArray@VPxPlane@physx@@V?$PxReflectionAllocator@VPxPlane@physx@@@2@@physx@@KAXPEAVPxPlane@2@0PEBV32@@Z 00000001801a6b10 f i GuCookingQuickHullConvexHullLib.obj
 0001:001a5c10       ?createConvexHull@QuickHullConvexHullLib@physx@@UEAA?AW4Enum@PxConvexMeshCookingResult@2@XZ 00000001801a6c10 f   GuCookingQuickHullConvexHullLib.obj
 0001:001a6020       ?createEdgeList@QuickHullConvexHullLib@physx@@UEAA_NIPEBEPEAPEAEPEAPEAG2@Z 00000001801a7020 f   GuCookingQuickHullConvexHullLib.obj
 0001:001a6240       ?createTriangle@QuickHull@local@@IEAAPEAUQuickHullFace@2@AEBUQuickHullVertex@2@00@Z 00000001801a7240 f   GuCookingQuickHullConvexHullLib.obj
 0001:001a6600       ?doAdjacentMerge@QuickHull@local@@IEAA_NAEAUQuickHullFace@2@_NAEA_N@Z 00000001801a7600 f   GuCookingQuickHullConvexHullLib.obj
 0001:001a6950       ?expandHull@QuickHullConvexHullLib@physx@@IEAA?AW4Enum@PxConvexMeshCookingResult@2@XZ 00000001801a7950 f   GuCookingQuickHullConvexHullLib.obj
 0001:001a72a0       ?expandHullOBB@QuickHullConvexHullLib@physx@@IEAA?AW4Enum@PxConvexMeshCookingResult@2@XZ 00000001801a82a0 f   GuCookingQuickHullConvexHullLib.obj
 0001:001a76e0       ?fillConvexMeshDesc@QuickHullConvexHullLib@physx@@UEAAXAEAVPxConvexMeshDesc@2@@Z 00000001801a86e0 f   GuCookingQuickHullConvexHullLib.obj
 0001:001a7730       ?fillConvexMeshDescFromCroppedHull@QuickHullConvexHullLib@physx@@IEAAXAEAVPxConvexMeshDesc@2@@Z 00000001801a8730 f   GuCookingQuickHullConvexHullLib.obj
 0001:001a7920       ?fillConvexMeshDescFromQuickHull@QuickHullConvexHullLib@physx@@IEAAXAEAVPxConvexMeshDesc@2@@Z 00000001801a8920 f   GuCookingQuickHullConvexHullLib.obj
 0001:001a7cb0       ?findSimplex@QuickHull@local@@IEAA_NXZ 00000001801a8cb0 f   GuCookingQuickHullConvexHullLib.obj
 0001:001a8900       ?getFreeItem@?$MemBlock@UQuickHullFace@local@@$00@local@@QEAAPEAUQuickHullFace@2@XZ 00000001801a9900 f i GuCookingQuickHullConvexHullLib.obj
 0001:001a8a30       ?getFreeItem@?$MemBlock@UQuickHullHalfEdge@local@@$0A@@local@@QEAAPEAUQuickHullHalfEdge@2@XZ 00000001801a9a30 f i GuCookingQuickHullConvexHullLib.obj
 0001:001a8b00       ?growAndPushBack@?$PxArray@PEAUQuickHullFace@local@@V?$PxReflectionAllocator@PEAUQuickHullFace@local@@@physx@@@physx@@IEAAAEAPEAUQuickHullFace@local@@AEBQEAU34@@Z 00000001801a9b00 f i GuCookingQuickHullConvexHullLib.obj
 0001:001a8c20       ?growAndPushBack@?$PxArray@PEAUQuickHullHalfEdge@local@@V?$PxReflectionAllocator@PEAUQuickHullHalfEdge@local@@@physx@@@physx@@IEAAAEAPEAUQuickHullHalfEdge@local@@AEBQEAU34@@Z 00000001801a9c20 f i GuCookingQuickHullConvexHullLib.obj
 0001:001a8d40       ?growAndPushBack@?$PxArray@PEAUQuickHullVertex@local@@V?$PxReflectionAllocator@PEAUQuickHullVertex@local@@@physx@@@physx@@IEAAAEAPEAUQuickHullVertex@local@@AEBQEAU34@@Z 00000001801a9d40 f i GuCookingQuickHullConvexHullLib.obj
 0001:001a8e60       ?growAndPushBack@?$PxArray@UExpandPoint@local@@V?$PxReflectionAllocator@UExpandPoint@local@@@physx@@@physx@@IEAAAEAUExpandPoint@local@@AEBU34@@Z 00000001801a9e60 f i GuCookingQuickHullConvexHullLib.obj
 0001:001a8fd0       ?growAndPushBack@?$PxArray@VPxPlane@physx@@V?$PxReflectionAllocator@VPxPlane@physx@@@2@@physx@@IEAAAEAVPxPlane@2@AEBV32@@Z 00000001801a9fd0 f i GuCookingQuickHullConvexHullLib.obj
 0001:001a90f0       ?init@?$MemBlock@UQuickHullFace@local@@$00@local@@QEAAXI@Z 00000001801aa0f0 f i GuCookingQuickHullConvexHullLib.obj
 0001:001a91f0       ?init@?$MemBlock@UQuickHullHalfEdge@local@@$0A@@local@@QEAAXI@Z 00000001801aa1f0 f i GuCookingQuickHullConvexHullLib.obj
 0001:001a9290       ?mergeAdjacentFace@QuickHullFace@local@@QEAA_NPEAUQuickHullHalfEdge@2@AEAV?$PxArray@PEAUQuickHullFace@local@@V?$PxReflectionAllocator@PEAUQuickHullFace@local@@@physx@@@physx@@@Z 00000001801aa290 f   GuCookingQuickHullConvexHullLib.obj
 0001:001a96e0       ?nextPointToAdd@QuickHull@local@@IEAAPEAUQuickHullVertex@2@AEAPEAUQuickHullFace@2@@Z 00000001801aa6e0 f   GuCookingQuickHullConvexHullLib.obj
 0001:001a9860       ?parseInputVertices@QuickHull@local@@QEAAXPEBV?$PxVec3T@M@physx@@I@Z 00000001801aa860 f   GuCookingQuickHullConvexHullLib.obj
 0001:001a99e0       ?postMergeHull@QuickHull@local@@IEAAXXZ 00000001801aa9e0 f   GuCookingQuickHullConvexHullLib.obj
 0001:001a9c40       ?preallocate@QuickHull@local@@QEAAXI@Z 00000001801aac40 f   GuCookingQuickHullConvexHullLib.obj
 0001:001a9d80       ?recreate@?$PxArray@PEAUQuickHullFace@local@@V?$PxReflectionAllocator@PEAUQuickHullFace@local@@@physx@@@physx@@IEAAXI@Z 00000001801aad80 f i GuCookingQuickHullConvexHullLib.obj
 0001:001a9e70       ?recreate@?$PxArray@PEAUQuickHullHalfEdge@local@@V?$PxReflectionAllocator@PEAUQuickHullHalfEdge@local@@@physx@@@physx@@IEAAXI@Z 00000001801aae70 f i GuCookingQuickHullConvexHullLib.obj
 0001:001a9f60       ?recreate@?$PxArray@PEAUQuickHullVertex@local@@V?$PxReflectionAllocator@PEAUQuickHullVertex@local@@@physx@@@physx@@IEAAXI@Z 00000001801aaf60 f i GuCookingQuickHullConvexHullLib.obj
 0001:001aa050       ?recreate@?$PxArray@UExpandPoint@local@@V?$PxReflectionAllocator@UExpandPoint@local@@@physx@@@physx@@IEAAXI@Z 00000001801ab050 f i GuCookingQuickHullConvexHullLib.obj
 0001:001aa120       ?recreate@?$PxArray@VPxPlane@physx@@V?$PxReflectionAllocator@VPxPlane@physx@@@2@@physx@@IEAAXI@Z 00000001801ab120 f i GuCookingQuickHullConvexHullLib.obj
 0001:001aa1f0       ?resolveUnclaimedPoints@QuickHull@local@@IEAAXAEBV?$PxArray@PEAUQuickHullFace@local@@V?$PxReflectionAllocator@PEAUQuickHullFace@local@@@physx@@@physx@@@Z 00000001801ab1f0 f   GuCookingQuickHullConvexHullLib.obj
 0001:001aa470       ??$copy@V?$PxReflectionAllocator@VPair@@@physx@@@?$PxArray@VPair@@V?$PxReflectionAllocator@VPair@@@physx@@@physx@@IEAAXAEBV01@@Z 00000001801ab470 f i GuCookingConvexPolygonsBuilder.obj
 0001:001aa4f0       ??0ConvexPolygonsBuilder@physx@@QEAA@PEAUConvexHullData@Gu@1@_N@Z 00000001801ab4f0 f   GuCookingConvexPolygonsBuilder.obj
 0001:001aa510       ??1ConvexPolygonsBuilder@physx@@QEAA@XZ 00000001801ab510 f   GuCookingConvexPolygonsBuilder.obj
 0001:001aad50       ?allocate@?$PxArray@VPair@@V?$PxReflectionAllocator@VPair@@@physx@@@physx@@IEAAPEAVPair@@IPEAI@Z 00000001801abd50 f i GuCookingConvexPolygonsBuilder.obj
 0001:001ab820       ?computeHullPolygons@ConvexPolygonsBuilder@physx@@QEAA_NAEBIPEBV?$PxVec3T@M@2@0PEBI@Z 00000001801ac820 f   GuCookingConvexPolygonsBuilder.obj
 0001:001acae0       ?createPolygonData@ConvexPolygonsBuilder@physx@@AEAA_NXZ 00000001801adae0 f   GuCookingConvexPolygonsBuilder.obj
 0001:001ad520       ?createTrianglesFromPolygons@ConvexPolygonsBuilder@physx@@AEAA_NXZ 00000001801ae520 f   GuCookingConvexPolygonsBuilder.obj
 0001:001aeb90       ?growAndPushBack@?$PxArray@VPair@@V?$PxReflectionAllocator@VPair@@@physx@@@physx@@IEAAAEAVPair@@AEBV3@@Z 00000001801afb90 f i GuCookingConvexPolygonsBuilder.obj
 0001:001aed80       ??0ConvexMeshBuilder@physx@@QEAA@_N@Z 00000001801afd80 f   GuCookingConvexMeshBuilder.obj
 0001:001aedf0       ??1ConvexMeshBuilder@physx@@QEAA@XZ 00000001801afdf0 f   GuCookingConvexMeshBuilder.obj
 0001:001af2b0       ?build@ConvexMeshBuilder@physx@@QEAA_NAEBVPxConvexMeshDesc@2@I_NPEAVConvexHullLib@2@@Z 00000001801b02b0 f   GuCookingConvexMeshBuilder.obj
 0001:001af640       ?checkExtentRadiusRatio@ConvexMeshBuilder@physx@@QEAA_NXZ 00000001801b0640 f   GuCookingConvexMeshBuilder.obj
 0001:001af670       ?computeHullPolygons@ConvexMeshBuilder@physx@@QEAA_NAEBIPEBV?$PxVec3T@M@2@0PEBIAEAVPxAllocatorCallback@2@AEAIAEAPEAV32@4AEAPEAI4AEAPEAUPxHullPolygon@2@@Z 00000001801b0670 f   GuCookingConvexMeshBuilder.obj
 0001:001af890       ?computeMassInfo@ConvexMeshBuilder@physx@@QEAAX_N@Z 00000001801b0890 f   GuCookingConvexMeshBuilder.obj
 0001:001afc80       ?computeSDF@ConvexMeshBuilder@physx@@QEAAXAEBVPxConvexMeshDesc@2@@Z 00000001801b0c80 f   GuCookingConvexMeshBuilder.obj
 0001:001b0140       ?copy@ConvexMeshBuilder@physx@@QEAA_NAEAUConvexHullInitData@Gu@2@@Z 00000001801b1140 f   GuCookingConvexMeshBuilder.obj
 0001:001b02a0       ?loadConvexHull@ConvexMeshBuilder@physx@@QEAA_NAEBVPxConvexMeshDesc@2@PEAVConvexHullLib@2@@Z 00000001801b12a0 f   GuCookingConvexMeshBuilder.obj
 0001:001b04f0       ?save@ConvexMeshBuilder@physx@@QEBA_NAEAVPxOutputStream@2@_N@Z 00000001801b14f0 f   GuCookingConvexMeshBuilder.obj
 0001:001b0910       ??0ConvexHull@physx@@QEAA@AEBV?$PxVec3T@M@1@AEBV?$PxTransformT@M@1@AEBV?$PxArray@VPxPlane@physx@@V?$PxReflectionAllocator@VPxPlane@physx@@@2@@1@@Z 00000001801b1910 f   GuCookingConvexHullUtils.obj
 0001:001b19c0       ?assertIntact@ConvexHull@physx@@QEBA_NM@Z 00000001801b29c0 f   GuCookingConvexHullUtils.obj
 0001:001b1cc0       ?computeOBBFromConvex@physx@@YA_NAEBVPxConvexMeshDesc@1@AEAV?$PxVec3T@M@1@AEAV?$PxTransformT@M@1@@Z 00000001801b2cc0 f   GuCookingConvexHullUtils.obj
 0001:001b2380       ?computeOBBSIMD@local@@YAXIPEBT__m128@@AEAT2@AEBT2@1@Z 00000001801b3380 f   GuCookingConvexHullUtils.obj
 0001:001b2730       ?convexHullCrop@physx@@YAPEAVConvexHull@1@AEBV21@AEBVPxPlane@1@M@Z 00000001801b3730 f   GuCookingConvexHullUtils.obj
 0001:001b3540       ?findCandidatePlane@ConvexHull@physx@@QEBAHMM@Z 00000001801b4540 f   GuCookingConvexHullUtils.obj
 0001:001b3970       ?growAndPushBack@?$PxArray@VHalfEdge@ConvexHull@physx@@V?$PxReflectionAllocator@VHalfEdge@ConvexHull@physx@@@3@@physx@@IEAAAEAVHalfEdge@ConvexHull@2@AEBV342@@Z 00000001801b4970 f i GuCookingConvexHullUtils.obj
 0001:001b3a90       ?maxNumVertsPerFace@ConvexHull@physx@@QEBAIXZ 00000001801b4a90 f   GuCookingConvexHullUtils.obj
 0001:001b3b00       ?recreate@?$PxArray@VHalfEdge@ConvexHull@physx@@V?$PxReflectionAllocator@VHalfEdge@ConvexHull@physx@@@3@@physx@@IEAAXI@Z 00000001801b4b00 f i GuCookingConvexHullUtils.obj
 0001:001b3bf0       ?resize@?$PxArray@VHalfEdge@ConvexHull@physx@@V?$PxReflectionAllocator@VHalfEdge@ConvexHull@physx@@@3@@physx@@QEAAXIAEBVHalfEdge@ConvexHull@2@@Z 00000001801b4bf0 f i GuCookingConvexHullUtils.obj
 0001:001b3cb0       ?resize@?$PxArray@VPxPlane@physx@@V?$PxReflectionAllocator@VPxPlane@physx@@@2@@physx@@QEAAXIAEBVPxPlane@2@@Z 00000001801b4cb0 f i GuCookingConvexHullUtils.obj
 0001:001b3dd0       ??1ConvexHullLib@physx@@UEAA@XZ 00000001801b4dd0 f   GuCookingConvexHullLib.obj
 0001:001b4390       ?cleanupVertices@ConvexHullLib@physx@@IEAA_NIPEBV?$PxVec3T@M@2@IAEAIPEAV32@@Z 00000001801b5390 f   GuCookingConvexHullLib.obj
 0001:001b44d0       ?shiftAndcleanupVertices@ConvexHullLib@physx@@IEAA_NIPEBV?$PxVec3T@M@2@IAEAIPEAV32@@Z 00000001801b54d0 f   GuCookingConvexHullLib.obj
 0001:001b4aa0       ?shiftConvexMeshDesc@ConvexHullLib@physx@@IEAAXAEAVPxConvexMeshDesc@2@@Z 00000001801b5aa0 f   GuCookingConvexHullLib.obj
 0001:001b4b60       ?swapLargestFace@ConvexHullLib@physx@@IEAAXAEAVPxConvexMeshDesc@2@@Z 00000001801b5b60 f   GuCookingConvexHullLib.obj
 0001:001b4d90       ??0ConvexHullBuilder@physx@@QEAA@PEAUConvexHullData@Gu@1@_N@Z 00000001801b5d90 f   GuCookingConvexHullBuilder.obj
 0001:001b4dc0       ??1ConvexHullBuilder@physx@@QEAA@XZ 00000001801b5dc0 f   GuCookingConvexHullBuilder.obj
 0001:001b4ed0       ?calculateVertexMapTable@ConvexHullBuilder@physx@@QEAA_NI_N@Z 00000001801b5ed0 f   GuCookingConvexHullBuilder.obj
 0001:001b5090       ?checkHullPolygons@ConvexHullBuilder@physx@@QEBA_NXZ 00000001801b6090 f   GuCookingConvexHullBuilder.obj
 0001:001b5830       ?copy@ConvexHullBuilder@physx@@QEAA_NAEAUConvexHullData@Gu@2@AEAI@Z 00000001801b6830 f   GuCookingConvexHullBuilder.obj
 0001:001b5ab0       ?createEdgeList@ConvexHullBuilder@physx@@QEAA_N_NI@Z 00000001801b6ab0 f   GuCookingConvexHullBuilder.obj
 0001:001b61f0       ?init@ConvexHullBuilder@physx@@QEAA_NIPEBV?$PxVec3T@M@2@PEBIIIPEBUPxHullPolygon@2@_NPEAVConvexHullLib@2@@Z 00000001801b71f0 f   GuCookingConvexHullBuilder.obj
 0001:001b6b50       ?save@ConvexHullBuilder@physx@@QEBA_NAEAVPxOutputStream@2@_N@Z 00000001801b7b50 f   GuCookingConvexHullBuilder.obj
 0001:001b6e90       ??0BigConvexDataBuilder@physx@@QEAA@PEBUConvexHullData@Gu@1@PEAVBigConvexData@1@PEBV?$PxVec3T@M@1@@Z 00000001801b7e90 f   GuCookingBigConvexDataBuilder.obj
 0001:001b6ea0       ?computeValencies@BigConvexDataBuilder@physx@@QEAA_NAEBVConvexHullBuilder@2@@Z 00000001801b7ea0 f   GuCookingBigConvexDataBuilder.obj
 0001:001b7270       ?precompute@BigConvexDataBuilder@physx@@QEAA_NI@Z 00000001801b8270 f   GuCookingBigConvexDataBuilder.obj
 0001:001b7eb0       ?save@BigConvexDataBuilder@physx@@QEBA_NAEAVPxOutputStream@2@_N@Z 00000001801b8eb0 f   GuCookingBigConvexDataBuilder.obj
 0001:001b809e       __tailMerge_physxfoundation_64_dll 00000001801b909e     PhysXFoundation_64:PhysXFoundation_64.dll
 0001:001b8117       __imp_load_PxGetFoundation 00000001801b9117 f   PhysXFoundation_64:PhysXFoundation_64.dll
 0001:001b8123       __imp_load_PxGetBroadcastAllocator 00000001801b9123 f   PhysXFoundation_64:PhysXFoundation_64.dll
 0001:001b812f       __imp_load_?PxAtomicIncrement@physx@@YAHPECH@Z 00000001801b912f f   PhysXFoundation_64:PhysXFoundation_64.dll
 0001:001b813b       __imp_load_??0PxMutexImpl@physx@@QEAA@XZ 00000001801b913b f   PhysXFoundation_64:PhysXFoundation_64.dll
 0001:001b8147       __imp_load_??1PxMutexImpl@physx@@QEAA@XZ 00000001801b9147 f   PhysXFoundation_64:PhysXFoundation_64.dll
 0001:001b8153       __imp_load_?lock@PxMutexImpl@physx@@QEAAXXZ 00000001801b9153 f   PhysXFoundation_64:PhysXFoundation_64.dll
 0001:001b815f       __imp_load_?unlock@PxMutexImpl@physx@@QEAAXXZ 00000001801b915f f   PhysXFoundation_64:PhysXFoundation_64.dll
 0001:001b816b       __imp_load_?getSize@PxMutexImpl@physx@@SAIXZ 00000001801b916b f   PhysXFoundation_64:PhysXFoundation_64.dll
 0001:001b8177       __imp_load_?PxTransformFromSegment@physx@@YA?AV?$PxTransformT@M@1@AEBV?$PxVec3T@M@1@0PEAM@Z 00000001801b9177 f   PhysXFoundation_64:PhysXFoundation_64.dll
 0001:001b8183       __imp_load_?PxAtomicAdd@physx@@YAHPECHH@Z 00000001801b9183 f   PhysXFoundation_64:PhysXFoundation_64.dll
 0001:001b818f       __imp_load_?getDefaultStackSize@PxThreadImpl@physx@@SAIXZ 00000001801b918f f   PhysXFoundation_64:PhysXFoundation_64.dll
 0001:001b819b       __imp_load_??0PxThreadImpl@physx@@QEAA@P6APEAXPEAX@Z0PEBD@Z 00000001801b919b f   PhysXFoundation_64:PhysXFoundation_64.dll
 0001:001b81a7       __imp_load_??1PxThreadImpl@physx@@QEAA@XZ 00000001801b91a7 f   PhysXFoundation_64:PhysXFoundation_64.dll
 0001:001b81b3       __imp_load_?start@PxThreadImpl@physx@@QEAAXIPEAVPxRunnable@2@@Z 00000001801b91b3 f   PhysXFoundation_64:PhysXFoundation_64.dll
 0001:001b81bf       __imp_load_?waitForQuit@PxThreadImpl@physx@@QEAA_NXZ 00000001801b91bf f   PhysXFoundation_64:PhysXFoundation_64.dll
 0001:001b81cb       __imp_load_?getSize@PxThreadImpl@physx@@SAIXZ 00000001801b91cb f   PhysXFoundation_64:PhysXFoundation_64.dll
 0001:001b81d7       __imp_load_?allocate@PxTempAllocator@physx@@QEAAPEAX_KPEBDH@Z 00000001801b91d7 f   PhysXFoundation_64:PhysXFoundation_64.dll
 0001:001b81e3       __imp_load_?deallocate@PxTempAllocator@physx@@QEAAXPEAX@Z 00000001801b91e3 f   PhysXFoundation_64:PhysXFoundation_64.dll
 0001:001b81ef       __imp_load_?PxOptimizeBoundingBox@physx@@YA?AV?$PxVec3T@M@1@AEAV?$PxMat33T@M@1@@Z 00000001801b91ef f   PhysXFoundation_64:PhysXFoundation_64.dll
 0001:001b81fb       __imp_load_?Pxstrcmp@physx@@YAHPEBD0@Z 00000001801b91fb f   PhysXFoundation_64:PhysXFoundation_64.dll
 0001:001b8207       __imp_load_?PxAtomicDecrement@physx@@YAHPECH@Z 00000001801b9207 f   PhysXFoundation_64:PhysXFoundation_64.dll
 0001:001b8213       __imp_load_??0PxFPUGuard@physx@@QEAA@XZ 00000001801b9213 f   PhysXFoundation_64:PhysXFoundation_64.dll
 0001:001b821f       __imp_load_??1PxFPUGuard@physx@@QEAA@XZ 00000001801b921f f   PhysXFoundation_64:PhysXFoundation_64.dll
 0001:001b822b       __imp_load_?PxDiagonalize@physx@@YA?AV?$PxVec3T@M@1@AEBV?$PxMat33T@M@1@AEAV?$PxQuatT@M@1@@Z 00000001801b922b f   PhysXFoundation_64:PhysXFoundation_64.dll
 0001:001b8324       ?DloadAcquireSectionWriteAccess@@YAXXZ 00000001801b9324 f i Delayimp:delayhlp.obj
 0001:001b83e0       ?DloadGetSRWLockFunctionPointers@@YAEXZ 00000001801b93e0 f i Delayimp:delayhlp.obj
 0001:001b8480       ?DloadMakePermanentImageCommit@@YAXPEAX_K@Z 00000001801b9480 f i Delayimp:delayhlp.obj
 0001:001b8518       ?DloadObtainSection@@YAPEAXPEAK0@Z 00000001801b9518 f i Delayimp:delayhlp.obj
 0001:001b85b4       ?DloadProtectSection@@YAXPEAX_KKPEAK@Z 00000001801b95b4 f i Delayimp:delayhlp.obj
 0001:001b86ac       ?DloadReleaseSectionWriteAccess@@YAXXZ 00000001801b96ac f i Delayimp:delayhlp.obj
 0001:001b8758       __delayLoadHelper2         00000001801b9758 f   Delayimp:delayhlp.obj
 0001:001b8a54       ??3@YAXPEAX_K@Z            00000001801b9a54 f   LIBCMT:delete_scalar_size.obj
 0001:001b8a54       ??_V@YAXPEAX@Z             00000001801b9a54 f   LIBCMT:delete_array.obj
 0001:001b8a5c       ??_Etype_info@@UEAAPEAXI@Z 00000001801b9a5c f i LIBCMT:std_type_info_static.obj
 0001:001b8a5c       ??_Gtype_info@@UEAAPEAXI@Z 00000001801b9a5c f i LIBCMT:std_type_info_static.obj
 0001:001b8a88       ?__scrt_initialize_type_info@@YAXXZ 00000001801b9a88 f   LIBCMT:tncleanup.obj
 0001:001b8a98       ?__scrt_uninitialize_type_info@@YAXXZ 00000001801b9a98 f   LIBCMT:tncleanup.obj
 0001:001b8ac0       __chkstk                   00000001801b9ac0 f   LIBCMT:chkstk.obj
 0001:001b8ac0       _alloca_probe              00000001801b9ac0 f   LIBCMT:chkstk.obj
 0001:001b8b10       __vdecl_sinf4              00000001801b9b10 f   LIBCMT:svml_ssinf4_dispatch.obj
 0001:001b8b30       __libm_sse2_sincosf_       00000001801b9b30 f   LIBCMT:svml_ssinf4_dispatch.obj
 0001:001b8b73       __libm_sse2_sincosf4_      00000001801b9b73 f   LIBCMT:svml_ssinf4_dispatch.obj
 0001:001b8b80       ??3@YAXPEAX@Z              00000001801b9b80 f   LIBCMT:delete_scalar.obj
 0001:001b8b88       __scrt_acquire_startup_lock 00000001801b9b88 f   LIBCMT:utility.obj
 0001:001b8bc4       __scrt_dllmain_after_initialize_c 00000001801b9bc4 f   LIBCMT:utility.obj
 0001:001b8bf8       __scrt_dllmain_before_initialize_c 00000001801b9bf8 f   LIBCMT:utility.obj
 0001:001b8c10       __scrt_dllmain_crt_thread_attach 00000001801b9c10 f   LIBCMT:utility.obj
 0001:001b8c38       __scrt_dllmain_crt_thread_detach 00000001801b9c38 f   LIBCMT:utility.obj
 0001:001b8c50       __scrt_dllmain_exception_filter 00000001801b9c50 f   LIBCMT:utility.obj
 0001:001b8cb0       __scrt_dllmain_uninitialize_c 00000001801b9cb0 f   LIBCMT:utility.obj
 0001:001b8ce0       __scrt_dllmain_uninitialize_critical 00000001801b9ce0 f   LIBCMT:utility.obj
 0001:001b8cf4       __scrt_initialize_crt      00000001801b9cf4 f   LIBCMT:utility.obj
 0001:001b8d30       __scrt_initialize_onexit_tables 00000001801b9d30 f   LIBCMT:utility.obj
 0001:001b8dbc       __scrt_is_nonwritable_in_current_image 00000001801b9dbc f   LIBCMT:utility.obj
 0001:001b8e54       __scrt_release_startup_lock 00000001801b9e54 f   LIBCMT:utility.obj
 0001:001b8e78       __scrt_uninitialize_crt    00000001801b9e78 f   LIBCMT:utility.obj
 0001:001b8ea4       _onexit                    00000001801b9ea4 f   LIBCMT:utility.obj
 0001:001b8ee0       atexit                     00000001801b9ee0 f   LIBCMT:utility.obj
 0001:001b8ef8       __isa_available_init       00000001801b9ef8 f   LIBCMT:cpu_disp.obj
 0001:001b94d4       _DllMainCRTStartup         00000001801ba4d4 f   LIBCMT:dll_dllmain.obj
 0001:001b9520       __sse2_sinf4@@16           00000001801ba520 f   LIBCMT:svml_ssinf4_sse2.obj
 0001:001b9e60       __sse4_sinf4@@16           00000001801bae60 f   LIBCMT:svml_ssinf4_sse4.obj
 0001:001ba5d4       __scrt_is_ucrt_dll_in_use  00000001801bb5d4 f   LIBCMT:ucrt_detection.obj
 0001:001ba5e0       __crt_debugger_hook        00000001801bb5e0 f   LIBCMT:utility_desktop.obj
 0001:001ba5e8       __scrt_fastfail            00000001801bb5e8 f   LIBCMT:utility_desktop.obj
 0001:001ba730       __security_init_cookie     00000001801bb730 f   LIBCMT:gs_support.obj
 0001:001ba7dc       __local_stdio_scanf_options 00000001801bb7dc f i LIBCMT:default_local_stdio_options.obj
 0001:001ba7e4       __scrt_initialize_default_local_stdio_options 00000001801bb7e4 f   LIBCMT:default_local_stdio_options.obj
 0001:001ba800       __scrt_get_dyn_tls_init_callback 00000001801bb800 f   LIBCMT:dyn_tls_init.obj
 0001:001ba808       _RTC_Initialize            00000001801bb808 f   LIBCMT:initsect.obj
 0001:001ba844       _RTC_Terminate             00000001801bb844 f   LIBCMT:initsect.obj
 0001:001ba880       __common_ssin_cout_rare    00000001801bb880 f   LIBCMT:svml_s_sin_cout.obj
 0001:001ba8f0       _get_purecall_handler      00000001801bb8f0 f   libvcruntime:purevirt.obj
 0001:001ba8fc       _purecall                  00000001801bb8fc f   libvcruntime:purevirt.obj
 0001:001ba920       __std_type_info_compare    00000001801bb920 f   libvcruntime:std_type_info.obj
 0001:001ba948       __std_type_info_destroy_list 00000001801bb948 f   libvcruntime:std_type_info.obj
 0001:001ba974       __std_type_info_name       00000001801bb974 f   libvcruntime:std_type_info.obj
 0001:001baa90       strstr                     00000001801bba90 f   libvcruntime:strstr.obj
 0001:001bac78       __vcrt_initialize          00000001801bbc78 f   libvcruntime:initialization.obj
 0001:001baca0       __vcrt_thread_attach       00000001801bbca0 f   libvcruntime:initialization.obj
 0001:001bacb4       __vcrt_thread_detach       00000001801bbcb4 f   libvcruntime:initialization.obj
 0001:001bacc4       __vcrt_uninitialize        00000001801bbcc4 f   libvcruntime:initialization.obj
 0001:001bace0       __vcrt_uninitialize_critical 00000001801bbce0 f   libvcruntime:initialization.obj
 0001:001bacf0       __C_specific_handler       00000001801bbcf0 f   libvcruntime:riscchandler.obj
 0001:001baf08       __DestructExceptionObject  00000001801bbf08 f   libvcruntime:ehhelpers.obj
 0001:001baf78       ?_CallMemberFunction0@@YAXQEAX0@Z 00000001801bbf78 f i libvcruntime:ehhelpers.obj
 0001:001baf7c       _IsExceptionObjectToBeDestroyed 00000001801bbf7c f   libvcruntime:ehhelpers.obj
 0001:001bafac       __AdjustPointer            00000001801bbfac f   libvcruntime:ehhelpers.obj
 0001:001bafd0       __FrameUnwindFilter        00000001801bbfd0 f   libvcruntime:ehhelpers.obj
 0001:001bb038       __std_terminate            00000001801bc038 f   libvcruntime:ehhelpers.obj
 0001:001bb044       ??$?0$00@DName@@QEAA@PEBDU?$StringLifeSelector@$00@@@Z 00000001801bc044 f i libvcruntime:undname.obj
 0001:001bb084       ??$?0$01@DName@@QEAA@PEBDU?$StringLifeSelector@$01@@@Z 00000001801bc084 f i libvcruntime:undname.obj
 0001:001bb084       ??$?0$0A@@DName@@QEAA@PEBDU?$StringLifeSelector@$0A@@@@Z 00000001801bc084 f i libvcruntime:undname.obj
 0001:001bb0c4       ??$?0$01@pcharNode@@QEAA@PEBDHU?$StringLifeSelector@$01@@@Z 00000001801bc0c4 f i libvcruntime:undname.obj
 0001:001bb0c4       ??$?0$0A@@pcharNode@@QEAA@PEBDHU?$StringLifeSelector@$0A@@@@Z 00000001801bc0c4 f i libvcruntime:undname.obj
 0001:001bb138       ??$append@VDNameNode@@@DName@@AEAAXPEBVDNameNode@@@Z 00000001801bc138 f i libvcruntime:undname.obj
 0001:001bb138       ??$append@VDNameStatusNode@@@DName@@AEAAXPEBVDNameStatusNode@@@Z 00000001801bc138 f i libvcruntime:undname.obj
 0001:001bb138       ??$append@VcharNode@@@DName@@AEAAXPEBVcharNode@@@Z 00000001801bc138 f i libvcruntime:undname.obj
 0001:001bb138       ??$append@VpcharNode@@@DName@@AEAAXPEBVpcharNode@@@Z 00000001801bc138 f i libvcruntime:undname.obj
 0001:001bb19c       ??$doPchar@$00@DName@@AEAAXPEBDH@Z 00000001801bc19c f i libvcruntime:undname.obj
 0001:001bb234       ??$doPchar@$01@DName@@AEAAXPEBDH@Z 00000001801bc234 f i libvcruntime:undname.obj
 0001:001bb234       ??$doPchar@$0A@@DName@@AEAAXPEBDH@Z 00000001801bc234 f i libvcruntime:undname.obj
 0001:001bb2cc       ??0DName@@QEAA@AEAPEBDD@Z  00000001801bc2cc f   libvcruntime:undname.obj
 0001:001bb380       ??0DName@@QEAA@AEBUStringLiteral@@@Z 00000001801bc380 f   libvcruntime:undname.obj
 0001:001bb3ac       ??0DName@@QEAA@PEAV0@@Z    00000001801bc3ac f   libvcruntime:undname.obj
 0001:001bb430       ??0DName@@QEAA@_J@Z        00000001801bc430 f   libvcruntime:undname.obj
 0001:001bb4d4       ??0DName@@QEAA@_K@Z        00000001801bc4d4 f   libvcruntime:undname.obj
 0001:001bb55c       ??0UnDecorator@@QEAA@PEBDP6APEADJ@ZK@Z 00000001801bc55c f i libvcruntime:undname.obj
 0001:001bb610       ??2@YAPEAX_KAEAV_HeapManager@@H@Z 00000001801bc610 f   libvcruntime:undname.obj
 0001:001bb63c       ??4DName@@QEAAAEAV0@W4DNameStatus@@@Z 00000001801bc63c f   libvcruntime:undname.obj
 0001:001bb66c       ??AReplicator@@QEBA?AVDName@@H@Z 00000001801bc66c f   libvcruntime:undname.obj
 0001:001bb6ac       ??HDName@@QEBA?AV0@AEBUStringLiteral@@@Z 00000001801bc6ac f   libvcruntime:undname.obj
 0001:001bb6d8       ??HDName@@QEBA?AV0@AEBV0@@Z 00000001801bc6d8 f   libvcruntime:undname.obj
 0001:001bb704       ??HDName@@QEBA?AV0@D@Z     00000001801bc704 f   libvcruntime:undname.obj
 0001:001bb730       ??HDName@@QEBA?AV0@W4DNameStatus@@@Z 00000001801bc730 f   libvcruntime:undname.obj
 0001:001bb75c       ??YDName@@QEAAAEAV0@AEBUStringLiteral@@@Z 00000001801bc75c f   libvcruntime:undname.obj
 0001:001bb7dc       ??YDName@@QEAAAEAV0@AEBV0@@Z 00000001801bc7dc f   libvcruntime:undname.obj
 0001:001bb834       ??YDName@@QEAAAEAV0@D@Z    00000001801bc834 f   libvcruntime:undname.obj
 0001:001bb8a0       ??YDName@@QEAAAEAV0@W4DNameStatus@@@Z 00000001801bc8a0 f   libvcruntime:undname.obj
 0001:001bb8f8       ??YReplicator@@QEAAAEAV0@AEBVDName@@@Z 00000001801bc8f8 f   libvcruntime:undname.obj
 0001:001bb950       ?UScore@UnDecorator@@SA?AUStringLiteral@@W4Tokens@@@Z 00000001801bc950 f   libvcruntime:undname.obj
 0001:001bb99c       ?composeDeclaration@UnDecorator@@CA?AVDName@@AEBV2@@Z 00000001801bc99c f i libvcruntime:undname.obj
 0001:001bc958       ?doPchar@DName@@AEAAXD@Z   00000001801bd958 f   libvcruntime:undname.obj
 0001:001bc9a8       ?getAddressOf@UnDecorator@@CA?AVDName@@XZ 00000001801bd9a8 f   libvcruntime:undname.obj
 0001:001bca38       ?getArgumentList@UnDecorator@@CA?AVDName@@XZ 00000001801bda38 f   libvcruntime:undname.obj
 0001:001bcbbc       ?getArgumentTypes@UnDecorator@@CA?AVDName@@XZ 00000001801bdbbc f   libvcruntime:undname.obj
 0001:001bcd08       ?getArrayAccess@UnDecorator@@CA?AVDName@@XZ 00000001801bdd08 f   libvcruntime:undname.obj
 0001:001bcda4       ?getArrayObject@UnDecorator@@CA?AVDName@@XZ 00000001801bdda4 f   libvcruntime:undname.obj
 0001:001bce74       ?getArrayType@UnDecorator@@CA?AVDName@@AEBV2@@Z 00000001801bde74 f i libvcruntime:undname.obj
 0001:001bd0d0       ?getBasedType@UnDecorator@@CA?AVDName@@XZ 00000001801be0d0 f   libvcruntime:undname.obj
 0001:001bd1c8       ?getBasicDataType@UnDecorator@@CA?AVDName@@AEBV2@@Z 00000001801be1c8 f   libvcruntime:undname.obj
 0001:001bd7c8       ?getCallingConvention@UnDecorator@@CA?AVDName@@XZ 00000001801be7c8 f   libvcruntime:undname.obj
 0001:001bd8e8       ?getDataIndirectType@UnDecorator@@CA?AVDName@@AEBV2@W4IndirectionKind@@0H@Z 00000001801be8e8 f   libvcruntime:undname.obj
 0001:001be230       ?getDataType@UnDecorator@@CA?AVDName@@PEAV2@@Z 00000001801bf230 f   libvcruntime:undname.obj
 0001:001be344       ?getDecoratedName@UnDecorator@@CA?AVDName@@XZ 00000001801bf344 f   libvcruntime:undname.obj
 0001:001be62c       ?getDimension@UnDecorator@@CA?AVDName@@_N@Z 00000001801bf62c f   libvcruntime:undname.obj
 0001:001be774       ?getDispatchTarget@UnDecorator@@CA?AVDName@@XZ 00000001801bf774 f   libvcruntime:undname.obj
 0001:001be7d4       ?getECSUDataType@UnDecorator@@CA?AVDName@@XZ 00000001801bf7d4 f   libvcruntime:undname.obj
 0001:001be9d0       ?getEnumType@UnDecorator@@CA?AVDName@@XZ 00000001801bf9d0 f i libvcruntime:undname.obj
 0001:001beaf8       ?getExtendedDataIndirectType@UnDecorator@@CA?AVDName@@AEAW4IndirectionKind@@AEA_NH@Z 00000001801bfaf8 f   libvcruntime:undname.obj
 0001:001bed64       ?getExternalDataType@UnDecorator@@CA?AVDName@@AEBV2@@Z 00000001801bfd64 f i libvcruntime:undname.obj
 0001:001bee24       ?getFloatingPoint@UnDecorator@@CA?AVDName@@H@Z 00000001801bfe24 f   libvcruntime:undname.obj
 0001:001bef8c       ?getFunctionIndirectType@UnDecorator@@CA?AVDName@@AEBV2@@Z 00000001801bff8c f   libvcruntime:undname.obj
 0001:001bf4c0       ?getLastChar@DNameStatusNode@@UEBADXZ 00000001801c04c0 f i libvcruntime:undname.obj
 0001:001bf4cc       ?getLastChar@charNode@@UEBADXZ 00000001801c04cc f i libvcruntime:undname.obj
 0001:001bf4d0       ?getLastChar@pDNameNode@@UEBADXZ 00000001801c04d0 f i libvcruntime:undname.obj
 0001:001bf4fc       ?getLastChar@pairNode@@UEBADXZ 00000001801c04fc f i libvcruntime:undname.obj
 0001:001bf534       ?getLastChar@pcharNode@@UEBADXZ 00000001801c0534 f i libvcruntime:undname.obj
 0001:001bf548       ?getLexicalFrame@UnDecorator@@CA?AVDName@@XZ 00000001801c0548 f i libvcruntime:undname.obj
 0001:001bf5ac       ?getMemberAccess@UnDecorator@@CA?AVDName@@XZ 00000001801c05ac f   libvcruntime:undname.obj
 0001:001bf640       ?getMemoryWithBuffer@_HeapManager@@QEAAPEAX_K@Z 00000001801c0640 f   libvcruntime:undname.obj
 0001:001bf6d0       ?getNoexcept@UnDecorator@@CA?AVDName@@XZ 00000001801c06d0 f   libvcruntime:undname.obj
 0001:001bf734       ?getNumberOfDimensions@UnDecorator@@CAHXZ 00000001801c0734 f   libvcruntime:undname.obj
 0001:001bf790       ?getOperatorName@UnDecorator@@CA?AVDName@@_NPEA_N@Z 00000001801c0790 f i libvcruntime:undname.obj
 0001:001c012c       ?getPointerToMember@UnDecorator@@CA?AVDName@@XZ 00000001801c112c f   libvcruntime:undname.obj
 0001:001c0224       ?getPrimaryDataType@UnDecorator@@CA?AVDName@@AEBV2@@Z 00000001801c1224 f   libvcruntime:undname.obj
 0001:001c04dc       ?getPtrRefDataType@UnDecorator@@CA?AVDName@@AEBV2@H@Z 00000001801c14dc f   libvcruntime:undname.obj
 0001:001c06a8       ?getPtrRefType@UnDecorator@@CA?AVDName@@AEBV2@0W4IndirectionKind@@@Z 00000001801c16a8 f   libvcruntime:undname.obj
 0001:001c0890       ?getRestrictionSpec@UnDecorator@@CA?AVDName@@XZ 00000001801c1890 f   libvcruntime:undname.obj
 0001:001c0a6c       ?getReturnType@UnDecorator@@CA?AVDName@@PEAV2@@Z 00000001801c1a6c f   libvcruntime:undname.obj
 0001:001c0aa0       ?getScope@UnDecorator@@CA?AVDName@@XZ 00000001801c1aa0 f   libvcruntime:undname.obj
 0001:001c0f58       ?getScopedName@UnDecorator@@CA?AVDName@@XZ 00000001801c1f58 f   libvcruntime:undname.obj
 0001:001c109c       ?getSignedDimension@UnDecorator@@CA?AVDName@@XZ 00000001801c209c f   libvcruntime:undname.obj
 0001:001c1124       ?getString@DNameStatusNode@@UEBAPEADPEAD0@Z 00000001801c2124 f i libvcruntime:undname.obj
 0001:001c116c       ?getString@charNode@@UEBAPEADPEAD0@Z 00000001801c216c f i libvcruntime:undname.obj
 0001:001c1180       ?getString@pDNameNode@@UEBAPEADPEAD0@Z 00000001801c2180 f i libvcruntime:undname.obj
 0001:001c11b0       ?getString@pairNode@@UEBAPEADPEAD0@Z 00000001801c21b0 f i libvcruntime:undname.obj
 0001:001c11fc       ?getString@pcharNode@@UEBAPEADPEAD0@Z 00000001801c21fc f i libvcruntime:undname.obj
 0001:001c1234       ?getStringEncoding@UnDecorator@@CA?AVDName@@W4PrefixKind@@H@Z 00000001801c2234 f   libvcruntime:undname.obj
 0001:001c1344       ?getStringObject@UnDecorator@@CA?AVDName@@XZ 00000001801c2344 f   libvcruntime:undname.obj
 0001:001c13d4       ?getSymbolName@UnDecorator@@CA?AVDName@@XZ 00000001801c23d4 f i libvcruntime:undname.obj
 0001:001c1420       ?getTemplateArgumentList@UnDecorator@@CA?AVDName@@XZ 00000001801c2420 f   libvcruntime:undname.obj
 0001:001c1640       ?getTemplateName@UnDecorator@@CA?AVDName@@_N@Z 00000001801c2640 f   libvcruntime:undname.obj
 0001:001c18f0       ?getTemplateNonTypeArgument@UnDecorator@@CA?AVDName@@XZ 00000001801c28f0 f   libvcruntime:undname.obj
 0001:001c1e40       ?getTemplateTypeArgument@UnDecorator@@CA?AVDName@@XZ 00000001801c2e40 f   libvcruntime:undname.obj
 0001:001c1fa8       ?getThrowTypes@UnDecorator@@CA?AVDName@@XZ 00000001801c2fa8 f   libvcruntime:undname.obj
 0001:001c1fcc       ?getTypeEncoding@UnDecorator@@CAHXZ 00000001801c2fcc f i libvcruntime:undname.obj
 0001:001c2388       ?getUndecoratedName@UnDecorator@@QEAAPEADPEADH@Z 00000001801c3388 f i libvcruntime:undname.obj
 0001:001c24e8       ?getUnionObject@UnDecorator@@CA?AVDName@@XZ 00000001801c34e8 f   libvcruntime:undname.obj
 0001:001c25c0       ?getVCallThunkType@UnDecorator@@CA?AVDName@@XZ 00000001801c35c0 f i libvcruntime:undname.obj
 0001:001c2638       ?getValue@UnDecorator@@CA?AV?$optional@_K@std@@XZ 00000001801c3638 f   libvcruntime:undname.obj
 0001:001c267c       ?getValueObject@UnDecorator@@CA?AVDName@@XZ 00000001801c367c f   libvcruntime:undname.obj
 0001:001c2800       ?getVdispMapType@UnDecorator@@CA?AVDName@@AEBV2@@Z 00000001801c3800 f i libvcruntime:undname.obj
 0001:001c287c       ?getVfTableType@UnDecorator@@CA?AVDName@@AEBV2@@Z 00000001801c387c f i libvcruntime:undname.obj
 0001:001c2a88       ?getZName@UnDecorator@@CA?AVDName@@_N0@Z 00000001801c3a88 f   libvcruntime:undname.obj
 0001:001c2d5c       ?length@pDNameNode@@UEBAHXZ 00000001801c3d5c f i libvcruntime:undname.obj
 0001:001c2d84       ?length@pairNode@@UEBAHXZ  00000001801c3d84 f i libvcruntime:undname.obj
 0001:001c2dcc       ?parseDecoratedName@UnDecorator@@CA?AVDName@@XZ 00000001801c3dcc f   libvcruntime:undname.obj
 0001:001c2ee4       ?raw_length@pDNameNode@@UEBAHXZ 00000001801c3ee4 f i libvcruntime:undname.obj
 0001:001c2ee8       ?raw_length@pairNode@@UEBAHXZ 00000001801c3ee8 f i libvcruntime:undname.obj
 0001:001c2eec       __unDName                  00000001801c3eec f   libvcruntime:undname.obj
 0001:001c2f14       __unDNameEx                00000001801c3f14 f   libvcruntime:undname.obj
 0001:001c3004       snprintf                   00000001801c4004 f i libvcruntime:undname.obj
 0001:001c305c       sprintf_s                  00000001801c405c f i libvcruntime:undname.obj
 0001:001c30b0       __vcrt_freefls             00000001801c40b0 f   libvcruntime:per_thread_data.obj
 0001:001c30d0       __vcrt_freeptd_for_this_thread 00000001801c40d0 f   libvcruntime:per_thread_data.obj
 0001:001c3118       __vcrt_getptd              00000001801c4118 f   libvcruntime:per_thread_data.obj
 0001:001c3134       __vcrt_getptd_noexit       00000001801c4134 f   libvcruntime:per_thread_data.obj
 0001:001c31f4       __vcrt_initialize_ptd      00000001801c41f4 f   libvcruntime:per_thread_data.obj
 0001:001c323c       __vcrt_uninitialize_ptd    00000001801c423c f   libvcruntime:per_thread_data.obj
 0001:001c3260       __vcrt_initialize_locks    00000001801c4260 f   libvcruntime:locks.obj
 0001:001c32a8       __vcrt_lock                00000001801c42a8 f   libvcruntime:locks.obj
 0001:001c32c4       __vcrt_uninitialize_locks  00000001801c42c4 f   libvcruntime:locks.obj
 0001:001c32fc       __vcrt_unlock              00000001801c42fc f   libvcruntime:locks.obj
 0001:001c3350       _NLG_Notify                00000001801c4350 f   libvcruntime:notify.obj
 0001:001c3370       __NLG_Dispatch2            00000001801c4370 f   libvcruntime:notify.obj
 0001:001c3380       __NLG_Return2              00000001801c4380 f   libvcruntime:notify.obj
 0001:001c3384       __except_validate_context_record 00000001801c4384 f   libvcruntime:jbcxrval.obj
 0001:001c33bc       ??$_CallSETranslator@V__FrameHandler3@@@@YAHPEAUEHExceptionRecord@@PEA_KPEAU_CONTEXT@@PEAU_xDISPATCHER_CONTEXT@@PEBU_s_FuncInfo@@K1H@Z 00000001801c43bc f i libvcruntime:risctrnsctrl.obj
 0001:001c3410       ??$_CallSETranslator@V__FrameHandler4@@@@YAHPEAUEHExceptionRecord@@PEA_KPEAU_CONTEXT@@PEAU_xDISPATCHER_CONTEXT@@PEAUFuncInfo4@FH4@@K1H@Z 00000001801c4410 f i libvcruntime:risctrnsctrl.obj
 0001:001c3464       ?CatchTryBlock@__FrameHandler3@@SAPEBU_s_TryBlockMapEntry@@PEBU_s_FuncInfo@@H@Z 00000001801c4464 f   libvcruntime:risctrnsctrl.obj
 0001:001c34c8       ?DecompFuncInfo@FH4@@YA_JPEAEAEAUFuncInfo4@1@_KH_N@Z 00000001801c44c8 f i libvcruntime:risctrnsctrl.obj
 0001:001c3600       ?ExecutionInCatch@__FrameHandler3@@SA_NPEAU_xDISPATCHER_CONTEXT@@PEBU_s_FuncInfo@@@Z 00000001801c4600 f   libvcruntime:risctrnsctrl.obj
 0001:001c362c       ?ExecutionInCatch@__FrameHandler4@@SA_NPEAU_xDISPATCHER_CONTEXT@@PEAUFuncInfo4@FH4@@@Z 00000001801c462c f   libvcruntime:risctrnsctrl.obj
 0001:001c3634       ?FrameUnwindToEmptyState@__FrameHandler3@@SAXPEA_KPEAU_xDISPATCHER_CONTEXT@@PEBU_s_FuncInfo@@@Z 00000001801c4634 f   libvcruntime:risctrnsctrl.obj
 0001:001c3698       ?FrameUnwindToEmptyState@__FrameHandler4@@SAXPEA_KPEAU_xDISPATCHER_CONTEXT@@PEAUFuncInfo4@FH4@@@Z 00000001801c4698 f   libvcruntime:risctrnsctrl.obj
 0001:001c36cc       ?GetEstablisherFrame@__FrameHandler3@@SAPEA_KPEA_KPEAU_xDISPATCHER_CONTEXT@@PEBU_s_FuncInfo@@0@Z 00000001801c46cc f   libvcruntime:risctrnsctrl.obj
 0001:001c379c       ?GetEstablisherFrame@__FrameHandler4@@SAPEA_KPEA_KPEAU_xDISPATCHER_CONTEXT@@PEAUFuncInfo4@FH4@@0@Z 00000001801c479c f   libvcruntime:risctrnsctrl.obj
 0001:001c37c0       ?GetRangeOfTrysToCheck@__FrameHandler3@@SA?AU?$pair@Viterator@TryBlockMap@__FrameHandler3@@V123@@std@@AEAVTryBlockMap@1@HPEAU_xDISPATCHER_CONTEXT@@PEBU_s_FuncInfo@@H@Z 00000001801c47c0 f   libvcruntime:risctrnsctrl.obj
 0001:001c38f4       ?GetRangeOfTrysToCheck@__FrameHandler4@@SA?AU?$pair@Viterator@TryBlockMap4@FH4@@V123@@std@@AEAVTryBlockMap4@FH4@@HPEAU_xDISPATCHER_CONTEXT@@PEAUFuncInfo4@5@H@Z 00000001801c48f4 f   libvcruntime:risctrnsctrl.obj
 0001:001c3a60       ?UnwindNestedFrames@__FrameHandler3@@SAXPEA_KPEAUEHExceptionRecord@@PEAU_CONTEXT@@0PEAXPEBU_s_FuncInfo@@HHPEBU_s_HandlerType@@PEAU_xDISPATCHER_CONTEXT@@E@Z 00000001801c4a60 f   libvcruntime:risctrnsctrl.obj
 0001:001c3b64       ?UnwindNestedFrames@__FrameHandler4@@SAXPEA_KPEAUEHExceptionRecord@@PEAU_CONTEXT@@0PEAXPEAUFuncInfo4@FH4@@HHPEAUHandlerType4@5@PEAU_xDISPATCHER_CONTEXT@@E@Z 00000001801c4b64 f   libvcruntime:risctrnsctrl.obj
 0001:001c3c84       ?setBuffer@TryBlockMap4@FH4@@QEAAXViterator@12@@Z 00000001801c4c84 f i libvcruntime:risctrnsctrl.obj
 0001:001c3e48       _CreateFrameInfo           00000001801c4e48 f   libvcruntime:risctrnsctrl.obj
 0001:001c3e84       _FindAndUnlinkFrame        00000001801c4e84 f   libvcruntime:risctrnsctrl.obj
 0001:001c3ed8       _GetImageBase              00000001801c4ed8 f   libvcruntime:risctrnsctrl.obj
 0001:001c3eec       _GetThrowImageBase         00000001801c4eec f   libvcruntime:risctrnsctrl.obj
 0001:001c3f00       _SetImageBase              00000001801c4f00 f   libvcruntime:risctrnsctrl.obj
 0001:001c3f18       _SetThrowImageBase         00000001801c4f18 f   libvcruntime:risctrnsctrl.obj
 0001:001c3f30       __CxxFrameHandler3         00000001801c4f30 f   libvcruntime:risctrnsctrl.obj
 0001:001c3fb8       __CxxFrameHandler4         00000001801c4fb8 f   libvcruntime:risctrnsctrl.obj
 0001:001c41c8       __vcrt_FlsAlloc            00000001801c51c8 f   libvcruntime:winapi_downlevel.obj
 0001:001c4210       __vcrt_FlsFree             00000001801c5210 f   libvcruntime:winapi_downlevel.obj
 0001:001c4258       __vcrt_FlsGetValue         00000001801c5258 f   libvcruntime:winapi_downlevel.obj
 0001:001c42a0       __vcrt_FlsSetValue         00000001801c52a0 f   libvcruntime:winapi_downlevel.obj
 0001:001c42f4       __vcrt_InitializeCriticalSectionEx 00000001801c52f4 f   libvcruntime:winapi_downlevel.obj
 0001:001c4358       ?GetCurrentState@__FrameHandler3@@SAHPEA_KPEAU_xDISPATCHER_CONTEXT@@PEBU_s_FuncInfo@@@Z 00000001801c5358 f   libvcruntime:ehstate.obj
 0001:001c4380       ?GetUnwindTryBlock@__FrameHandler3@@SAHPEA_KPEAU_xDISPATCHER_CONTEXT@@PEBU_s_FuncInfo@@@Z 00000001801c5380 f   libvcruntime:ehstate.obj
 0001:001c43ac       ?SetState@__FrameHandler3@@SAXPEA_KPEBU_s_FuncInfo@@H@Z 00000001801c53ac f   libvcruntime:ehstate.obj
 0001:001c43b8       ?SetUnwindTryBlock@__FrameHandler3@@SAXPEA_KPEAU_xDISPATCHER_CONTEXT@@PEBU_s_FuncInfo@@H@Z 00000001801c53b8 f   libvcruntime:ehstate.obj
 0001:001c43f4       ?StateFromControlPc@__FrameHandler3@@SAHPEBU_s_FuncInfo@@PEAU_xDISPATCHER_CONTEXT@@@Z 00000001801c53f4 f   libvcruntime:ehstate.obj
 0001:001c43fc       ?StateFromControlPc@__FrameHandler4@@SAHPEAUFuncInfo4@FH4@@PEAU_xDISPATCHER_CONTEXT@@@Z 00000001801c53fc f   libvcruntime:ehstate.obj
 0001:001c4404       ?StateFromIp@__FrameHandler3@@SAHPEBU_s_FuncInfo@@PEAU_xDISPATCHER_CONTEXT@@_K@Z 00000001801c5404 f   libvcruntime:ehstate.obj
 0001:001c446c       ?StateFromIp@__FrameHandler4@@SAHPEAUFuncInfo4@FH4@@PEAU_xDISPATCHER_CONTEXT@@_K@Z 00000001801c546c f   libvcruntime:ehstate.obj
 0001:001c5bc4       ??$TypeMatchHelper@V__FrameHandler3@@@@YAHPEBU_s_HandlerType@@PEBU_s_CatchableType@@PEBU_s_ThrowInfo@@@Z 00000001801c6bc4 f i libvcruntime:frame.obj
 0001:001c5d04       ??$TypeMatchHelper@V__FrameHandler4@@@@YAHPEAUHandlerType4@FH4@@PEBU_s_CatchableType@@PEBU_s_ThrowInfo@@@Z 00000001801c6d04 f i libvcruntime:frame.obj
 0001:001c5e50       ??$__InternalCxxFrameHandler@V__FrameHandler3@@@@YA?AW4_EXCEPTION_DISPOSITION@@PEAUEHExceptionRecord@@PEA_KPEAU_CONTEXT@@PEAU_xDISPATCHER_CONTEXT@@PEBU_s_FuncInfo@@H1E@Z 00000001801c6e50 f i libvcruntime:frame.obj
 0001:001c6088       ??$__InternalCxxFrameHandler@V__FrameHandler4@@@@YA?AW4_EXCEPTION_DISPOSITION@@PEAUEHExceptionRecord@@PEA_KPEAU_CONTEXT@@PEAU_xDISPATCHER_CONTEXT@@PEAUFuncInfo4@FH4@@H1E@Z 00000001801c7088 f i libvcruntime:frame.obj
 0001:001c631c       ??$__InternalCxxFrameHandlerWrapper@V__FrameHandler3@@@@YA?AW4_EXCEPTION_DISPOSITION@@PEAUEHExceptionRecord@@PEA_KPEAU_CONTEXT@@PEAU_xDISPATCHER_CONTEXT@@PEBU_s_FuncInfo@@H1E@Z 00000001801c731c f i libvcruntime:frame.obj
 0001:001c6324       ??$__InternalCxxFrameHandlerWrapper@V__FrameHandler4@@@@YA?AW4_EXCEPTION_DISPOSITION@@PEAUEHExceptionRecord@@PEA_KPEAU_CONTEXT@@PEAU_xDISPATCHER_CONTEXT@@PEAUFuncInfo4@FH4@@H1E@Z 00000001801c7324 f i libvcruntime:frame.obj
 0001:001c6370       ??0HandlerMap4@FH4@@QEAA@PEBUTryBlockMapEntry4@1@_KH@Z 00000001801c7370 f i libvcruntime:frame.obj
 0001:001c63f4       ??0TryBlockMap4@FH4@@QEAA@PEBUFuncInfo4@1@_K@Z 00000001801c73f4 f i libvcruntime:frame.obj
 0001:001c64d8       ??0bad_exception@std@@QEAA@AEBV01@@Z 00000001801c74d8 f i libvcruntime:frame.obj
 0001:001c6514       ??0bad_exception@std@@QEAA@XZ 00000001801c7514 f i libvcruntime:frame.obj
 0001:001c6534       ??0exception@std@@QEAA@AEBV01@@Z 00000001801c7534 f i libvcruntime:frame.obj
 0001:001c6568       ??1bad_exception@std@@UEAA@XZ 00000001801c7568 f i libvcruntime:frame.obj
 0001:001c657c       ??_Ebad_exception@std@@UEAAPEAXI@Z 00000001801c757c f i libvcruntime:frame.obj
 0001:001c657c       ??_Eexception@std@@UEAAPEAXI@Z 00000001801c757c f i libvcruntime:frame.obj
 0001:001c657c       ??_Gbad_exception@std@@UEAAPEAXI@Z 00000001801c757c f i libvcruntime:frame.obj
 0001:001c657c       ??_Gexception@std@@UEAAPEAXI@Z 00000001801c757c f i libvcruntime:frame.obj
 0001:001c65c0       ?CxxCallCatchBlock@__FrameHandler3@@SAPEAXPEAU_EXCEPTION_RECORD@@@Z 00000001801c75c0 f   libvcruntime:frame.obj
 0001:001c67ac       ?CxxCallCatchBlock@__FrameHandler4@@SAPEAXPEAU_EXCEPTION_RECORD@@@Z 00000001801c77ac f   libvcruntime:frame.obj
 0001:001c69fc       ?DecompHandler@HandlerMap4@FH4@@AEAAXXZ 00000001801c79fc f i libvcruntime:frame.obj
 0001:001c6c44       ?FrameUnwindToState@__FrameHandler3@@SAXPEA_KPEAU_xDISPATCHER_CONTEXT@@PEBU_s_FuncInfo@@H@Z 00000001801c7c44 f   libvcruntime:frame.obj
 0001:001c6dd0       ?FrameUnwindToState@__FrameHandler4@@SAXPEA_KPEAU_xDISPATCHER_CONTEXT@@PEAUFuncInfo4@FH4@@H@Z 00000001801c7dd0 f   libvcruntime:frame.obj
 0001:001c70d8       ?GetHandlerSearchState@__FrameHandler3@@SAHPEA_KPEAU_xDISPATCHER_CONTEXT@@PEBU_s_FuncInfo@@@Z 00000001801c80d8 f i libvcruntime:frame.obj
 0001:001c72e8       ?ReadEntry@UWMap4@FH4@@AEAAXPEAPEAE@Z 00000001801c82e8 f i libvcruntime:frame.obj
 0001:001c7384       ?_CallMemberFunction1@@YAXQEAX00@Z 00000001801c8384 f i libvcruntime:frame.obj
 0001:001c7390       ?_CallMemberFunction2@@YAXQEAX00H@Z 00000001801c8390 f i libvcruntime:frame.obj
 0001:001c73a0       ?getStartStop@UWMap4@FH4@@QEAAXHHAEAViterator@12@0@Z 00000001801c83a0 f i libvcruntime:frame.obj
 0001:001c7470       ?getStateFromIterators@UWMap4@FH4@@SAHAEBViterator@12@H0H0@Z 00000001801c8470 f i libvcruntime:frame.obj
 0001:001c7520       ?what@exception@std@@UEBAPEBDXZ 00000001801c8520 f i libvcruntime:frame.obj
 0001:001c7580       _CallSettingFrame          00000001801c8580 f   libvcruntime:handlers.obj
 0001:001c75c0       _CallSettingFrame_LookupContinuationIndex 00000001801c85c0 f   libvcruntime:handlers.obj
 0001:001c75f0       _CallSettingFrame_NotifyContinuationAddr 00000001801c85f0 f   libvcruntime:handlers.obj
 0001:001c7620       _CallSettingFrameEncoded   00000001801c8620 f   libvcruntime:handlers.obj
 0001:001c7668       __std_exception_copy       00000001801c8668 f   libvcruntime:std_exception.obj
 0001:001c76f8       __std_exception_destroy    00000001801c86f8 f   libvcruntime:std_exception.obj
 0001:001c7720       _CxxThrowException         00000001801c8720 f   libvcruntime:throw.obj
 0001:001c77d0       cosf                       00000001801c87d0 f   libucrt:cosf.obj
 0001:001c7cd0       sinf                       00000001801c8cd0 f   libucrt:sinf.obj
 0001:001c83d0       tanf                       00000001801c93d0 f   libucrt:tanf.obj
 0001:001c8a44       __acrt_initialize_stdio    00000001801c9a44 f   libucrt:_file.obj
 0001:001c8b64       __acrt_iob_func            00000001801c9b64 f   libucrt:_file.obj
 0001:001c8b78       __acrt_uninitialize_stdio  00000001801c9b78 f   libucrt:_file.obj
 0001:001c8bd4       _lock_file                 00000001801c9bd4 f   libucrt:_file.obj
 0001:001c8be0       _unlock_file               00000001801c9be0 f   libucrt:_file.obj
 0001:001c8ddc       ??$ensure_buffer_is_big_enough@D@formatting_buffer@__crt_stdio_output@@QEAA_N_KAEAV__crt_cached_ptd_host@@@Z 00000001801c9ddc f i libucrt:output.obj
 0001:001c8e84       ??$parse_integer@KV?$c_string_character_source@D@__crt_strtox@@$0A@@__crt_strtox@@YAKAEAV__crt_cached_ptd_host@@V?$c_string_character_source@D@0@H_N@Z 00000001801c9e84 f i libucrt:output.obj
 0001:001c9138       ??$type_case_integer@$07@?$output_processor@DV?$stream_output_adapter@D@__crt_stdio_output@@V?$standard_base@DV?$stream_output_adapter@D@__crt_stdio_output@@@2@@__crt_stdio_output@@AEAA_N_N@Z 00000001801ca138 f i libucrt:output.obj
 0001:001c9138       ??$type_case_integer@$07@?$output_processor@DV?$string_output_adapter@D@__crt_stdio_output@@V?$format_validation_base@DV?$string_output_adapter@D@__crt_stdio_output@@@2@@__crt_stdio_output@@AEAA_N_N@Z 00000001801ca138 f i libucrt:output.obj
 0001:001c9138       ??$type_case_integer@$07@?$output_processor@DV?$string_output_adapter@D@__crt_stdio_output@@V?$standard_base@DV?$string_output_adapter@D@__crt_stdio_output@@@2@@__crt_stdio_output@@AEAA_N_N@Z 00000001801ca138 f i libucrt:output.obj
 0001:001c933c       ??$type_case_integer@$09@?$output_processor@DV?$stream_output_adapter@D@__crt_stdio_output@@V?$standard_base@DV?$stream_output_adapter@D@__crt_stdio_output@@@2@@__crt_stdio_output@@AEAA_N_N@Z 00000001801ca33c f i libucrt:output.obj
 0001:001c933c       ??$type_case_integer@$09@?$output_processor@DV?$string_output_adapter@D@__crt_stdio_output@@V?$format_validation_base@DV?$string_output_adapter@D@__crt_stdio_output@@@2@@__crt_stdio_output@@AEAA_N_N@Z 00000001801ca33c f i libucrt:output.obj
 0001:001c933c       ??$type_case_integer@$09@?$output_processor@DV?$string_output_adapter@D@__crt_stdio_output@@V?$standard_base@DV?$string_output_adapter@D@__crt_stdio_output@@@2@@__crt_stdio_output@@AEAA_N_N@Z 00000001801ca33c f i libucrt:output.obj
 0001:001c9540       ??$type_case_integer@$0BA@@?$output_processor@DV?$stream_output_adapter@D@__crt_stdio_output@@V?$standard_base@DV?$stream_output_adapter@D@__crt_stdio_output@@@2@@__crt_stdio_output@@AEAA_N_N@Z 00000001801ca540 f i libucrt:output.obj
 0001:001c9540       ??$type_case_integer@$0BA@@?$output_processor@DV?$string_output_adapter@D@__crt_stdio_output@@V?$format_validation_base@DV?$string_output_adapter@D@__crt_stdio_output@@@2@@__crt_stdio_output@@AEAA_N_N@Z 00000001801ca540 f i libucrt:output.obj
 0001:001c9540       ??$type_case_integer@$0BA@@?$output_processor@DV?$string_output_adapter@D@__crt_stdio_output@@V?$standard_base@DV?$string_output_adapter@D@__crt_stdio_output@@@2@@__crt_stdio_output@@AEAA_N_N@Z 00000001801ca540 f i libucrt:output.obj
 0001:001c9744       ??$type_case_integer_parse_into_buffer@I$07@?$output_processor@DV?$stream_output_adapter@D@__crt_stdio_output@@V?$standard_base@DV?$stream_output_adapter@D@__crt_stdio_output@@@2@@__crt_stdio_output@@AEAAXI_N@Z 00000001801ca744 f i libucrt:output.obj
 0001:001c9744       ??$type_case_integer_parse_into_buffer@I$07@?$output_processor@DV?$string_output_adapter@D@__crt_stdio_output@@V?$format_validation_base@DV?$string_output_adapter@D@__crt_stdio_output@@@2@@__crt_stdio_output@@AEAAXI_N@Z 00000001801ca744 f i libucrt:output.obj
 0001:001c9744       ??$type_case_integer_parse_into_buffer@I$07@?$output_processor@DV?$string_output_adapter@D@__crt_stdio_output@@V?$standard_base@DV?$string_output_adapter@D@__crt_stdio_output@@@2@@__crt_stdio_output@@AEAAXI_N@Z 00000001801ca744 f i libucrt:output.obj
 0001:001c97b4       ??$type_case_integer_parse_into_buffer@I$09@?$output_processor@DV?$stream_output_adapter@D@__crt_stdio_output@@V?$standard_base@DV?$stream_output_adapter@D@__crt_stdio_output@@@2@@__crt_stdio_output@@AEAAXI_N@Z 00000001801ca7b4 f i libucrt:output.obj
 0001:001c97b4       ??$type_case_integer_parse_into_buffer@I$09@?$output_processor@DV?$string_output_adapter@D@__crt_stdio_output@@V?$format_validation_base@DV?$string_output_adapter@D@__crt_stdio_output@@@2@@__crt_stdio_output@@AEAAXI_N@Z 00000001801ca7b4 f i libucrt:output.obj
 0001:001c97b4       ??$type_case_integer_parse_into_buffer@I$09@?$output_processor@DV?$string_output_adapter@D@__crt_stdio_output@@V?$standard_base@DV?$string_output_adapter@D@__crt_stdio_output@@@2@@__crt_stdio_output@@AEAAXI_N@Z 00000001801ca7b4 f i libucrt:output.obj
 0001:001c9860       ??$type_case_integer_parse_into_buffer@I$0BA@@?$output_processor@DV?$stream_output_adapter@D@__crt_stdio_output@@V?$standard_base@DV?$stream_output_adapter@D@__crt_stdio_output@@@2@@__crt_stdio_output@@AEAAXI_N@Z 00000001801ca860 f i libucrt:output.obj
 0001:001c9860       ??$type_case_integer_parse_into_buffer@I$0BA@@?$output_processor@DV?$string_output_adapter@D@__crt_stdio_output@@V?$format_validation_base@DV?$string_output_adapter@D@__crt_stdio_output@@@2@@__crt_stdio_output@@AEAAXI_N@Z 00000001801ca860 f i libucrt:output.obj
 0001:001c9860       ??$type_case_integer_parse_into_buffer@I$0BA@@?$output_processor@DV?$string_output_adapter@D@__crt_stdio_output@@V?$standard_base@DV?$string_output_adapter@D@__crt_stdio_output@@@2@@__crt_stdio_output@@AEAAXI_N@Z 00000001801ca860 f i libucrt:output.obj
 0001:001c98e4       ??$type_case_integer_parse_into_buffer@_K$07@?$output_processor@DV?$stream_output_adapter@D@__crt_stdio_output@@V?$standard_base@DV?$stream_output_adapter@D@__crt_stdio_output@@@2@@__crt_stdio_output@@AEAAX_K_N@Z 00000001801ca8e4 f i libucrt:output.obj
 0001:001c98e4       ??$type_case_integer_parse_into_buffer@_K$07@?$output_processor@DV?$string_output_adapter@D@__crt_stdio_output@@V?$format_validation_base@DV?$string_output_adapter@D@__crt_stdio_output@@@2@@__crt_stdio_output@@AEAAX_K_N@Z 00000001801ca8e4 f i libucrt:output.obj
 0001:001c98e4       ??$type_case_integer_parse_into_buffer@_K$07@?$output_processor@DV?$string_output_adapter@D@__crt_stdio_output@@V?$standard_base@DV?$string_output_adapter@D@__crt_stdio_output@@@2@@__crt_stdio_output@@AEAAX_K_N@Z 00000001801ca8e4 f i libucrt:output.obj
 0001:001c9954       ??$type_case_integer_parse_into_buffer@_K$09@?$output_processor@DV?$stream_output_adapter@D@__crt_stdio_output@@V?$standard_base@DV?$stream_output_adapter@D@__crt_stdio_output@@@2@@__crt_stdio_output@@AEAAX_K_N@Z 00000001801ca954 f i libucrt:output.obj
 0001:001c9954       ??$type_case_integer_parse_into_buffer@_K$09@?$output_processor@DV?$string_output_adapter@D@__crt_stdio_output@@V?$format_validation_base@DV?$string_output_adapter@D@__crt_stdio_output@@@2@@__crt_stdio_output@@AEAAX_K_N@Z 00000001801ca954 f i libucrt:output.obj
 0001:001c9954       ??$type_case_integer_parse_into_buffer@_K$09@?$output_processor@DV?$string_output_adapter@D@__crt_stdio_output@@V?$standard_base@DV?$string_output_adapter@D@__crt_stdio_output@@@2@@__crt_stdio_output@@AEAAX_K_N@Z 00000001801ca954 f i libucrt:output.obj
 0001:001c9a04       ??$type_case_integer_parse_into_buffer@_K$0BA@@?$output_processor@DV?$stream_output_adapter@D@__crt_stdio_output@@V?$standard_base@DV?$stream_output_adapter@D@__crt_stdio_output@@@2@@__crt_stdio_output@@AEAAX_K_N@Z 00000001801caa04 f i libucrt:output.obj
 0001:001c9a04       ??$type_case_integer_parse_into_buffer@_K$0BA@@?$output_processor@DV?$string_output_adapter@D@__crt_stdio_output@@V?$format_validation_base@DV?$string_output_adapter@D@__crt_stdio_output@@@2@@__crt_stdio_output@@AEAAX_K_N@Z 00000001801caa04 f i libucrt:output.obj
 0001:001c9a04       ??$type_case_integer_parse_into_buffer@_K$0BA@@?$output_processor@DV?$string_output_adapter@D@__crt_stdio_output@@V?$standard_base@DV?$string_output_adapter@D@__crt_stdio_output@@@2@@__crt_stdio_output@@AEAAX_K_N@Z 00000001801caa04 f i libucrt:output.obj
 0001:001c9ba4       ?crop_zeroes@__crt_stdio_output@@YAXPEADQEAU__crt_locale_pointers@@@Z 00000001801caba4 f i libucrt:output.obj
 0001:001c9c10       ?get_raw_ptd@__crt_cached_ptd_host@@QEAAPEAU__acrt_ptd@@XZ 00000001801cac10 f i libucrt:output.obj
 0001:001c9c78       ?parse_int_from_format_string@?$output_processor@DV?$stream_output_adapter@D@__crt_stdio_output@@V?$standard_base@DV?$stream_output_adapter@D@__crt_stdio_output@@@2@@__crt_stdio_output@@AEAA_NQEAH@Z 00000001801cac78 f i libucrt:output.obj
 0001:001c9c78       ?parse_int_from_format_string@?$output_processor@DV?$string_output_adapter@D@__crt_stdio_output@@V?$format_validation_base@DV?$string_output_adapter@D@__crt_stdio_output@@@2@@__crt_stdio_output@@AEAA_NQEAH@Z 00000001801cac78 f i libucrt:output.obj
 0001:001c9c78       ?parse_int_from_format_string@?$output_processor@DV?$string_output_adapter@D@__crt_stdio_output@@V?$standard_base@DV?$string_output_adapter@D@__crt_stdio_output@@@2@@__crt_stdio_output@@AEAA_NQEAH@Z 00000001801cac78 f i libucrt:output.obj
 0001:001c9d08       ?process@?$output_processor@DV?$stream_output_adapter@D@__crt_stdio_output@@V?$standard_base@DV?$stream_output_adapter@D@__crt_stdio_output@@@2@@__crt_stdio_output@@QEAAHXZ 00000001801cad08 f i libucrt:output.obj
 0001:001ca0a0       ?process@?$output_processor@DV?$string_output_adapter@D@__crt_stdio_output@@V?$format_validation_base@DV?$string_output_adapter@D@__crt_stdio_output@@@2@@__crt_stdio_output@@QEAAHXZ 00000001801cb0a0 f i libucrt:output.obj
 0001:001ca424       ?process@?$output_processor@DV?$string_output_adapter@D@__crt_stdio_output@@V?$standard_base@DV?$string_output_adapter@D@__crt_stdio_output@@@2@@__crt_stdio_output@@QEAAHXZ 00000001801cb424 f i libucrt:output.obj
 0001:001ca7a4       ?state_case_size@?$output_processor@DV?$stream_output_adapter@D@__crt_stdio_output@@V?$standard_base@DV?$stream_output_adapter@D@__crt_stdio_output@@@2@@__crt_stdio_output@@AEAA_NXZ 00000001801cb7a4 f i libucrt:output.obj
 0001:001ca92c       ?state_case_size@?$output_processor@DV?$string_output_adapter@D@__crt_stdio_output@@V?$format_validation_base@DV?$string_output_adapter@D@__crt_stdio_output@@@2@@__crt_stdio_output@@AEAA_NXZ 00000001801cb92c f i libucrt:output.obj
 0001:001ca92c       ?state_case_size@?$output_processor@DV?$string_output_adapter@D@__crt_stdio_output@@V?$standard_base@DV?$string_output_adapter@D@__crt_stdio_output@@@2@@__crt_stdio_output@@AEAA_NXZ 00000001801cb92c f i libucrt:output.obj
 0001:001caab4       ?state_case_type@?$output_processor@DV?$stream_output_adapter@D@__crt_stdio_output@@V?$standard_base@DV?$stream_output_adapter@D@__crt_stdio_output@@@2@@__crt_stdio_output@@AEAA_NXZ 00000001801cbab4 f i libucrt:output.obj
 0001:001caeec       ?state_case_type@?$output_processor@DV?$string_output_adapter@D@__crt_stdio_output@@V?$format_validation_base@DV?$string_output_adapter@D@__crt_stdio_output@@@2@@__crt_stdio_output@@AEAA_NXZ 00000001801cbeec f i libucrt:output.obj
 0001:001caeec       ?state_case_type@?$output_processor@DV?$string_output_adapter@D@__crt_stdio_output@@V?$standard_base@DV?$string_output_adapter@D@__crt_stdio_output@@@2@@__crt_stdio_output@@AEAA_NXZ 00000001801cbeec f i libucrt:output.obj
 0001:001cb2f0       ?type_case_Z@?$output_processor@DV?$stream_output_adapter@D@__crt_stdio_output@@V?$standard_base@DV?$stream_output_adapter@D@__crt_stdio_output@@@2@@__crt_stdio_output@@AEAA_NXZ 00000001801cc2f0 f i libucrt:output.obj
 0001:001cb2f0       ?type_case_Z@?$output_processor@DV?$string_output_adapter@D@__crt_stdio_output@@V?$format_validation_base@DV?$string_output_adapter@D@__crt_stdio_output@@@2@@__crt_stdio_output@@AEAA_NXZ 00000001801cc2f0 f i libucrt:output.obj
 0001:001cb2f0       ?type_case_Z@?$output_processor@DV?$string_output_adapter@D@__crt_stdio_output@@V?$standard_base@DV?$string_output_adapter@D@__crt_stdio_output@@@2@@__crt_stdio_output@@AEAA_NXZ 00000001801cc2f0 f i libucrt:output.obj
 0001:001cb36c       ?type_case_a@?$output_processor@DV?$stream_output_adapter@D@__crt_stdio_output@@V?$standard_base@DV?$stream_output_adapter@D@__crt_stdio_output@@@2@@__crt_stdio_output@@AEAA_NXZ 00000001801cc36c f i libucrt:output.obj
 0001:001cb36c       ?type_case_a@?$output_processor@DV?$string_output_adapter@D@__crt_stdio_output@@V?$format_validation_base@DV?$string_output_adapter@D@__crt_stdio_output@@@2@@__crt_stdio_output@@AEAA_NXZ 00000001801cc36c f i libucrt:output.obj
 0001:001cb36c       ?type_case_a@?$output_processor@DV?$string_output_adapter@D@__crt_stdio_output@@V?$standard_base@DV?$string_output_adapter@D@__crt_stdio_output@@@2@@__crt_stdio_output@@AEAA_NXZ 00000001801cc36c f i libucrt:output.obj
 0001:001cb5c0       ?type_case_c_tchar@?$output_processor@DV?$stream_output_adapter@D@__crt_stdio_output@@V?$standard_base@DV?$stream_output_adapter@D@__crt_stdio_output@@@2@@__crt_stdio_output@@AEAA_ND@Z 00000001801cc5c0 f i libucrt:output.obj
 0001:001cb5c0       ?type_case_c_tchar@?$output_processor@DV?$string_output_adapter@D@__crt_stdio_output@@V?$format_validation_base@DV?$string_output_adapter@D@__crt_stdio_output@@@2@@__crt_stdio_output@@AEAA_ND@Z 00000001801cc5c0 f i libucrt:output.obj
 0001:001cb5c0       ?type_case_c_tchar@?$output_processor@DV?$string_output_adapter@D@__crt_stdio_output@@V?$standard_base@DV?$string_output_adapter@D@__crt_stdio_output@@@2@@__crt_stdio_output@@AEAA_ND@Z 00000001801cc5c0 f i libucrt:output.obj
 0001:001cb694       ?type_case_n@?$output_processor@DV?$stream_output_adapter@D@__crt_stdio_output@@V?$standard_base@DV?$stream_output_adapter@D@__crt_stdio_output@@@2@@__crt_stdio_output@@AEAA_NXZ 00000001801cc694 f i libucrt:output.obj
 0001:001cb694       ?type_case_n@?$output_processor@DV?$string_output_adapter@D@__crt_stdio_output@@V?$format_validation_base@DV?$string_output_adapter@D@__crt_stdio_output@@@2@@__crt_stdio_output@@AEAA_NXZ 00000001801cc694 f i libucrt:output.obj
 0001:001cb694       ?type_case_n@?$output_processor@DV?$string_output_adapter@D@__crt_stdio_output@@V?$standard_base@DV?$string_output_adapter@D@__crt_stdio_output@@@2@@__crt_stdio_output@@AEAA_NXZ 00000001801cc694 f i libucrt:output.obj
 0001:001cb74c       ?type_case_s@?$output_processor@DV?$stream_output_adapter@D@__crt_stdio_output@@V?$standard_base@DV?$stream_output_adapter@D@__crt_stdio_output@@@2@@__crt_stdio_output@@AEAA_NXZ 00000001801cc74c f i libucrt:output.obj
 0001:001cb74c       ?type_case_s@?$output_processor@DV?$string_output_adapter@D@__crt_stdio_output@@V?$format_validation_base@DV?$string_output_adapter@D@__crt_stdio_output@@@2@@__crt_stdio_output@@AEAA_NXZ 00000001801cc74c f i libucrt:output.obj
 0001:001cb74c       ?type_case_s@?$output_processor@DV?$string_output_adapter@D@__crt_stdio_output@@V?$standard_base@DV?$string_output_adapter@D@__crt_stdio_output@@@2@@__crt_stdio_output@@AEAA_NXZ 00000001801cc74c f i libucrt:output.obj
 0001:001cb7f0       ?update_locale_slow@__crt_cached_ptd_host@@AEAAXXZ 00000001801cc7f0 f i libucrt:output.obj
 0001:001cb868       ?validate_stream_is_ansi_if_required@?$__acrt_stdio_char_traits@D@@SA_NQEAU_iobuf@@@Z 00000001801cc868 f i libucrt:output.obj
 0001:001cb904       ?write_string@?$string_output_adapter@D@__crt_stdio_output@@QEBAXQEBDHQEAHAEAV__crt_cached_ptd_host@@@Z 00000001801cc904 f i libucrt:output.obj
 0001:001cb9a8       ?write_string_impl@?$output_adapter_common@DV?$stream_output_adapter@D@__crt_stdio_output@@@__crt_stdio_output@@IEBAXQEBDHQEAHAEAV__crt_cached_ptd_host@@@Z 00000001801cc9a8 f i libucrt:output.obj
 0001:001cba74       __stdio_common_vfprintf    00000001801cca74 f   libucrt:output.obj
 0001:001cbb98       __stdio_common_vsprintf    00000001801ccb98 f   libucrt:output.obj
 0001:001cbdec       __stdio_common_vsprintf_s  00000001801ccdec f   libucrt:output.obj
 0001:001cbf00       _fpclass                   00000001801ccf00 f   libucrt:ieeemisc.obj
 0001:001cbf90       powf                       00000001801ccf90 f   libucrt:powf.obj
 0001:001cce58       atan2f                     00000001801cde58 f   libucrt:atan2f.obj
 0001:001cd250       acosf                      00000001801ce250 f   libucrt:acosf.obj
 0001:001cd47c       free                       00000001801ce47c f   libucrt:free.obj
 0001:001cd490       _seh_filter_dll            00000001801ce490 f   libucrt:exception_filter.obj
 0001:001cd4a4       _seh_filter_exe            00000001801ce4a4 f   libucrt:exception_filter.obj
 0001:001cd8bc       __acrt_initialize_thread_local_exit_callback 00000001801ce8bc f   libucrt:exit.obj
 0001:001cd8c4       _cexit                     00000001801ce8c4 f   libucrt:exit.obj
 0001:001cd8d4       _exit                      00000001801ce8d4 f   libucrt:exit.obj
 0001:001cd8e0       _is_c_termination_complete 00000001801ce8e0 f   libucrt:exit.obj
 0001:001cdab0       __acrt_allocate_buffer_for_argv 00000001801ceab0 f   libucrt:argv_parsing.obj
 0001:001cdb10       _configure_narrow_argv     00000001801ceb10 f   libucrt:argv_parsing.obj
 0001:001cde98       __dcrt_uninitialize_environments_nolock 00000001801cee98 f   libucrt:environment_initialization.obj
 0001:001cdedc       _initialize_narrow_environment 00000001801ceedc f   libucrt:environment_initialization.obj
 0001:001ce22c       _crt_atexit                00000001801cf22c f   libucrt:onexit.obj
 0001:001ce23c       _execute_onexit_table      00000001801cf23c f   libucrt:onexit.obj
 0001:001ce280       _initialize_onexit_table   00000001801cf280 f   libucrt:onexit.obj
 0001:001ce2a8       _register_onexit_function  00000001801cf2a8 f   libucrt:onexit.obj
 0001:001ce328       __acrt_uninitialize_command_line 00000001801cf328 f   libucrt:argv_data.obj
 0001:001ce420       __acrt_initialize          00000001801cf420 f   libucrt:initialization.obj
 0001:001ce434       __acrt_thread_attach       00000001801cf434 f   libucrt:initialization.obj
 0001:001ce448       __acrt_thread_detach       00000001801cf448 f   libucrt:initialization.obj
 0001:001ce458       __acrt_uninitialize        00000001801cf458 f   libucrt:initialization.obj
 0001:001ce490       __acrt_uninitialize_critical 00000001801cf490 f   libucrt:initialization.obj
 0001:001ce4a0       _initterm                  00000001801cf4a0 f   libucrt:initterm.obj
 0001:001ce4e4       _initterm_e                00000001801cf4e4 f   libucrt:initterm.obj
 0001:001ce52c       terminate                  00000001801cf52c f   libucrt:terminate.obj
 0001:001ce558       abort                      00000001801cf558 f   libucrt:abort.obj
 0001:001ce5b0       malloc                     00000001801cf5b0 f   libucrt:malloc.obj
 0001:001ce5b8       strcpy_s                   00000001801cf5b8 f   libucrt:strcpy_s.obj
 0001:001ce618       ??$parse_integer@KV?$c_string_character_source@D@__crt_strtox@@$00@__crt_strtox@@YAKAEAV__crt_cached_ptd_host@@V?$c_string_character_source@D@0@H_N@Z 00000001801cf618 f i libucrt:atox.obj
 0001:001ce908       _ischartype_l              00000001801cf908 f i libucrt:atox.obj
 0001:001ce980       atol                       00000001801cf980 f   libucrt:atox.obj
 0001:001cea40       strncmp                    00000001801cfa40 f   libucrt:strncmp.obj
 0001:001ceac0       calloc                     00000001801cfac0 f   libucrt:calloc.obj
 0001:001ceac8       wcsncmp                    00000001801cfac8 f   libucrt:wcsncmp.obj
 0001:001ceb00       __remainder_piby2d2f_forAsm 00000001801cfb00 f   libucrt:remainder_piby2f_forasm.obj
 0001:001cec50       __remainder_piby2_fma3     00000001801cfc50 f   libucrt:remainder_piby2_forfma3.obj
 0001:001cee40       __remainder_piby2_fma3_bdl 00000001801cfe40 f   libucrt:remainder_piby2_forfma3.obj
 0001:001ceeb8       _cosf_special              00000001801cfeb8 f   libucrt:sincos_special.obj
 0001:001cef58       _sinf_special              00000001801cff58 f   libucrt:sincos_special.obj
 0001:001cef6c       _tanf_special              00000001801cff6c f   libucrt:sincos_special.obj
 0001:001cef80       _clrfp                     00000001801cff80 f   libucrt:fpctrl.obj
 0001:001cefa0       _ctrlfp                    00000001801cffa0 f   libucrt:fpctrl.obj
 0001:001cf01c       _set_statfp                00000001801d001c f   libucrt:fpctrl.obj
 0001:001cf03c       _statfp                    00000001801d003c f   libucrt:fpctrl.obj
 0001:001cf050       __acrt_initialize_fma3     00000001801d0050 f   libucrt:fma3_available.obj
 0001:001cf0c0       __remainder_piby2d2f_forC  00000001801d00c0 f   libucrt:remainder_piby2f_forc.obj
 0001:001cf24c       ?get_raw_ptd_noexit@__crt_cached_ptd_host@@QEAAPEAU__acrt_ptd@@XZ 00000001801d024c f i libucrt:invalid_parameter.obj
 0001:001cf2b8       ?value@?$dual_state_global@P6AXPEB_W00I_K@Z@__crt_state_management@@QEAAAEAP6AXPEB_W00I_K@ZAEAV__crt_cached_ptd_host@@@Z 00000001801d02b8 f i libucrt:invalid_parameter.obj
 0001:001cf304       __acrt_call_reportfault    00000001801d0304 f   libucrt:invalid_parameter.obj
 0001:001cf460       __acrt_initialize_invalid_parameter_handler 00000001801d0460 f   libucrt:invalid_parameter.obj
 0001:001cf468       _invalid_parameter         00000001801d0468 f   libucrt:invalid_parameter.obj
 0001:001cf504       _invalid_parameter_internal 00000001801d0504 f   libucrt:invalid_parameter.obj
 0001:001cf5d0       _invalid_parameter_noinfo  00000001801d05d0 f   libucrt:invalid_parameter.obj
 0001:001cf5f0       _invoke_watson             00000001801d05f0 f   libucrt:invalid_parameter.obj
 0001:001cf638       __acrt_errno_from_os_error 00000001801d0638 f   libucrt:errno.obj
 0001:001cf680       __acrt_errno_map_os_error  00000001801d0680 f   libucrt:errno.obj
 0001:001cf6c8       __acrt_errno_map_os_error_ptd 00000001801d06c8 f   libucrt:errno.obj
 0001:001cf6ec       __doserrno                 00000001801d06ec f   libucrt:errno.obj
 0001:001cf70c       _errno                     00000001801d070c f   libucrt:errno.obj
 0001:001cf72c       _calloc_base               00000001801d072c f   libucrt:calloc_base.obj
 0001:001cf7a4       _free_base                 00000001801d07a4 f   libucrt:free_base.obj
 0001:001cf99c       __acrt_AppPolicyGetProcessTerminationMethodInternal 00000001801d099c f   libucrt:winapi_thunks.obj
 0001:001cf9f4       __acrt_AreFileApisANSI     00000001801d09f4 f   libucrt:winapi_thunks.obj
 0001:001cfa38       __acrt_FlsAlloc            00000001801d0a38 f   libucrt:winapi_thunks.obj
 0001:001cfa40       __acrt_FlsFree             00000001801d0a40 f   libucrt:winapi_thunks.obj
 0001:001cfa48       __acrt_FlsGetValue         00000001801d0a48 f   libucrt:winapi_thunks.obj
 0001:001cfa50       __acrt_FlsSetValue         00000001801d0a50 f   libucrt:winapi_thunks.obj
 0001:001cfa58       __acrt_InitializeCriticalSectionEx 00000001801d0a58 f   libucrt:winapi_thunks.obj
 0001:001cfac8       __acrt_LCMapStringEx       00000001801d0ac8 f   libucrt:winapi_thunks.obj
 0001:001cfbb4       __acrt_LocaleNameToLCID    00000001801d0bb4 f   libucrt:winapi_thunks.obj
 0001:001cfc14       __acrt_initialize_winapi_thunks 00000001801d0c14 f   libucrt:winapi_thunks.obj
 0001:001cfc38       __acrt_uninitialize_winapi_thunks 00000001801d0c38 f   libucrt:winapi_thunks.obj
 0001:001cfc7c       _fcloseall                 00000001801d0c7c f   libucrt:closeall.obj
 0001:001cff10       __acrt_stdio_flush_nolock  00000001801d0f10 f   libucrt:fflush.obj
 0001:001cff9c       _fflush_nolock             00000001801d0f9c f   libucrt:fflush.obj
 0001:001d0070       _flushall                  00000001801d1070 f   libucrt:fflush.obj
 0001:001d0078       __acrt_stdio_free_buffer_nolock 00000001801d1078 f   libucrt:_freebuf.obj
 0001:001d02b4       __acrt_initialize_lowio    00000001801d12b4 f   libucrt:ioinit.obj
 0001:001d02f0       __acrt_uninitialize_lowio  00000001801d12f0 f   libucrt:ioinit.obj
 0001:001d0330       _malloc_base               00000001801d1330 f   libucrt:malloc_base.obj
 0001:001d0390       strnlen                    00000001801d1390 f   libucrt:strnlen.obj
 0001:001d04e0       wcsnlen                    00000001801d14e0 f   libucrt:strnlen.obj
 0001:001d06b8       __acrt_update_locale_info  00000001801d16b8 f   libucrt:locale_update.obj
 0001:001d06ec       __acrt_update_locale_info_explicit 00000001801d16ec f   libucrt:locale_update.obj
 0001:001d0724       __acrt_update_multibyte_info 00000001801d1724 f   libucrt:locale_update.obj
 0001:001d0758       __acrt_update_multibyte_info_explicit 00000001801d1758 f   libucrt:locale_update.obj
 0001:001d12a4       __acrt_fp_format           00000001801d22a4 f   libucrt:cvt.obj
 0001:001d158c       _wctomb_internal           00000001801d258c f   libucrt:wctomb.obj
 0001:001d173c       _mbtowc_internal           00000001801d273c f   libucrt:mbtowc.obj
 0001:001d18b4       _fileno                    00000001801d28b4 f   libucrt:fileno.obj
 0001:001d18dc       _get_printf_count_output   00000001801d28dc f   libucrt:printf_count_output.obj
 0001:001d18f4       _fputc_nolock_internal     00000001801d28f4 f   libucrt:fputc.obj
 0001:001d190c       __acrt_should_use_temporary_buffer 00000001801d290c f   libucrt:_sftbuf.obj
 0001:001d1958       __acrt_stdio_begin_temporary_buffering_nolock 00000001801d2958 f   libucrt:_sftbuf.obj
 0001:001d1a20       __acrt_stdio_end_temporary_buffering_nolock 00000001801d2a20 f   libucrt:_sftbuf.obj
 0001:001d1dd8       __acrt_freeptd             00000001801d2dd8 f   libucrt:per_thread_data.obj
 0001:001d1e1c       __acrt_getptd              00000001801d2e1c f   libucrt:per_thread_data.obj
 0001:001d1ef0       __acrt_getptd_head         00000001801d2ef0 f   libucrt:per_thread_data.obj
 0001:001d1f94       __acrt_getptd_noexit       00000001801d2f94 f   libucrt:per_thread_data.obj
 0001:001d205c       __acrt_getptd_noexit_explicit 00000001801d305c f   libucrt:per_thread_data.obj
 0001:001d211c       __acrt_initialize_ptd      00000001801d311c f   libucrt:per_thread_data.obj
 0001:001d2158       __acrt_uninitialize_ptd    00000001801d3158 f   libucrt:per_thread_data.obj
 0001:001d21ec       __acrt_set_locale_changed  00000001801d31ec f   libucrt:wsetlocale.obj
 0001:001d21f8       __acrt_uninitialize_locale 00000001801d31f8 f   libucrt:wsetlocale.obj
 0001:001d234c       _handle_error              00000001801d334c f   libucrt:libm_error.obj
 0001:001d2474       _handle_errorf             00000001801d3474 f   libucrt:libm_error.obj
 0001:001d25a8       _handle_nan                00000001801d35a8 f   libucrt:libm_error.obj
 0001:001d25c4       _handle_nanf               00000001801d35c4 f   libucrt:libm_error.obj
 0001:001d25e0       _powf_special              00000001801d35e0 f   libucrt:pow_special.obj
 0001:001d2750       __acrt_initialize_locks    00000001801d3750 f   libucrt:locks.obj
 0001:001d2798       __acrt_lock                00000001801d3798 f   libucrt:locks.obj
 0001:001d27b4       __acrt_uninitialize_locks  00000001801d37b4 f   libucrt:locks.obj
 0001:001d27ec       __acrt_unlock              00000001801d37ec f   libucrt:locks.obj
 0001:001d2808       __acrt_app_verifier_enabled 00000001801d3808 f   libucrt:peb_access.obj
 0001:001d2824       __acrt_is_secure_process   00000001801d3824 f   libucrt:peb_access.obj
 0001:001d283c       __acrt_get_process_end_policy 00000001801d383c f   libucrt:win_policies.obj
 0001:001d2880       ??$__acrt_convert_wcs_mbs_cp@D_WV<lambda_7c9dea7b4ca7285d2cdb541a38da6275>@@U__crt_win32_buffer_internal_dynamic_resizing@@@@YAHQEBDAEAV?$__crt_win32_buffer@_WU__crt_win32_buffer_internal_dynamic_resizing@@@@AEBV<lambda_7c9dea7b4ca7285d2cdb541a38da6275>@@I@Z 00000001801d3880 f i libucrt:argv_wildcards.obj
 0001:001d29fc       ??$__acrt_convert_wcs_mbs_cp@_WDV<lambda_d8593a27d1aa8c02be35c86a17d324c4>@@U__crt_win32_buffer_internal_dynamic_resizing@@@@YAHQEB_WAEAV?$__crt_win32_buffer@DU__crt_win32_buffer_internal_dynamic_resizing@@@@AEBV<lambda_d8593a27d1aa8c02be35c86a17d324c4>@@I@Z 00000001801d39fc f i libucrt:argv_wildcards.obj
 0001:001d32a0       ??0_LocaleUpdate@@QEAA@QEAU__crt_locale_pointers@@@Z 00000001801d42a0 f i libucrt:argv_wildcards.obj
 0001:001d333c       __acrt_expand_narrow_argv_wildcards 00000001801d433c f   libucrt:argv_wildcards.obj
 0001:001d3344       ??$__acrt_convert_wcs_mbs_cp@_WDV<lambda_f788ae46380686e8b737efdd8c720d07>@@U__crt_win32_buffer_no_resizing@@@@YAHQEB_WAEAV?$__crt_win32_buffer@DU__crt_win32_buffer_no_resizing@@@@AEBV<lambda_f788ae46380686e8b737efdd8c720d07>@@I@Z 00000001801d4344 f i libucrt:getmodulefilenamea.obj
 0001:001d3460       __acrt_GetModuleFileNameA  00000001801d4460 f   libucrt:getmodulefilenamea.obj
 0001:001d3d7c       __acrt_initialize_multibyte 00000001801d4d7c f   libucrt:mbctype.obj
 0001:001d3ddc       __acrt_update_thread_multibyte_data 00000001801d4ddc f   libucrt:mbctype.obj
 0001:001d3df8       _setmbcp_nolock            00000001801d4df8 f   libucrt:mbctype.obj
 0001:001d412c       _ismbblead                 00000001801d512c f   libucrt:ismbbyte.obj
 0001:001d4140       __acrt_initialize_command_line 00000001801d5140 f   libucrt:argv_data.obj
 0001:001d4168       __acrt_MultiByteToWideChar 00000001801d5168 f   libucrt:multibytetowidechar.obj
 0001:001d41f8       __acrt_WideCharToMultiByte 00000001801d51f8 f   libucrt:widechartomultibyte.obj
 0001:001d42d8       __dcrt_get_narrow_environment_from_os 00000001801d52d8 f   libucrt:get_environment_from_os.obj
 0001:001d43e8       _recalloc_base             00000001801d53e8 f   libucrt:recalloc.obj
 0001:001d4480       __acrt_initialize_heap     00000001801d5480 f   libucrt:heap_handle.obj
 0001:001d449c       __acrt_uninitialize_heap   00000001801d549c f   libucrt:heap_handle.obj
 0001:001d44a8       __acrt_execute_initializers 00000001801d54a8 f   libucrt:shared_initialization.obj
 0001:001d453c       __acrt_execute_uninitializers 00000001801d553c f   libucrt:shared_initialization.obj
 0001:001d4584       __acrt_initialize_new_handler 00000001801d5584 f   libucrt:new_handler.obj
 0001:001d458c       _callnewh                  00000001801d558c f   libucrt:new_handler.obj
 0001:001d45cc       _query_new_handler         00000001801d55cc f   libucrt:new_handler.obj
 0001:001d464c       __acrt_get_sigabrt_handler 00000001801d564c f   libucrt:signal.obj
 0001:001d467c       __acrt_initialize_signal_handlers 00000001801d567c f   libucrt:signal.obj
 0001:001d469c       raise                      00000001801d569c f   libucrt:signal.obj
 0001:001d4918       __acrt_has_user_matherr    00000001801d5918 f   libucrt:matherr.obj
 0001:001d4938       __acrt_initialize_user_matherr 00000001801d5938 f   libucrt:matherr.obj
 0001:001d4940       __acrt_invoke_user_matherr 00000001801d5940 f   libucrt:matherr.obj
 0001:001d497c       __pctype_func              00000001801d597c f   libucrt:ctype.obj
 0001:001d49ac       _isctype_l                 00000001801d59ac f   libucrt:isctype.obj
 0001:001d4ad0       _get_fpsr                  00000001801d5ad0 f   libucrt:fpsr.obj
 0001:001d4ae0       _set_fpsr                  00000001801d5ae0 f   libucrt:fpsr.obj
 0001:001d4aea       _fclrf                     00000001801d5aea f   libucrt:fpsr.obj
 0001:001d4afe       _frnd                      00000001801d5afe f   libucrt:fpsr.obj
 0001:001d4b20       _query_new_mode            00000001801d5b20 f   libucrt:new_mode.obj
 0001:001d4b28       __acrt_DownlevelLocaleNameToLCID 00000001801d5b28 f   libucrt:lcidtoname_downlevel.obj
 0001:001d4cf0       fclose                     00000001801d5cf0 f   libucrt:fclose.obj
 0001:001d4e14       _commit                    00000001801d5e14 f   libucrt:commit.obj
 0001:001d56b0       _write_internal            00000001801d66b0 f   libucrt:write.obj
 0001:001d57d0       _write_nolock              00000001801d67d0 f   libucrt:write.obj
 0001:001d5ad8       __acrt_lowio_create_handle_array 00000001801d6ad8 f   libucrt:osfinfo.obj
 0001:001d5b80       __acrt_lowio_destroy_handle_array 00000001801d6b80 f   libucrt:osfinfo.obj
 0001:001d5bd0       __acrt_lowio_ensure_fh_exists 00000001801d6bd0 f   libucrt:osfinfo.obj
 0001:001d5c78       __acrt_lowio_lock_fh       00000001801d6c78 f   libucrt:osfinfo.obj
 0001:001d5ca0       __acrt_lowio_unlock_fh     00000001801d6ca0 f   libucrt:osfinfo.obj
 0001:001d5cc8       _free_osfhnd               00000001801d6cc8 f   libucrt:osfinfo.obj
 0001:001d5d84       _get_osfhandle             00000001801d6d84 f   libucrt:osfinfo.obj
 0001:001d5dfc       __acrt_add_locale_ref      00000001801d6dfc f   libucrt:locale_refcounting.obj
 0001:001d5e88       __acrt_free_locale         00000001801d6e88 f   libucrt:locale_refcounting.obj
 0001:001d6000       __acrt_locale_add_lc_time_reference 00000001801d7000 f   libucrt:locale_refcounting.obj
 0001:001d6028       __acrt_locale_free_lc_time_if_unreferenced 00000001801d7028 f   libucrt:locale_refcounting.obj
 0001:001d6060       __acrt_locale_release_lc_time_reference 00000001801d7060 f   libucrt:locale_refcounting.obj
 0001:001d6088       __acrt_release_locale_ref  00000001801d7088 f   libucrt:locale_refcounting.obj
 0001:001d6130       __acrt_update_thread_locale_data 00000001801d7130 f   libucrt:locale_refcounting.obj
 0001:001d61a0       _updatetlocinfoEx_nolock   00000001801d71a0 f   libucrt:locale_refcounting.obj
 0001:001d62d8       __acrt_fp_strflt_to_string 00000001801d72d8 f   libucrt:_fptostr.obj
 0001:001d63f0       ?divide@__crt_strtox@@YA_KAEAUbig_integer@1@AEBU21@@Z 00000001801d73f0 f i libucrt:cfout.obj
 0001:001d688c       __acrt_fltout              00000001801d788c f   libucrt:cfout.obj
 0001:001d7ba4       fegetround                 00000001801d8ba4 f   libucrt:fegetround.obj
 0001:001d7bb8       ?__c32rtomb_utf8@__crt_mbstring@@YA_KPEAD_UPEAU_Mbstatet@@AEAV__crt_cached_ptd_host@@@Z 00000001801d8bb8 f   libucrt:c32rtomb.obj
 0001:001d7c5c       ?__mbrtowc_utf8@__crt_mbstring@@YA_KPEA_WPEBD_KPEAU_Mbstatet@@AEAV__crt_cached_ptd_host@@@Z 00000001801d8c5c f   libucrt:mbrtowc.obj
 0001:001d7ca0       ?__mbsrtowcs_utf8@__crt_mbstring@@YA_KPEA_WPEAPEBD_KPEAU_Mbstatet@@AEAV__crt_cached_ptd_host@@@Z 00000001801d8ca0 f   libucrt:mbrtowc.obj
 0001:001d7fb8       __acrt_stdio_flush_and_write_narrow_nolock 00000001801d8fb8 f   libucrt:_flsbuf.obj
 0001:001d8084       _isatty                    00000001801d9084 f   libucrt:isatty.obj
 0001:001d80e4       __acrt_locale_free_monetary 00000001801d90e4 f   libucrt:initmon.obj
 0001:001d81f0       __acrt_locale_free_numeric 00000001801d91f0 f   libucrt:initnum.obj
 0001:001d8290       __acrt_locale_free_time    00000001801d9290 f   libucrt:inittime.obj
 0001:001d8398       __acrt_GetStringTypeA      00000001801d9398 f   libucrt:getstringtypea.obj
 0001:001d8528       _raise_exc                 00000001801d9528 f   libucrt:fpexcept.obj
 0001:001d8550       _raise_exc_ex              00000001801d9550 f   libucrt:fpexcept.obj
 0001:001d8858       _raise_excf                00000001801d9858 f   libucrt:fpexcept.obj
 0001:001d8884       _set_errno_from_matherr    00000001801d9884 f   libucrt:fpexcept.obj
 0001:001d88c0       qsort                      00000001801d98c0 f   libucrt:qsort.obj
 0001:001d8cd0       strncpy_s                  00000001801d9cd0 f   libucrt:strncpy_s.obj
 0001:001d8e60       strpbrk                    00000001801d9e60 f   libucrt:strpbrk.obj
 0001:001d9228       _mbsdec                    00000001801da228 f   libucrt:mbsdec.obj
 0001:001d9230       _mbsdec_l                  00000001801da230 f   libucrt:mbsdec.obj
 0001:001d95f8       __acrt_LCMapStringA        00000001801da5f8 f   libucrt:lcmapstringa.obj
 0001:001d96a8       _msize_base                00000001801da6a8 f   libucrt:msize.obj
 0001:001d96e4       _realloc_base              00000001801da6e4 f   libucrt:realloc_base.obj
 0001:001d9760       __ascii_wcsnicmp           00000001801da760 f   libucrt:wcsnicmp.obj
 0001:001d9824       _close_internal            00000001801da824 f   libucrt:close.obj
 0001:001d98e8       _close_nolock_internal     00000001801da8e8 f   libucrt:close.obj
 0001:001d99b8       ?__acrt_stdio_free_stream@@YAXV__crt_stdio_stream@@@Z 00000001801da9b8 f   libucrt:stream.obj
 0001:001d9ba0       _lseeki64                  00000001801daba0 f   libucrt:lseek.obj
 0001:001d9c3c       _lseeki64_nolock_internal  00000001801dac3c f   libucrt:lseek.obj
 0001:001d9c44       _putwch_nolock             00000001801dac44 f   libucrt:putwch.obj
 0001:001d9c80       _query_app_type            00000001801dac80 f   libucrt:report_runtime_error.obj
 0001:001d9c88       _controlfp_s               00000001801dac88 f   libucrt:contrlfp.obj
 0001:001d9cec       fegetenv                   00000001801dacec f   libucrt:fegetenv.obj
 0001:001d9d0c       fesetenv                   00000001801dad0c f   libucrt:fesetenv.obj
 0001:001d9d64       feholdexcept               00000001801dad64 f   libucrt:feholdexcept.obj
 0001:001d9db4       ceil                       00000001801dadb4 f   libucrt:ceil.obj
 0001:001d9e80       log10                      00000001801dae80 f   libucrt:log10.obj
 0001:001da42c       __acrt_fenv_get_common_round_control 00000001801db42c f   libucrt:_fenvutils.obj
 0001:001da438       __acrt_fenv_get_control    00000001801db438 f   libucrt:_fenvutils.obj
 0001:001da51c       __acrt_fenv_get_status     00000001801db51c f   libucrt:_fenvutils.obj
 0001:001da574       __acrt_fenv_set_control    00000001801db574 f   libucrt:_fenvutils.obj
 0001:001da6ac       __acrt_fenv_set_status     00000001801db6ac f   libucrt:_fenvutils.obj
 0001:001da720       ?reset_and_return@__crt_mbstring@@YA_K_KPEAU_Mbstatet@@@Z 00000001801db720 f   libucrt:common_utf8.obj
 0001:001da728       ?return_illegal_sequence@__crt_mbstring@@YA_KPEAU_Mbstatet@@AEAV__crt_cached_ptd_host@@@Z 00000001801db728 f   libucrt:common_utf8.obj
 0001:001da73c       ?__mbrtoc32_utf8@__crt_mbstring@@YA_KPEA_UPEBD_KPEAU_Mbstatet@@AEAV__crt_cached_ptd_host@@@Z 00000001801db73c f   libucrt:mbrtoc32.obj
 0001:001da918       __acrt_stdio_allocate_buffer_nolock 00000001801db918 f   libucrt:_getbuf.obj
 0001:001da984       __strncnt                  00000001801db984 f   libucrt:strncnt.obj
 0001:001da99c       __dcrt_lowio_ensure_console_output_initialized 00000001801db99c f   libucrt:initcon.obj
 0001:001da9f0       __dcrt_terminate_console_output 00000001801db9f0 f   libucrt:initcon.obj
 0001:001daa0c       __dcrt_write_console       00000001801dba0c f   libucrt:initcon.obj
 0001:001daacc       _clearfp                   00000001801dbacc f   libucrt:ieee.obj
 0001:001dab38       _control87                 00000001801dbb38 f   libucrt:ieee.obj
 0001:001dade0       _log10_special             00000001801dbde0 f   libucrt:log_special.obj
 0001:001daea0       _FindPESection             00000001801dbea0 f   LIBCMT:pesect.obj
 0001:001daef0       _IsNonwritableInCurrentImage 00000001801dbef0 f   LIBCMT:pesect.obj
 0001:001daf40       _ValidateImageBase         00000001801dbf40 f   LIBCMT:pesect.obj
 0001:001daf6c       __GSHandlerCheck           00000001801dbf6c f   LIBCMT:gshandler.obj
 0001:001daf8c       __GSHandlerCheckCommon     00000001801dbf8c f   LIBCMT:gshandler.obj
 0001:001db000       __security_check_cookie    00000001801dc000 f   LIBCMT:amdsecgs.obj
 0001:001db020       __GSHandlerCheck_SEH       00000001801dc020 f   LIBCMT:gshandlerseh.obj
 0001:001db0a8       __raise_securityfailure    00000001801dc0a8 f   LIBCMT:gs_report.obj
 0001:001db0dc       __report_gsfailure         00000001801dc0dc f   LIBCMT:gs_report.obj
 0001:001db1b0       __report_rangecheckfailure 00000001801dc1b0 f   LIBCMT:gs_report.obj
 0001:001db1c4       __report_securityfailure   00000001801dc1c4 f   LIBCMT:gs_report.obj
 0001:001db348       __GSHandlerCheck_EH        00000001801dc348 f   LIBCMT:gshandlereh.obj
 0001:001db3c8       __C_specific_handler_noexcept 00000001801dc3c8 f   libvcruntime:chandler_noexcept.obj
 0001:001db414       strrchr                    00000001801dc414 f   libvcruntime:strrchr.obj
 0001:001db560       _guard_dispatch_icall_nop  00000001801dc560 f   LIBCMT:guard_dispatch.obj
 0001:001db580       _guard_xfg_dispatch_icall_nop 00000001801dc580 f   LIBCMT:guard_xfg_dispatch.obj
 0001:001db5b0       memcpy_repmovs             00000001801dc5b0 f   libvcruntime:memcpy.obj
 0001:001db5c0       memcpy                     00000001801dc5c0 f   libvcruntime:memcpy.obj
 0001:001db5c0       memcpy_$fo_default$        00000001801dc5c0     libvcruntime:memcpy.obj
 0001:001db5c0       memmove                    00000001801dc5c0 f   libvcruntime:memcpy.obj
 0001:001dbc50       memset_repstos             00000001801dcc50 f   libvcruntime:memset.obj
 0001:001dbc60       memset                     00000001801dcc60 f   libvcruntime:memset.obj
 0002:00000000       __imp_GetLastError         00000001801de000     kernel32:KERNEL32.dll
 0002:00000008       __imp_FreeLibrary          00000001801de008     kernel32:KERNEL32.dll
 0002:00000010       __imp_GetProcAddress       00000001801de010     kernel32:KERNEL32.dll
 0002:00000018       __imp_LoadLibraryA         00000001801de018     kernel32:KERNEL32.dll
 0002:00000020       __imp_RaiseException       00000001801de020     kernel32:KERNEL32.dll
 0002:00000028       __imp_GetSystemInfo        00000001801de028     kernel32:KERNEL32.dll
 0002:00000030       __imp_VirtualProtect       00000001801de030     kernel32:KERNEL32.dll
 0002:00000038       __imp_VirtualQuery         00000001801de038     kernel32:KERNEL32.dll
 0002:00000040       __imp_GetModuleHandleW     00000001801de040     kernel32:KERNEL32.dll
 0002:00000048       __imp_LoadLibraryExA       00000001801de048     kernel32:KERNEL32.dll
 0002:00000050       __imp_InitializeSListHead  00000001801de050     kernel32:KERNEL32.dll
 0002:00000058       __imp_RtlCaptureContext    00000001801de058     kernel32:KERNEL32.dll
 0002:00000060       __imp_RtlLookupFunctionEntry 00000001801de060     kernel32:KERNEL32.dll
 0002:00000068       __imp_RtlVirtualUnwind     00000001801de068     kernel32:KERNEL32.dll
 0002:00000070       __imp_IsDebuggerPresent    00000001801de070     kernel32:KERNEL32.dll
 0002:00000078       __imp_UnhandledExceptionFilter 00000001801de078     kernel32:KERNEL32.dll
 0002:00000080       __imp_SetUnhandledExceptionFilter 00000001801de080     kernel32:KERNEL32.dll
 0002:00000088       __imp_GetStartupInfoW      00000001801de088     kernel32:KERNEL32.dll
 0002:00000090       __imp_IsProcessorFeaturePresent 00000001801de090     kernel32:KERNEL32.dll
 0002:00000098       __imp_QueryPerformanceCounter 00000001801de098     kernel32:KERNEL32.dll
 0002:000000a0       __imp_GetCurrentProcessId  00000001801de0a0     kernel32:KERNEL32.dll
 0002:000000a8       __imp_GetCurrentThreadId   00000001801de0a8     kernel32:KERNEL32.dll
 0002:000000b0       __imp_GetSystemTimeAsFileTime 00000001801de0b0     kernel32:KERNEL32.dll
 0002:000000b8       __imp_InterlockedPushEntrySList 00000001801de0b8     kernel32:KERNEL32.dll
 0002:000000c0       __imp_InterlockedFlushSList 00000001801de0c0     kernel32:KERNEL32.dll
 0002:000000c8       __imp_RtlUnwindEx          00000001801de0c8     kernel32:KERNEL32.dll
 0002:000000d0       __imp_SetLastError         00000001801de0d0     kernel32:KERNEL32.dll
 0002:000000d8       __imp_EnterCriticalSection 00000001801de0d8     kernel32:KERNEL32.dll
 0002:000000e0       __imp_LeaveCriticalSection 00000001801de0e0     kernel32:KERNEL32.dll
 0002:000000e8       __imp_DeleteCriticalSection 00000001801de0e8     kernel32:KERNEL32.dll
 0002:000000f0       __imp_InitializeCriticalSectionAndSpinCount 00000001801de0f0     kernel32:KERNEL32.dll
 0002:000000f8       __imp_TlsAlloc             00000001801de0f8     kernel32:KERNEL32.dll
 0002:00000100       __imp_TlsGetValue          00000001801de100     kernel32:KERNEL32.dll
 0002:00000108       __imp_TlsSetValue          00000001801de108     kernel32:KERNEL32.dll
 0002:00000110       __imp_TlsFree              00000001801de110     kernel32:KERNEL32.dll
 0002:00000118       __imp_LoadLibraryExW       00000001801de118     kernel32:KERNEL32.dll
 0002:00000120       __imp_EncodePointer        00000001801de120     kernel32:KERNEL32.dll
 0002:00000128       __imp_RtlPcToFileHeader    00000001801de128     kernel32:KERNEL32.dll
 0002:00000130       __imp_GetCurrentProcess    00000001801de130     kernel32:KERNEL32.dll
 0002:00000138       __imp_ExitProcess          00000001801de138     kernel32:KERNEL32.dll
 0002:00000140       __imp_TerminateProcess     00000001801de140     kernel32:KERNEL32.dll
 0002:00000148       __imp_GetModuleHandleExW   00000001801de148     kernel32:KERNEL32.dll
 0002:00000150       __imp_GetModuleFileNameW   00000001801de150     kernel32:KERNEL32.dll
 0002:00000158       __imp_HeapAlloc            00000001801de158     kernel32:KERNEL32.dll
 0002:00000160       __imp_HeapFree             00000001801de160     kernel32:KERNEL32.dll
 0002:00000168       __imp_FlsAlloc             00000001801de168     kernel32:KERNEL32.dll
 0002:00000170       __imp_FlsGetValue          00000001801de170     kernel32:KERNEL32.dll
 0002:00000178       __imp_FlsSetValue          00000001801de178     kernel32:KERNEL32.dll
 0002:00000180       __imp_FlsFree              00000001801de180     kernel32:KERNEL32.dll
 0002:00000188       __imp_LCMapStringW         00000001801de188     kernel32:KERNEL32.dll
 0002:00000190       __imp_GetStdHandle         00000001801de190     kernel32:KERNEL32.dll
 0002:00000198       __imp_GetFileType          00000001801de198     kernel32:KERNEL32.dll
 0002:000001a0       __imp_FindClose            00000001801de1a0     kernel32:KERNEL32.dll
 0002:000001a8       __imp_FindFirstFileExW     00000001801de1a8     kernel32:KERNEL32.dll
 0002:000001b0       __imp_FindNextFileW        00000001801de1b0     kernel32:KERNEL32.dll
 0002:000001b8       __imp_IsValidCodePage      00000001801de1b8     kernel32:KERNEL32.dll
 0002:000001c0       __imp_GetACP               00000001801de1c0     kernel32:KERNEL32.dll
 0002:000001c8       __imp_GetOEMCP             00000001801de1c8     kernel32:KERNEL32.dll
 0002:000001d0       __imp_GetCPInfo            00000001801de1d0     kernel32:KERNEL32.dll
 0002:000001d8       __imp_GetCommandLineA      00000001801de1d8     kernel32:KERNEL32.dll
 0002:000001e0       __imp_GetCommandLineW      00000001801de1e0     kernel32:KERNEL32.dll
 0002:000001e8       __imp_MultiByteToWideChar  00000001801de1e8     kernel32:KERNEL32.dll
 0002:000001f0       __imp_WideCharToMultiByte  00000001801de1f0     kernel32:KERNEL32.dll
 0002:000001f8       __imp_GetEnvironmentStringsW 00000001801de1f8     kernel32:KERNEL32.dll
 0002:00000200       __imp_FreeEnvironmentStringsW 00000001801de200     kernel32:KERNEL32.dll
 0002:00000208       __imp_GetProcessHeap       00000001801de208     kernel32:KERNEL32.dll
 0002:00000210       __imp_FlushFileBuffers     00000001801de210     kernel32:KERNEL32.dll
 0002:00000218       __imp_WriteFile            00000001801de218     kernel32:KERNEL32.dll
 0002:00000220       __imp_GetConsoleOutputCP   00000001801de220     kernel32:KERNEL32.dll
 0002:00000228       __imp_GetConsoleMode       00000001801de228     kernel32:KERNEL32.dll
 0002:00000230       __imp_SetStdHandle         00000001801de230     kernel32:KERNEL32.dll
 0002:00000238       __imp_GetFileSizeEx        00000001801de238     kernel32:KERNEL32.dll
 0002:00000240       __imp_SetFilePointerEx     00000001801de240     kernel32:KERNEL32.dll
 0002:00000248       __imp_GetStringTypeW       00000001801de248     kernel32:KERNEL32.dll
 0002:00000250       __imp_HeapSize             00000001801de250     kernel32:KERNEL32.dll
 0002:00000258       __imp_HeapReAlloc          00000001801de258     kernel32:KERNEL32.dll
 0002:00000260       __imp_CloseHandle          00000001801de260     kernel32:KERNEL32.dll
 0002:00000268       __imp_CreateFileW          00000001801de268     kernel32:KERNEL32.dll
 0002:00000270       __imp_WriteConsoleW        00000001801de270     kernel32:KERNEL32.dll
 0002:00000278       \177KERNEL32_NULL_THUNK_DATA 00000001801de278     kernel32:KERNEL32.dll
 0002:00000280       __guard_check_icall_fptr   00000001801de280     LIBCMT:guard_support.obj
 0002:00000288       __guard_xfg_check_icall_fptr 00000001801de288     LIBCMT:guard_support.obj
 0002:00000290       __guard_dispatch_icall_fptr 00000001801de290     LIBCMT:guard_support.obj
 0002:00000298       __guard_xfg_dispatch_icall_fptr 00000001801de298     LIBCMT:guard_support.obj
 0002:000002a0       __guard_xfg_table_dispatch_icall_fptr 00000001801de2a0     LIBCMT:guard_support.obj
 0002:000002a8       __castguard_check_failure_os_handled_fptr 00000001801de2a8     LIBCMT:guard_support.obj
 0002:000002b0       __guard_memcpy_fptr        00000001801de2b0     libvcruntime:softmemtag.obj
 0002:000002b8       __xc_a                     00000001801de2b8     LIBCMT:initializers.obj
 0002:00001c90       __xc_z                     00000001801dfc90     LIBCMT:initializers.obj
 0002:00001c98       __xi_a                     00000001801dfc98     LIBCMT:initializers.obj
 0002:00001ca0       __acrt_stdio_initializer   00000001801dfca0     libucrt:stdio_initializer.obj
 0002:00001ca8       __acrt_tran_fma3_initializer 00000001801dfca8     libucrt:fma3_initializer.obj
 0002:00001cb0       __acrt_multibyte_initializer 00000001801dfcb0     libucrt:multibyte_initializer.obj
 0002:00001cb8       __xi_z                     00000001801dfcb8     LIBCMT:initializers.obj
 0002:00001cc0       __xp_a                     00000001801dfcc0     LIBCMT:initializers.obj
 0002:00001cc8       __acrt_locale_terminator   00000001801dfcc8     libucrt:locale_initializer.obj
 0002:00001cd0       __dcrt_console_output_terminator 00000001801dfcd0     libucrt:console_output_initializer.obj
 0002:00001cd8       __acrt_stdio_terminator    00000001801dfcd8     libucrt:stdio_initializer.obj
 0002:00001ce0       __xp_z                     00000001801dfce0     LIBCMT:initializers.obj
 0002:00001ce8       __xt_a                     00000001801dfce8     LIBCMT:initializers.obj
 0002:00001cf0       __xt_z                     00000001801dfcf0     LIBCMT:initializers.obj
 0002:00001d00       ??_C@_08MDGMHCHN@PtrTable@ 00000001801dfd00     CmPtrTable.obj
 0002:00001d0c       ??_C@_04GKJNKENE@void@     00000001801dfd0c     CmPtrTable.obj
 0002:00001d18       ??_C@_07DFEBJDHE@mSingle@  00000001801dfd18     CmPtrTable.obj
 0002:00001d20       ??_C@_05NLHHBMOH@PxU16@    00000001801dfd20     CmPtrTable.obj
 0002:00001d28       ??_C@_06EPKHJPIM@mCount@   00000001801dfd28     CmPtrTable.obj
 0002:00001d30       ??_C@_04DDKJGDCM@bool@     00000001801dfd30     CmPtrTable.obj
 0002:00001d38       ??_C@_0M@DAGELID@mOwnsMemory@ 00000001801dfd38     CmPtrTable.obj
 0002:00001d48       ??_C@_0M@MMPOMMLP@mBufferUsed@ 00000001801dfd48     CmPtrTable.obj
 0002:00001d54       ??_C@_05LMJPANIN@PxU32@    00000001801dfd54     CmPtrTable.obj
 0002:00001d60       ??_C@_09PMLNMEMN@mFreeSlot@ 00000001801dfd60     CmPtrTable.obj
 0002:00001d70       ??_7PxCollection@physx@@6B@ 00000001801dfd70     CmCollection.obj
 0002:00001df0       ??_C@_00CNPNBAHC@@         00000001801dfdf0     CmCollection.obj
 0002:00001df8       ??_7Collection@Cm@physx@@6B@ 00000001801dfdf8     CmCollection.obj
 0002:00001e80       ??_C@_0GE@GBACBMOC@PxCollection?3?3add?5called?5for?5an@ 00000001801dfe80     CmCollection.obj
 0002:00001ef0       ??_C@_0EJ@HLCDGJJD@C?3?2Code?2PhysX?9106?41?9physx?95?44?42@ 00000001801dfef0     CmCollection.obj
 0002:00001f40       ??_C@_0EM@OMMGDOMK@PxCollection?3?3add?5called?5with?5a@ 00000001801dff40     CmCollection.obj
 0002:00001f90       ??_C@_0EL@PAMCAAEA@C?3?2Code?2PhysX?9106?41?9physx?95?44?42@ 00000001801dff90     CmCollection.obj
 0002:00001fe0       ??_C@_0BM@OIFKLHDN@?$DMallocation?5names?5disabled?$DO@ 00000001801dffe0     CmCollection.obj
 0002:00002000       ??_7RadixSort@Cm@physx@@6B@ 00000001801e0000     CmRadixSort.obj
 0002:00002008       ??_7RadixSortBuffered@Cm@physx@@6B@ 00000001801e0008     CmRadixSort.obj
 0002:00002010       ??_C@_0EI@EKNCFPPL@C?3?2Code?2PhysX?9106?41?9physx?95?44?42@ 00000001801e0010     CmRadixSort.obj
 0002:00002060       __xmm@00000001000000010000000100000001 00000001801e0060     CmRadixSort.obj
 0002:00002070       __xmm@00000003000000020000000100000000 00000001801e0070     CmRadixSort.obj
 0002:00002080       __real@3d4ccccd            00000001801e0080     CmVisualization.obj
 0002:00002084       __real@3e19999a            00000001801e0084     CmVisualization.obj
 0002:00002088       __real@3e490fdb            00000001801e0088     CmVisualization.obj
 0002:0000208c       __real@3e800000            00000001801e008c     CmVisualization.obj
 0002:00002090       __real@3e99999a            00000001801e0090     CmVisualization.obj
 0002:00002094       __real@3ea0d97c            00000001801e0094     CmVisualization.obj
 0002:00002098       __real@3f000000            00000001801e0098     CmVisualization.obj
 0002:0000209c       __real@3f3504f3            00000001801e009c     CmVisualization.obj
 0002:000020a0       __real@3f800000            00000001801e00a0     CmVisualization.obj
 0002:000020a4       __real@3fc00000            00000001801e00a4     CmVisualization.obj
 0002:000020a8       __real@3fddb3d7            00000001801e00a8     CmVisualization.obj
 0002:000020ac       __real@40100000            00000001801e00ac     CmVisualization.obj
 0002:000020b0       __real@40c90fdb            00000001801e00b0     CmVisualization.obj
 0002:000020b4       __real@40d80000            00000001801e00b4     CmVisualization.obj
 0002:000020b8       __real@c0000000            00000001801e00b8     CmVisualization.obj
 0002:000020c0       __xmm@3f800000000000000000000000000000 00000001801e00c0     CmVisualization.obj
 0002:000020d0       __xmm@7fffffff7fffffff7fffffff7fffffff 00000001801e00d0     CmVisualization.obj
 0002:000020e0       __xmm@80000000800000008000000080000000 00000001801e00e0     CmVisualization.obj
 0002:000020f0       ??_C@_0BB@CPDDPFKD@GetUpdatedModule@ 00000001801e00f0     CmWindowsModuleUpdateLoader.obj
 0002:00002110       ??_C@_0GA@IBMFMBBC@C?3?2Code?2PhysX?9106?41?9physx?95?44?42@ 00000001801e0110     CmWindowsModuleUpdateLoader.obj
 0002:00002170       ??_C@_0CP@PGOIOJOO@?$CFs?3?$CFi?3?5loadLibrary?5error?5when?5l@ 00000001801e0170     CmWindowsModuleUpdateLoader.obj
 0002:000021a0       ??_C@_0BA@EGLNOO@PhysXFoundation@ 00000001801e01a0     CmWindowsDelayLoadHook.obj
 0002:000021b0       ??_C@_0M@ILKNCJKN@PhysXCommon@ 00000001801e01b0     CmWindowsDelayLoadHook.obj
 0002:000021e0       __real@3f7ff972            00000001801e01e0     GuBox.obj
 0002:000021f0       __xmm@000000003a83126f3a83126f3a83126f 00000001801e01f0     GuBox.obj
 0002:00002200       __xmm@00000000ba83126fba83126fba83126f 00000001801e0200     GuBox.obj
 0002:00002210       __xmm@3a83126f3a83126f3a83126f3a83126f 00000001801e0210     GuBox.obj
 0002:00002220       __xmm@ba83126fba83126fba83126fba83126f 00000001801e0220     GuBox.obj
 0002:00002250       ??_7EntityReport@Gu@physx@@6B@ 00000001801e0250     GuSweepsHF.obj
 0002:00002250       ??_7OverlapCallback@PxBVH@physx@@6B@ 00000001801e0250     GuQuerySystem.obj
 0002:00002250       ??_7OverlapReport@Gu@physx@@6B@ 00000001801e0250     GuCCTSweepTests.obj
 0002:00002250       ??_7RaycastCallback@PxBVH@physx@@6B@ 00000001801e0250     GuQuerySystem.obj
 0002:00002250       ??_7RemapCallback@RTreeCooker@physx@@6B@ 00000001801e0250     GuCookingTriangleMesh.obj
 0002:00002270       __real@3b03126f            00000001801e0270     GuCCTSweepTests.obj
 0002:00002274       __real@40000000            00000001801e0274     GuCCTSweepTests.obj
 0002:000022b0       ??_7SupportLocal@Gu@physx@@6B@ 00000001801e02b0     GuGeometryQuery.obj
 0002:000022d0       ??_7?$SupportLocalImpl@VBoxV@Gu@physx@@@Gu@physx@@6B@ 00000001801e02d0     GuGeometryQuery.obj
 0002:000022f0       ??_7?$SupportLocalImpl@VConvexHullV@Gu@physx@@@Gu@physx@@6B@ 00000001801e02f0     GuGeometryQuery.obj
 0002:00002310       ??_C@_0ED@BKGNJIDA@C?3?2Code?2PhysX?9106?41?9physx?95?44?42@ 00000001801e0310     GuGeometryQuery.obj
 0002:00002354       __real@30d1b7e9            00000001801e0354     GuGeometryQuery.obj
 0002:00002358       __real@322bcc77            00000001801e0358     GuGeometryQuery.obj
 0002:0000235c       __real@358637bd            00000001801e035c     GuGeometryQuery.obj
 0002:00002360       __real@3a83126f            00000001801e0360     GuGeometryQuery.obj
 0002:00002364       __real@3ccccccd            00000001801e0364     GuGeometryQuery.obj
 0002:00002368       __real@3dcccccd            00000001801e0368     GuGeometryQuery.obj
 0002:0000236c       __real@49742400            00000001801e036c     GuGeometryQuery.obj
 0002:00002370       __real@7f7fffff            00000001801e0370     GuGeometryQuery.obj
 0002:00002374       __real@bf800000            00000001801e0374     GuGeometryQuery.obj
 0002:00002380       __xmm@0000000000000000000000003f800000 00000001801e0380     GuGeometryQuery.obj
 0002:00002390       __xmm@00000000000000003f80000000000000 00000001801e0390     GuGeometryQuery.obj
 0002:000023a0       __xmm@00000000000000003f8000003f800000 00000001801e03a0     GuGeometryQuery.obj
 0002:000023b0       __xmm@000000003f8000000000000000000000 00000001801e03b0     GuGeometryQuery.obj
 0002:000023c0       __xmm@000000003f8000003f8000003f800000 00000001801e03c0     GuGeometryQuery.obj
 0002:000023d0       __xmm@00000000ffffffffffffffffffffffff 00000001801e03d0     GuGeometryQuery.obj
 0002:000023e0       __xmm@3d4ccccd3d4ccccd3d4ccccd3d4ccccd 00000001801e03e0     GuGeometryQuery.obj
 0002:000023f0       __xmm@3e19999a3e19999a3e19999a3e19999a 00000001801e03f0     GuGeometryQuery.obj
 0002:00002400       __xmm@3e4ccccd3e4ccccd3e4ccccd3e4ccccd 00000001801e0400     GuGeometryQuery.obj
 0002:00002410       __xmm@3e8000003e8000003e8000003e800000 00000001801e0410     GuGeometryQuery.obj
 0002:00002420       __xmm@3f7ef9db3f7ef9db3f7ef9db3f7ef9db 00000001801e0420     GuGeometryQuery.obj
 0002:00002430       __xmm@3f7ff2e53f7ff2e53f7ff2e53f7ff2e5 00000001801e0430     GuGeometryQuery.obj
 0002:00002440       __xmm@3f8000003f8000003f8000003f800000 00000001801e0440     GuGeometryQuery.obj
 0002:00002450       __xmm@7f7fffff7f7fffff7f7fffff7f7fffff 00000001801e0450     GuGeometryQuery.obj
 0002:00002460       __xmm@bf000000bf000000bf000000bf000000 00000001801e0460     GuGeometryQuery.obj
 0002:00002490       ??_C@_0EN@HCAPLNBF@C?3?2Code?2PhysX?9106?41?9physx?95?44?42@ 00000001801e0490     GuMeshFactory.obj
 0002:000024f0       ??_C@_0EM@BDFDGBD@Inserting?5object?5failed?3?5Object@ 00000001801e04f0     GuMeshFactory.obj
 0002:00002540       ??_7CallbackRaycast@RTree@Gu@physx@@6B@ 00000001801e0540     GuMidphaseRTree.obj
 0002:00002540       ??_7CallbackRefit@RTree@Gu@physx@@6B@ 00000001801e0540     GuTriangleMeshRTree.obj
 0002:00002540       ??_7PxInsertionCallback@physx@@6B@ 00000001801e0540     GuMeshFactory.obj
 0002:00002570       ??_7PxCollisionMeshMappingData@physx@@6B@ 00000001801e0570     GuMeshFactory.obj
 0002:00002580       ??_7MeshFactory@Gu@physx@@6B@ 00000001801e0580     GuMeshFactory.obj
 0002:00002588       ??_7MeshDataBase@Gu@physx@@6B@ 00000001801e0588     GuMeshFactory.obj
 0002:00002590       ??_C@_0EN@JMNJLDJC@C?3?2Code?2PhysX?9106?41?9physx?95?44?42@ 00000001801e0590     GuMeshFactory.obj
 0002:000025e0       ??_7TriangleMeshData@Gu@physx@@6B@ 00000001801e05e0     GuMeshFactory.obj
 0002:000025e8       ??_7RTreeTriangleData@Gu@physx@@6B@ 00000001801e05e8     GuMeshFactory.obj
 0002:000025f0       ??_7BV4TriangleData@Gu@physx@@6B@ 00000001801e05f0     GuMeshFactory.obj
 0002:000025f8       ??_7SoftBodyCollisionData@Gu@physx@@6B@ 00000001801e05f8     GuMeshFactory.obj
 0002:00002600       ??_7CollisionMeshMappingData@Gu@physx@@6B@ 00000001801e0600     GuMeshFactory.obj
 0002:00002610       ??_7SoftBodySimulationData@Gu@physx@@6B@ 00000001801e0610     GuMeshFactory.obj
 0002:00002620       ??_C@_0GP@NHELMDAL@Loading?5triangle?5mesh?5failed?3?5D@ 00000001801e0620     GuMeshFactory.obj
 0002:00002690       ??_C@_0BP@CDOKDACA@RTree?5binary?5image?5load?5error?4@ 00000001801e0690     GuMeshFactory.obj
 0002:000026b0       ??_C@_0BN@MJPNIELF@BV4?5binary?5image?5load?5error?4@ 00000001801e06b0     GuMeshFactory.obj
 0002:000026d0       ??_C@_0BO@JDPABAOF@BV32?5binary?5image?5load?5error?4@ 00000001801e06d0     GuMeshFactory.obj
 0002:000026f0       ??_C@_0ED@BDAAJBEJ@C?3?2Code?2PhysX?9106?41?9physx?95?44?42@ 00000001801e06f0     GuMeshFactory.obj
 0002:00002740       __xmm@fe7fffff7e7fffff7e7fffff7e7fffff 00000001801e0740     GuMeshFactory.obj
 0002:00002770       ??_C@_06EJKDJEDO@PxBase@   00000001801e0770     GuMetaData.obj
 0002:00002778       ??_C@_07GFCEJNGM@Valency@  00000001801e0778     GuMetaData.obj
 0002:00002780       ??_C@_07NHGKEEIN@mOffset@  00000001801e0780     GuMetaData.obj
 0002:00002788       ??_C@_0BB@BAGHBMNJ@BigConvexRawData@ 00000001801e0788     GuMetaData.obj
 0002:000027a0       ??_C@_07PBDEJAAC@mSubdiv@  00000001801e07a0     GuMetaData.obj
 0002:000027a8       ??_C@_0L@HNPACPGH@mNbSamples@ 00000001801e07a8     GuMetaData.obj
 0002:000027b4       ??_C@_04NCKNBPPK@PxU8@     00000001801e07b4     GuMetaData.obj
 0002:000027c0       ??_C@_08DEPEKJNI@mSamples@ 00000001801e07c0     GuMetaData.obj
 0002:000027d0       ??_C@_08IJDNJBMI@mNbVerts@ 00000001801e07d0     GuMetaData.obj
 0002:000027e0       ??_C@_0M@MMKMIJAF@mNbAdjVerts@ 00000001801e07e0     GuMetaData.obj
 0002:000027f0       ??_C@_0L@EOKMNILC@mValencies@ 00000001801e07f0     GuMetaData.obj
 0002:00002800       ??_C@_0P@DLGEAMHJ@mAdjacentVerts@ 00000001801e0800     GuMetaData.obj
 0002:00002810       ??_C@_04GGOEHDKB@Dim3@     00000001801e0810     GuMetaData.obj
 0002:00002818       ??_C@_01FJMABOPO@x@        00000001801e0818     GuMetaData.obj
 0002:0000281c       ??_C@_01EANLCPLP@y@        00000001801e081c     GuMetaData.obj
 0002:00002820       ??_C@_01GLPGHMHM@z@        00000001801e0820     GuMetaData.obj
 0002:00002824       ??_C@_03NGLDENDA@SDF@      00000001801e0824     GuMetaData.obj
 0002:00002828       ??_C@_06KDGGGLIJ@PxVec3@   00000001801e0828     GuMetaData.obj
 0002:00002830       ??_C@_0L@COALOJDH@mMeshLower@ 00000001801e0830     GuMetaData.obj
 0002:0000283c       ??_C@_06GIEBFILM@PxReal@   00000001801e083c     GuMetaData.obj
 0002:00002848       ??_C@_08LAPKNLAN@mSpacing@ 00000001801e0848     GuMetaData.obj
 0002:00002854       ??_C@_05FFBHHGJO@mDims@    00000001801e0854     GuMetaData.obj
 0002:00002860       ??_C@_08BEIPGJN@mNumSdfs@  00000001801e0860     GuMetaData.obj
 0002:0000286c       ??_C@_04PNLOLEIP@mSdf@     00000001801e086c     GuMetaData.obj
 0002:00002878       ??_C@_0N@ILJLOAFB@mSubgridSize@ 00000001801e0878     GuMetaData.obj
 0002:00002888       ??_C@_0P@EMNLEPPL@mNumStartSlots@ 00000001801e0888     GuMetaData.obj
 0002:00002898       ??_C@_0BD@BIMMHJEO@mSubgridStartSlots@ 00000001801e0898     GuMetaData.obj
 0002:000028b0       ??_C@_0BA@OKNFKLGG@mNumSubgridSdfs@ 00000001801e08b0     GuMetaData.obj
 0002:000028c0       ??_C@_0M@PGCPOAID@mSubgridSdf@ 00000001801e08c0     GuMetaData.obj
 0002:000028d0       ??_C@_0BK@KJPHDIOI@mSdfSubgrids3DTexBlockDim@ 00000001801e08d0     GuMetaData.obj
 0002:000028f0       ??_C@_0BF@PONLKCNL@mSubgridsMinSdfValue@ 00000001801e08f0     GuMetaData.obj
 0002:00002908       ??_C@_0BF@GOKILCDB@mSubgridsMaxSdfValue@ 00000001801e0908     GuMetaData.obj
 0002:00002920       ??_C@_0BF@NMEHBGBK@mBytesPerSparsePixel@ 00000001801e0920     GuMetaData.obj
 0002:00002938       ??_C@_0O@PFOPBKAM@BigConvexData@ 00000001801e0938     GuMetaData.obj
 0002:00002948       ??_C@_05PLKALGFN@mData@    00000001801e0948     GuMetaData.obj
 0002:00002950       ??_C@_08PEMCLHEM@mVBuffer@ 00000001801e0950     GuMetaData.obj
 0002:00002960       ??_C@_09FBMAGD@Alignment@  00000001801e0960     GuMetaData.obj
 0002:00002970       ??_C@_0BE@KFHIBEEA@InternalObjectsData@ 00000001801e0970     GuMetaData.obj
 0002:00002988       ??_C@_0BB@FGDFDKPC@mInternalExtents@ 00000001801e0988     GuMetaData.obj
 0002:000029a0       ??_C@_0BA@LMFGPCMM@mInternalRadius@ 00000001801e09a0     GuMetaData.obj
 0002:000029b0       ??_C@_0BA@LFMGGCBK@HullPolygonData@ 00000001801e09b0     GuMetaData.obj
 0002:000029c0       ??_C@_06BOHHGLB@mPlane@    00000001801e09c0     GuMetaData.obj
 0002:000029c8       ??_C@_06EHMLHGLN@mVRef8@   00000001801e09c8     GuMetaData.obj
 0002:000029d0       ??_C@_09BAHHHINI@mMinIndex@ 00000001801e09d0     GuMetaData.obj
 0002:000029e0       ??_C@_0P@GBLBPIPB@ConvexHullData@ 00000001801e09e0     GuMetaData.obj
 0002:000029f0       ??_C@_09JDCJAPKD@PxBounds3@ 00000001801e09f0     GuMetaData.obj
 0002:000029fc       ??_C@_05NDNHIFA@mAABB@     00000001801e09fc     GuMetaData.obj
 0002:00002a08       ??_C@_0O@LNOGEMJI@mCenterOfMass@ 00000001801e0a08     GuMetaData.obj
 0002:00002a18       ??_C@_09CNMCBBKH@mPolygons@ 00000001801e0a18     GuMetaData.obj
 0002:00002a28       ??_C@_0BC@KKPDCFJC@mBigConvexRawData@ 00000001801e0a28     GuMetaData.obj
 0002:00002a40       ??_C@_08MPNAAJLD@mSdfData@ 00000001801e0a40     GuMetaData.obj
 0002:00002a50       ??_C@_08ELDMKGKH@mNbEdges@ 00000001801e0a50     GuMetaData.obj
 0002:00002a60       ??_C@_0BA@CGLOHBAC@mNbHullVertices@ 00000001801e0a60     GuMetaData.obj
 0002:00002a70       ??_C@_0M@HGFFLLDM@mNbPolygons@ 00000001801e0a70     GuMetaData.obj
 0002:00002a80       ??_C@_09BHJEMDGO@mInternal@ 00000001801e0a80     GuMetaData.obj
 0002:00002a90       ??_C@_0L@GMFHOMKA@ConvexMesh@ 00000001801e0a90     GuMetaData.obj
 0002:00002aa0       ??_C@_09ILEBDLJH@mHullData@ 00000001801e0aa0     GuMetaData.obj
 0002:00002aac       ??_C@_03DKDIKGNC@mNb@      00000001801e0aac     GuMetaData.obj
 0002:00002ab0       ??_C@_0P@ENLHFHMD@mBigConvexData@ 00000001801e0ab0     GuMetaData.obj
 0002:00002ac0       ??_C@_05ILALLCHK@mMass@    00000001801e0ac0     GuMetaData.obj
 0002:00002ac8       ??_C@_07DBPDADGB@PxMat33@  00000001801e0ac8     GuMetaData.obj
 0002:00002ad0       ??_C@_08FNBHNDBI@mInertia@ 00000001801e0ad0     GuMetaData.obj
 0002:00002ae0       ??_C@_0O@FCKNKLMJ@GuMeshFactory@ 00000001801e0ae0     GuMetaData.obj
 0002:00002af0       ??_C@_0N@EGBCLMAK@mMeshFactory@ 00000001801e0af0     GuMetaData.obj
 0002:00002b00       ??_C@_0BE@CJJAMAMK@PxHeightFieldSample@ 00000001801e0b00     GuMetaData.obj
 0002:00002b14       ??_C@_05MBLIPEMA@PxI16@    00000001801e0b14     GuMetaData.obj
 0002:00002b1c       ??_C@_06LNLHEAAG@height@   00000001801e0b1c     GuMetaData.obj
 0002:00002b28       ??_C@_0N@HHDGHJN@PxBitAndByte@ 00000001801e0b28     GuMetaData.obj
 0002:00002b38       ??_C@_0P@MBBMLBO@materialIndex0@ 00000001801e0b38     GuMetaData.obj
 0002:00002b48       ??_C@_0P@BFAKPKFP@materialIndex1@ 00000001801e0b48     GuMetaData.obj
 0002:00002b58       ??_C@_0BD@EBLPJEOE@PxHeightFieldFlags@ 00000001801e0b58     GuMetaData.obj
 0002:00002b70       ??_C@_0BK@FNNCFFCN@PxHeightFieldFormat?3?3Enum@ 00000001801e0b70     GuMetaData.obj
 0002:00002b90       ??_C@_0BA@CLNFMAAA@HeightFieldData@ 00000001801e0b90     GuMetaData.obj
 0002:00002ba0       ??_C@_04IMCGAIPI@rows@     00000001801e0ba0     GuMetaData.obj
 0002:00002ba8       ??_C@_07HIFEPIJN@columns@  00000001801e0ba8     GuMetaData.obj
 0002:00002bb0       ??_C@_08MOAGOABI@rowLimit@ 00000001801e0bb0     GuMetaData.obj
 0002:00002bc0       ??_C@_08BAGEHOBO@colLimit@ 00000001801e0bc0     GuMetaData.obj
 0002:00002bd0       ??_C@_09LKDBLADF@nbColumns@ 00000001801e0bd0     GuMetaData.obj
 0002:00002be0       ??_C@_07ODIFGGLK@samples@  00000001801e0be0     GuMetaData.obj
 0002:00002be8       ??_C@_0BE@POHEGOJG@convexEdgeThreshold@ 00000001801e0be8     GuMetaData.obj
 0002:00002bfc       ??_C@_05GECEPKB@flags@     00000001801e0bfc     GuMetaData.obj
 0002:00002c04       ??_C@_06DLEPGFEF@format@   00000001801e0c04     GuMetaData.obj
 0002:00002c10       ??_C@_0BF@MOGDNMPL@PxMaterialTableIndex@ 00000001801e0c10     GuMetaData.obj
 0002:00002c28       ??_C@_0M@JMJICJJO@HeightField@ 00000001801e0c28     GuMetaData.obj
 0002:00002c38       ??_C@_0O@ENGHMLJP@mSampleStride@ 00000001801e0c38     GuMetaData.obj
 0002:00002c48       ??_C@_0L@EBEEMFFB@mMinHeight@ 00000001801e0c48     GuMetaData.obj
 0002:00002c58       ??_C@_0L@EAEIFPOF@mMaxHeight@ 00000001801e0c58     GuMetaData.obj
 0002:00002c68       ??_C@_0N@FEFJOKKE@mModifyCount@ 00000001801e0c68     GuMetaData.obj
 0002:00002c78       ??_C@_09PHDKHCK@RTreePage@ 00000001801e0c78     GuMetaData.obj
 0002:00002c84       ??_C@_04LLPOBGED@minx@     00000001801e0c84     GuMetaData.obj
 0002:00002c8c       ??_C@_04KCOFCHAC@miny@     00000001801e0c8c     GuMetaData.obj
 0002:00002c94       ??_C@_04IJMIHEMB@minz@     00000001801e0c94     GuMetaData.obj
 0002:00002c9c       ??_C@_04GGOBOBGO@maxx@     00000001801e0c9c     GuMetaData.obj
 0002:00002ca4       ??_C@_04HPPKNACP@maxy@     00000001801e0ca4     GuMetaData.obj
 0002:00002cac       ??_C@_04FENHIDOM@maxz@     00000001801e0cac     GuMetaData.obj
 0002:00002cb4       ??_C@_04HHDFEJON@ptrs@     00000001801e0cb4     GuMetaData.obj
 0002:00002cbc       ??_C@_05FFEIGAJF@RTree@    00000001801e0cbc     GuMetaData.obj
 0002:00002cc4       ??_C@_06OMCHPNEO@PxVec4@   00000001801e0cc4     GuMetaData.obj
 0002:00002cd0       ??_C@_0L@NBIFEFLN@mBoundsMin@ 00000001801e0cd0     GuMetaData.obj
 0002:00002ce0       ??_C@_0L@MDAOKBNC@mBoundsMax@ 00000001801e0ce0     GuMetaData.obj
 0002:00002cf0       ??_C@_0N@NJEHLCOF@mInvDiagonal@ 00000001801e0cf0     GuMetaData.obj
 0002:00002d00       ??_C@_0BA@BEFIGPFG@mDiagonalScaler@ 00000001801e0d00     GuMetaData.obj
 0002:00002d10       ??_C@_09DICGGKGO@mPageSize@ 00000001801e0d10     GuMetaData.obj
 0002:00002d20       ??_C@_0O@BOFFCNOL@mNumRootPages@ 00000001801e0d20     GuMetaData.obj
 0002:00002d30       ??_C@_0L@JKLGBKAE@mNumLevels@ 00000001801e0d30     GuMetaData.obj
 0002:00002d40       ??_C@_0M@PHDOHJGK@mTotalNodes@ 00000001801e0d40     GuMetaData.obj
 0002:00002d50       ??_C@_0M@GDGHALAO@mTotalPages@ 00000001801e0d50     GuMetaData.obj
 0002:00002d5c       ??_C@_06MHCBBJGP@mFlags@   00000001801e0d5c     GuMetaData.obj
 0002:00002d64       ??_C@_06MMNBLHOK@mPages@   00000001801e0d64     GuMetaData.obj
 0002:00002d70       ??_C@_0P@JNLGHJNH@SourceMeshBase@ 00000001801e0d70     GuMetaData.obj
 0002:00002d80       ??_C@_06JFCLJMNN@mVerts@   00000001801e0d80     GuMetaData.obj
 0002:00002d88       ??_C@_05GNIIDDHH@mType@    00000001801e0d88     GuMetaData.obj
 0002:00002d90       ??_C@_06DHAAKLFK@mRemap@   00000001801e0d90     GuMetaData.obj
 0002:00002d98       ??_C@_0L@LEOGNOEC@SourceMesh@ 00000001801e0d98     GuMetaData.obj
 0002:00002da8       ??_C@_07MPIKOOAP@mNbTris@  00000001801e0da8     GuMetaData.obj
 0002:00002db0       ??_C@_0N@FBMOMEHF@mTriangles32@ 00000001801e0db0     GuMetaData.obj
 0002:00002dc0       ??_C@_0N@DGCGNFBP@mTriangles16@ 00000001801e0dc0     GuMetaData.obj
 0002:00002dd0       ??_C@_0O@NLNHFNO@QuantizedAABB@ 00000001801e0dd0     GuMetaData.obj
 0002:00002de0       ??_C@_0BC@OOGBEMHH@mData?$FL0?$FN?4mExtents@ 00000001801e0de0     GuMetaData.obj
 0002:00002df8       ??_C@_0BB@OCEDKIEF@mData?$FL0?$FN?4mCenter@ 00000001801e0df8     GuMetaData.obj
 0002:00002e10       ??_C@_0BC@HFMEAABI@mData?$FL1?$FN?4mExtents@ 00000001801e0e10     GuMetaData.obj
 0002:00002e28       ??_C@_0BB@CDMNHHIF@mData?$FL1?$FN?4mCenter@ 00000001801e0e28     GuMetaData.obj
 0002:00002e40       ??_C@_0BC@CFKNCOI@mData?$FL2?$FN?4mExtents@ 00000001801e0e40     GuMetaData.obj
 0002:00002e58       ??_C@_0BB@LKCPBBIE@mData?$FL2?$FN?4mCenter@ 00000001801e0e58     GuMetaData.obj
 0002:00002e70       ??_C@_0O@MJJKKPFN@BVDataPackedQ@ 00000001801e0e70     GuMetaData.obj
 0002:00002e80       ??_C@_0O@JFMLAIPJ@CenterExtents@ 00000001801e0e80     GuMetaData.obj
 0002:00002e90       ??_C@_07GNKDIIKJ@mCenter@  00000001801e0e90     GuMetaData.obj
 0002:00002e98       ??_C@_08EHFCACAE@mExtents@ 00000001801e0e98     GuMetaData.obj
 0002:00002ea8       ??_C@_0P@KBMJDPLO@BVDataPackedNQ@ 00000001801e0ea8     GuMetaData.obj
 0002:00002eb8       ??_C@_0M@PNCEBOG@LocalBounds@ 00000001801e0eb8     GuMetaData.obj
 0002:00002ec4       ??_C@_05KNFBNCOH@float@    00000001801e0ec4     GuMetaData.obj
 0002:00002ed0       ??_C@_0BC@LADJKHPL@mExtentsMagnitude@ 00000001801e0ed0     GuMetaData.obj
 0002:00002ee8       ??_C@_07HELIOLAF@BV4Tree@  00000001801e0ee8     GuMetaData.obj
 0002:00002ef0       ??_C@_0P@EMMDNPMH@mMeshInterface@ 00000001801e0ef0     GuMetaData.obj
 0002:00002f00       ??_C@_0N@DCKMHLCL@mLocalBounds@ 00000001801e0f00     GuMetaData.obj
 0002:00002f10       ??_C@_08EEJOMIJL@mNbNodes@ 00000001801e0f10     GuMetaData.obj
 0002:00002f1c       ??_C@_06FIIIMFIO@mNodes@   00000001801e0f1c     GuMetaData.obj
 0002:00002f28       ??_C@_09FGKNPI@mInitData@  00000001801e0f28     GuMetaData.obj
 0002:00002f38       ??_C@_0BC@CLDEHKCO@mCenterOrMinCoeff@ 00000001801e0f38     GuMetaData.obj
 0002:00002f50       ??_C@_0BD@LAOLBNJ@mExtentsOrMaxCoeff@ 00000001801e0f50     GuMetaData.obj
 0002:00002f68       ??_C@_0P@JEECKKBL@mUserAllocated@ 00000001801e0f68     GuMetaData.obj
 0002:00002f78       ??_C@_0L@GLIMNECG@mQuantized@ 00000001801e0f78     GuMetaData.obj
 0002:00002f88       ??_C@_0L@CCOJDAID@mIsEdgeSet@ 00000001801e0f88     GuMetaData.obj
 0002:00002f98       ??_C@_08BNDBAGDH@mPadding@ 00000001801e0f98     GuMetaData.obj
 0002:00002fa8       ??_C@_0N@OJNNNLIB@TriangleMesh@ 00000001801e0fa8     GuMetaData.obj
 0002:00002fb8       ??_C@_0M@OGEDMEAL@mNbVertices@ 00000001801e0fb8     GuMetaData.obj
 0002:00002fc8       ??_C@_0N@MGGDNHNI@mNbTriangles@ 00000001801e0fc8     GuMetaData.obj
 0002:00002fd8       ??_C@_09LNNEGOJA@mVertices@ 00000001801e0fd8     GuMetaData.obj
 0002:00002fe8       ??_C@_0L@KBOFAKLO@mTriangles@ 00000001801e0fe8     GuMetaData.obj
 0002:00002ff8       ??_C@_0P@MHDFIHLD@mExtraTrigData@ 00000001801e0ff8     GuMetaData.obj
 0002:00003008       ??_C@_0N@MGIKKCI@mGeomEpsilon@ 00000001801e1008     GuMetaData.obj
 0002:00003018       ??_C@_0BB@IFLOOCNA@mMaterialIndices@ 00000001801e1018     GuMetaData.obj
 0002:00003030       ??_C@_0L@OPJMBFMI@mFaceRemap@ 00000001801e1030     GuMetaData.obj
 0002:00003040       ??_C@_0N@BIOECAPM@mAdjacencies@ 00000001801e1040     GuMetaData.obj
 0002:00003050       ??_C@_09CICJHLPI@mEdgeList@ 00000001801e1050     GuMetaData.obj
 0002:00003060       ??_C@_0BD@IPKCNNIK@mLocalCenterOfMass@ 00000001801e1060     GuMetaData.obj
 0002:00003078       ??_C@_0BA@OCOIGPII@mGRB_triIndices@ 00000001801e1078     GuMetaData.obj
 0002:00003088       ??_C@_0BE@JPINNDAH@mGRB_triAdjacencies@ 00000001801e1088     GuMetaData.obj
 0002:000030a0       ??_C@_0P@EDFJJHEF@mGRB_faceRemap@ 00000001801e10a0     GuMetaData.obj
 0002:000030b0       ??_C@_0BG@EEALPPCP@mGRB_faceRemapInverse@ 00000001801e10b0     GuMetaData.obj
 0002:000030c8       ??_C@_0N@NAKPIGJP@Gu?3?3BV32Tree@ 00000001801e10c8     GuMetaData.obj
 0002:000030d8       ??_C@_0O@CKMBAIFN@mGRB_BV32Tree@ 00000001801e10d8     GuMetaData.obj
 0002:000030e8       ??_C@_0BJ@LEBGJKBE@mAccumulatedTrianglesRef@ 00000001801e10e8     GuMetaData.obj
 0002:00003108       ??_C@_0BF@OJMCNCDP@mTrianglesReferences@ 00000001801e1108     GuMetaData.obj
 0002:00003120       ??_C@_0BH@LDGPOFA@mNbTrianglesReferences@ 00000001801e1120     GuMetaData.obj
 0002:00003138       ??_C@_0BC@IFGECKF@RTreeTriangleMesh@ 00000001801e1138     GuMetaData.obj
 0002:0000314c       ??_C@_06JDIHDDGN@mRTree@   00000001801e114c     GuMetaData.obj
 0002:00003158       ??_C@_0BA@LNNFPOKA@BV4TriangleMesh@ 00000001801e1158     GuMetaData.obj
 0002:00003168       ??_C@_08FKLPEGDB@mBV4Tree@ 00000001801e1168     GuMetaData.obj
 0002:00003178       ??_7?$SupportLocalImpl@VConvexHullNoScaleV@Gu@physx@@@Gu@physx@@6B@ 00000001801e1178     GuMTD.obj
 0002:000031c0       ?absMask@?1??FAbs@aos@physx@@YA?AT__m128@@T4@@Z@4QBIB 00000001801e11c0     GuMTD.obj
 0002:000031d0       ??_7GjkConvex@Gu@physx@@6B@ 00000001801e11d0     GuMTD.obj
 0002:00003200       ??_7?$LocalConvex@VCapsuleV@Gu@physx@@@Gu@physx@@6B@ 00000001801e1200     GuMTD.obj
 0002:00003230       ??_7?$LocalConvex@VConvexHullV@Gu@physx@@@Gu@physx@@6B@ 00000001801e1230     GuMTD.obj
 0002:00003260       __real@2edbe6ff            00000001801e1260     GuMTD.obj
 0002:00003264       __real@34000000            00000001801e1264     GuMTD.obj
 0002:00003268       __real@ff7fffff            00000001801e1268     GuMTD.obj
 0002:00003270       __xmm@28800000288000002880000028800000 00000001801e1270     GuMTD.obj
 0002:00003280       __xmm@34000000340000003400000034000000 00000001801e1280     GuMTD.obj
 0002:00003290       __xmm@358637bd358637bd358637bd358637bd 00000001801e1290     GuMTD.obj
 0002:000032a0       __xmm@3dcccccd3dcccccd3dcccccd3dcccccd 00000001801e12a0     GuMTD.obj
 0002:000032b0       __xmm@3f7ff1413f7ff1413f7ff1413f7ff141 00000001801e12b0     GuMTD.obj
 0002:000032e0       ??_7?$RelativeConvex@VBoxV@Gu@physx@@@Gu@physx@@6B@ 00000001801e12e0     GuOverlapTests.obj
 0002:00003310       ??_7?$RelativeConvex@VConvexHullV@Gu@physx@@@Gu@physx@@6B@ 00000001801e1310     GuOverlapTests.obj
 0002:00003370       __real@1e3ce508            00000001801e1370     GuRaycastTests.obj
 0002:00003374       __real@28800000            00000001801e1374     GuRaycastTests.obj
 0002:00003378       __real@33d6bf95            00000001801e1378     GuRaycastTests.obj
 0002:0000337c       __real@3727c5ac            00000001801e137c     GuRaycastTests.obj
 0002:00003380       __real@38d1b717            00000001801e1380     GuRaycastTests.obj
 0002:00003384       __real@3f0147ae            00000001801e1384     GuRaycastTests.obj
 0002:00003388       __real@3f7ffffe            00000001801e1388     GuRaycastTests.obj
 0002:0000338c       __real@3f800347            00000001801e138c     GuRaycastTests.obj
 0002:00003390       __real@41200000            00000001801e1390     GuRaycastTests.obj
 0002:00003394       __real@80000000            00000001801e1394     GuRaycastTests.obj
 0002:00003398       __real@b3d6bf95            00000001801e1398     GuRaycastTests.obj
 0002:0000339c       __real@b8d1b717            00000001801e139c     GuRaycastTests.obj
 0002:000033a0       __real@c1200000            00000001801e13a0     GuRaycastTests.obj
 0002:000033e0       ??_7?$MeshHitCallback@UPxGeomRaycastHit@physx@@@Gu@physx@@6B@ 00000001801e13e0     GuSweepMTD.obj
 0002:000033f0       ??_7MeshMTDGenerationCallback@@6B@ 00000001801e13f0     GuSweepMTD.obj
 0002:00003400       ??_7MidPhaseQueryLocalReport@@6B@ 00000001801e1400     GuSweepMTD.obj
 0002:00003410       __real@3f8147ae            00000001801e1410     GuSweepMTD.obj
 0002:00003414       __real@3f933333            00000001801e1414     GuSweepMTD.obj
 0002:00003440       __real@3c23d70a            00000001801e1440     GuSweepSharedTests.obj
 0002:00003444       __real@42c80000            00000001801e1444     GuSweepSharedTests.obj
 0002:00003450       __xmm@000000ff000000ff000000ff000000ff 00000001801e1450     GuSweepSharedTests.obj
 0002:00003460       __xmm@ffffffffffffffffffffffffffffffff 00000001801e1460     GuSweepSharedTests.obj
 0002:00003490       ??_7?$LocalConvex@VBoxV@Gu@physx@@@Gu@physx@@6B@ 00000001801e1490     GuSweepTests.obj
 0002:000034c0       ??_7?$LocalConvex@VTriangleV@Gu@physx@@@Gu@physx@@6B@ 00000001801e14c0     GuSweepTests.obj
 0002:000034f0       __real@00000000            00000001801e14f0     GuSweepTests.obj
 0002:00003500       __xmm@00000002000000020000000200000002 00000001801e1500     GuSweepTests.obj
 0002:00003510       __xmm@3eaaaa9f3eaaaa9f3eaaaa9f3eaaaa9f 00000001801e1510     GuSweepTests.obj
 0002:000035c8       ??_7PxRunnable@physx@@6B@  00000001801e15c8     GuSDF.obj
 0002:000035e0       ??_C@_0EF@FADMNNNB@C?3?2Code?2PhysX?9106?41?9physx?95?44?42@ 00000001801e15e0     GuSDF.obj
 0002:00003628       ??_7PointOntoTriangleMeshProjector@Gu@physx@@6B@ 00000001801e1628     GuSDF.obj
 0002:00003640       ??_7?$PxThreadT@V?$PxReflectionAllocator@VPxThreadImpl@physx@@@physx@@@physx@@6B@ 00000001801e1640     GuSDF.obj
 0002:00003650       ??_C@_06FJHNOCKE@thread@   00000001801e1650     GuSDF.obj
 0002:00003660       ??_C@_0BAK@OPLLKLNG@SDF?5creation?3?5Mesh?5is?5not?5suita@ 00000001801e1660     GuSDF.obj
 0002:00003770       ??_C@_0FB@OMEANACP@SDF?5creation?3?5Input?5mesh?5is?5not@ 00000001801e1770     GuSDF.obj
 0002:000037d0       ??_C@_0EE@MLHEEBDI@C?3?2Code?2PhysX?9106?41?9physx?95?44?42@ 00000001801e17d0     GuSDF.obj
 0002:00003820       ??_C@_0EC@BDDLEPMH@C?3?2Code?2PhysX?9106?41?9physx?95?44?42@ 00000001801e1820     GuSDF.obj
 0002:00003870       ??_C@_0EL@BCPPPDEB@C?3?2Code?2PhysX?9106?41?9physx?95?44?42@ 00000001801e1870     GuSDF.obj
 0002:000038bc       __real@37800080            00000001801e18bc     GuSDF.obj
 0002:000038c0       __real@3b808081            00000001801e18c0     GuSDF.obj
 0002:000038c4       __real@3e2aaaab            00000001801e18c4     GuSDF.obj
 0002:000038c8       __real@3eaaaaab            00000001801e18c8     GuSDF.obj
 0002:000038cc       __real@3f7d70a4            00000001801e18cc     GuSDF.obj
 0002:000038d0       __real@7e7fffff            00000001801e18d0     GuSDF.obj
 0002:000038d4       __real@bf000000            00000001801e18d4     GuSDF.obj
 0002:000038d8       __real@fe7fffff            00000001801e18d8     GuSDF.obj
 0002:000038e0       __xmm@00000001000000010000000100000000 00000001801e18e0     GuSDF.obj
 0002:000038f0       __real@437f0000            00000001801e18f0     GuCookingSDF.obj
 0002:000038f4       __real@477fff00            00000001801e18f4     GuCookingSDF.obj
 0002:00003920       ??_7?$RelativeConvex@UCustomConvexV@@@Gu@physx@@6B@ 00000001801e1920     GuGjkQuery.obj
 0002:00003950       ??_7?$LocalConvex@UCustomConvexV@@@Gu@physx@@6B@ 00000001801e1950     GuGjkQuery.obj
 0002:00003980       ??_7?$LocalConvex@UPointConvexV@@@Gu@physx@@6B@ 00000001801e1980     GuGjkQuery.obj
 0002:000039d0       __real@3da2f983            00000001801e19d0     GuWindingNumber.obj
 0002:000039d4       __real@3e22f983            00000001801e19d4     GuWindingNumber.obj
 0002:000039d8       __real@3f99999a            00000001801e19d8     GuWindingNumber.obj
 0002:00003a40       __real@3c343958            00000001801e1a40     GuCCDSweepConvexMesh.obj
 0002:00003a44       __real@3ca3d70a            00000001801e1a44     GuCCDSweepConvexMesh.obj
 0002:00003a48       __real@3f0ccccd            00000001801e1a48     GuCCDSweepConvexMesh.obj
 0002:00003a4c       __real@3f8ccccd            00000001801e1a4c     GuCCDSweepConvexMesh.obj
 0002:00003a50       __real@b58637bd            00000001801e1a50     GuCCDSweepConvexMesh.obj
 0002:00003a80       ??_7?$RelativeConvex@VCapsuleV@Gu@physx@@@Gu@physx@@6B@ 00000001801e1a80     GuCCDSweepPrimitives.obj
 0002:00003ab0       ??_7?$RelativeConvex@VTriangleV@Gu@physx@@@Gu@physx@@6B@ 00000001801e1ab0     GuCCDSweepPrimitives.obj
 0002:00003ae0       __real@3ba3d70a            00000001801e1ae0     GuCCDSweepPrimitives.obj
 0002:00003ae4       __real@501502f9            00000001801e1ae4     GuCCDSweepPrimitives.obj
 0002:00003b10       ??_C@_0FE@JCEBMALK@C?3?2Code?2PhysX?9106?41?9physx?95?44?42@ 00000001801e1b10     GuAdjacencies.obj
 0002:00003b68       ??_C@_0DA@FMEHLBKI@Adjacencies?3?3UpdateLink?3?5invali@ 00000001801e1b68     GuAdjacencies.obj
 0002:00003ba0       ??_C@_0EA@CPHOACLK@Adjacencies?3?3CreateDatabase?3?5ca@ 00000001801e1ba0     GuAdjacencies.obj
 0002:00003be0       ??_C@_0FB@EBBILHIB@C?3?2Code?2PhysX?9106?41?9physx?95?44?42@ 00000001801e1be0     GuEdgeList.obj
 0002:00003c38       ??_C@_0CO@GBNJFPN@EdgeList?3?3CreateFacesToEdges?3?5N@ 00000001801e1c38     GuEdgeList.obj
 0002:00003c68       ??_C@_0CO@EHJBBMNK@EdgeList?3?3ComputeActiveEdges?3?5N@ 00000001801e1c68     GuEdgeList.obj
 0002:00003c98       ??_C@_0DI@GBHLFOFP@ActiveEdges?3?3ComputeConvexEdges@ 00000001801e1c98     GuEdgeList.obj
 0002:00003cd0       ??_C@_0DM@JOGBLHDI@ActiveEdges?3?3ComputeConvexEdges@ 00000001801e1cd0     GuEdgeList.obj
 0002:00003d10       ??_C@_0ED@FEMJKPEL@ActiveEdges?3?3ComputeConvexEdges@ 00000001801e1d10     GuEdgeList.obj
 0002:00003d60       ??_C@_0EB@BFDPMFCD@ActiveEdges?3?3ComputeConvexEdges@ 00000001801e1d60     GuEdgeList.obj
 0002:00003da4       __real@bf7fbe77            00000001801e1da4     GuEdgeList.obj
 0002:00003da8       ??_7Quantizer@Gu@physx@@6B@ 00000001801e1da8     GuQuantizer.obj
 0002:00003dd0       ??_7QuantizerImpl@@6B@     00000001801e1dd0     GuQuantizer.obj
 0002:00003e00       ??_C@_0FC@FDBDNOOD@C?3?2Code?2PhysX?9106?41?9physx?95?44?42@ 00000001801e1e00     GuQuantizer.obj
 0002:00003e54       __real@3f8020c5            00000001801e1e54     GuQuantizer.obj
 0002:00003e60       ??_C@_0FE@LHBKONOO@C?3?2Code?2PhysX?9106?41?9physx?95?44?42@ 00000001801e1e60     GuMeshCleaner.obj
 0002:00003eb4       __real@40800000            00000001801e1eb4     GuMeshCleaner.obj
 0002:00003ec0       ??_C@_0FG@MIIJKHBH@C?3?2Code?2PhysX?9106?41?9physx?95?44?42@ 00000001801e1ec0     GuVertexReducer.obj
 0002:00004010       __real@3f7fbe77            00000001801e2010     GuContactBoxBox.obj
 0002:00004060       __real@3f7ff2e5            00000001801e2060     GuContactCapsuleCapsule.obj
 0002:000040f0       __real@358637be            00000001801e20f0     GuContactCapsuleMesh.obj
 0002:000040f4       __real@ba83126f            00000001801e20f4     GuContactCapsuleMesh.obj
 0002:00004150       ??_7ConvexMeshContactGenerationCallback@@6B@ 00000001801e2150     GuContactConvexMesh.obj
 0002:000041d0       __real@333bbd2e            00000001801e21d0     GuContactPolygonPolygon.obj
 0002:000041d4       __real@3ec3ef15            00000001801e21d4     GuContactPolygonPolygon.obj
 0002:000041d8       __real@3ec3ef16            00000001801e21d8     GuContactPolygonPolygon.obj
 0002:000041dc       __real@3ec3ef17            00000001801e21dc     GuContactPolygonPolygon.obj
 0002:000041e0       __real@3ec3ef18            00000001801e21e0     GuContactPolygonPolygon.obj
 0002:000041e4       __real@3f6c835e            00000001801e21e4     GuContactPolygonPolygon.obj
 0002:000041f0       __xmm@000000003ec3ef17bf6c835e00000000 00000001801e21f0     GuContactPolygonPolygon.obj
 0002:00004200       __xmm@000000003f6c835e3ec3ef1500000000 00000001801e2200     GuContactPolygonPolygon.obj
 0002:00004210       __xmm@3f3504f33f3504f3000000003ec3ef16 00000001801e2210     GuContactPolygonPolygon.obj
 0002:00004220       __xmm@3f3504f3bf3504f3000000003f6c835e 00000001801e2220     GuContactPolygonPolygon.obj
 0002:00004230       __xmm@3f6c835e00000000000000003f800000 00000001801e2230     GuContactPolygonPolygon.obj
 0002:00004240       __xmm@bec3ef18000000003f800000b33bbd2e 00000001801e2240     GuContactPolygonPolygon.obj
 0002:000042b0       ??_C@_0FG@JKAKMDDD@C?3?2Code?2PhysX?9106?41?9physx?95?44?42@ 00000001801e22b0     GuBigConvexData.obj
 0002:00004330       ??_C@_0N@CDGINLLF@PxConvexMesh@ 00000001801e2330     GuConvexMesh.obj
 0002:00004340       ??_7PxBase@physx@@6B@      00000001801e2340     GuConvexMesh.obj
 0002:00004368       ??_C@_0CE@IDAGNPDH@isKindOf?5called?5with?5invalid?5st@ 00000001801e2368     GuConvexMesh.obj
 0002:00004390       ??_C@_0N@OPPDBGAG@PxRefCounted@ 00000001801e2390     GuConvexMesh.obj
 0002:000043a0       ??_C@_0EG@BCJPDENK@C?3?2Code?2PhysX?9106?41?9physx?95?44?42@ 00000001801e23a0     GuConvexMesh.obj
 0002:000043e8       ??_7ConvexMesh@Gu@physx@@6B@ 00000001801e23e8     GuConvexMesh.obj
 0002:00004480       ??_C@_0FD@OGGMCBGA@C?3?2Code?2PhysX?9106?41?9physx?95?44?42@ 00000001801e2480     GuConvexMesh.obj
 0002:000044d8       ??_C@_0DM@NEJKOFIP@Loading?5convex?5mesh?5failed?3?5Dep@ 00000001801e24d8     GuConvexMesh.obj
 0002:00004518       ??_C@_0DB@PAHEPIEL@PxConvexMesh?3?3release?3?5double?5d@ 00000001801e2518     GuConvexMesh.obj
 0002:00004550       ??_C@_0EL@EFMEDMK@C?3?2Code?2PhysX?9106?41?9physx?95?44?42@ 00000001801e2550     GuConvexMesh.obj
 0002:000045c0       __xmm@000000000000000000000000ffffffff 00000001801e25c0     GuConvexSupportTable.obj
 0002:000045d0       __xmm@0000000000000000ffffffff00000000 00000001801e25d0     GuConvexSupportTable.obj
 0002:000045e0       __xmm@0000000000000000ffffffffffffffff 00000001801e25e0     GuConvexSupportTable.obj
 0002:000045f0       __xmm@00000000ffffffff0000000000000000 00000001801e25f0     GuConvexSupportTable.obj
 0002:00004600       __xmm@00000000ffffffff00000000ffffffff 00000001801e2600     GuConvexSupportTable.obj
 0002:00004610       __xmm@00000000ffffffffffffffff00000000 00000001801e2610     GuConvexSupportTable.obj
 0002:000046a0       __xmm@2b8cbccc2b8cbccc2b8cbccc2b8cbccc 00000001801e26a0     GuDistancePointTriangle.obj
 0002:000046f0       __xmm@3f0000003f0000003f0000003f000000 00000001801e26f0     GuDistanceSegmentSegment.obj
 0002:00004720       __real@2b8cbccc            00000001801e2720     GuDistanceSegmentTriangle.obj
 0002:00004730       __xmm@3f8000013f8000013f8000013f800001 00000001801e2730     GuDistanceSegmentTriangle.obj
 0002:00004740       __xmm@b4000000b4000000b4000000b4000000 00000001801e2740     GuDistanceSegmentTriangle.obj
 0002:00004770       __real@26901d7d            00000001801e2770     GuDistanceTriangleTriangle.obj
 0002:000047f0       __xmm@38d1b71738d1b71738d1b71738d1b717 00000001801e27f0     GuGJKSimplex.obj
 0002:00004820       ??_C@_0O@PBAKPCEC@PxHeightField@ 00000001801e2820     GuHeightField.obj
 0002:00004830       ??_C@_0EH@IMAGOKPF@C?3?2Code?2PhysX?9106?41?9physx?95?44?42@ 00000001801e2830     GuHeightField.obj
 0002:00004878       ??_7HeightField@Gu@physx@@6B@ 00000001801e2878     GuHeightField.obj
 0002:00004930       ??_C@_0DC@BDMMBOKH@PxHeightField?3?3release?3?5double?5@ 00000001801e2930     GuHeightField.obj
 0002:00004970       ??_C@_0FA@IPHBDBLI@C?3?2Code?2PhysX?9106?41?9physx?95?44?42@ 00000001801e2970     GuHeightField.obj
 0002:000049c0       ??_C@_0CI@DMKEKGNK@Gu?3?3HeightField?3?3load?3?5PX_ALLOC@ 00000001801e29c0     GuHeightField.obj
 0002:00004a10       __real@3a03126f            00000001801e2a10     GuHeightFieldUtil.obj
 0002:00004a14       __real@3f19999a            00000001801e2a14     GuHeightFieldUtil.obj
 0002:00004aa0       ??_7HeightFieldTraceSegmentReport@@6B@ 00000001801e2aa0     GuSweepsHF.obj
 0002:00004ab0       ??_7CapsuleTraceSegmentReport@@6B@ 00000001801e2ab0     GuSweepsHF.obj
 0002:00004ac0       ??_7ConvexTraceSegmentReport@@6B@ 00000001801e2ac0     GuSweepsHF.obj
 0002:00004ad0       ??_7BoxTraceSegmentReport@@6B@ 00000001801e2ad0     GuSweepsHF.obj
 0002:00004ae0       __real@aedbe6ff            00000001801e2ae0     GuSweepsHF.obj
 0002:00004b10       __real@3089705f            00000001801e2b10     GuIntersectionRayBox.obj
 0002:00004b14       __real@b4000000            00000001801e2b14     GuIntersectionRayBox.obj
 0002:00004b20       __xmm@000000003089705f3089705f3089705f 00000001801e2b20     GuIntersectionRayBox.obj
 0002:00004b30       __xmm@00000000bf800000bf800000bf800000 00000001801e2b30     GuIntersectionRayBox.obj
 0002:00004b80       ??_7SourceMeshBase@Gu@physx@@6B@ 00000001801e2b80     GuBV4.obj
 0002:00004ba8       ??_7SourceMesh@Gu@physx@@6B@ 00000001801e2ba8     GuBV4.obj
 0002:00004bd0       ??_7TetrahedronSourceMesh@Gu@physx@@6B@ 00000001801e2bd0     GuBV4.obj
 0002:00004c00       ??_C@_0EK@LGOPJJFI@C?3?2Code?2PhysX?9106?41?9physx?95?44?42@ 00000001801e2c00     GuBV4.obj
 0002:00004c50       __xmm@ff7fffffff7fffffff7fffffff7fffff 00000001801e2c50     GuBV4.obj
 0002:00004c80       ??_C@_0EP@LAEICCFK@C?3?2Code?2PhysX?9106?41?9physx?95?44?42@ 00000001801e2c80     GuBV4Build.obj
 0002:00004cd0       __real@38000100            00000001801e2cd0     GuBV4Build.obj
 0002:00004cd4       __real@3e93cd3a            00000001801e2cd4     GuBV4Build.obj
 0002:00004cd8       __real@46fffe00            00000001801e2cd8     GuBV4Build.obj
 0002:00004cdc       __real@be93cd3a            00000001801e2cdc     GuBV4Build.obj
 0002:00004d00       __xmm@0000ffff0000ffff0000ffff0000ffff 00000001801e2d00     GuBV4_AABBSweep.obj
 0002:00004d10       __xmm@3089705f3089705f3089705f3089705f 00000001801e2d10     GuBV4_AABBSweep.obj
 0002:00004d20       __xmm@33d6bf9533d6bf9533d6bf9533d6bf95 00000001801e2d20     GuBV4_AABBSweep.obj
 0002:00004d30       __xmm@40000000400000004000000040000000 00000001801e2d30     GuBV4_AABBSweep.obj
 0002:00004dc0       __xmm@322bcc77322bcc77322bcc77322bcc77 00000001801e2dc0     GuBV4_MeshMeshOverlap.obj
 0002:00004e30       __real@4f7fffff            00000001801e2e30     GuBV4_SphereOverlap.obj
 0002:00004e80       __xmm@000000007f7fffff0000000000000000 00000001801e2e80     GuMidphaseBV4.obj
 0002:00004ef0       ??_C@_0FD@EHCCILIF@Adjacency?5information?5not?5creat@ 00000001801e2ef0     GuMeshQuery.obj
 0002:00004f50       ??_C@_0FA@IMJJMJND@C?3?2Code?2PhysX?9106?41?9physx?95?44?42@ 00000001801e2f50     GuMeshQuery.obj
 0002:00004fa0       ??_C@_0FL@BKNMAHIA@PxMeshQuery?3?3findOverlapTriangl@ 00000001801e2fa0     GuMeshQuery.obj
 0002:00004ffc       __real@4cbebc20            00000001801e2ffc     GuMeshQuery.obj
 0002:00005020       ??_7Callback@RTree@Gu@physx@@6B@ 00000001801e3020     GuMidphaseRTree.obj
 0002:00005038       ??_7?$RayRTreeCallback@$00$0A@@@6BCallbackRaycast@RTree@Gu@physx@@@ 00000001801e3038     GuMidphaseRTree.obj
 0002:00005038       ??_7?$RayRTreeCallback@$0A@$0A@@@6BCallbackRaycast@RTree@Gu@physx@@@ 00000001801e3038     GuMidphaseRTree.obj
 0002:00005048       ??_7?$RayRTreeCallback@$00$0A@@@6BCallback@RTree@Gu@physx@@@ 00000001801e3048     GuMidphaseRTree.obj
 0002:00005048       ??_7?$RayRTreeCallback@$0A@$0A@@@6BCallback@RTree@Gu@physx@@@ 00000001801e3048     GuMidphaseRTree.obj
 0002:00005060       ??_7RayMeshColliderCallback@@6B@ 00000001801e3060     GuMidphaseRTree.obj
 0002:00005070       ??_C@_0EN@DPPFLBLF@Point?9mesh?5distance?5query?5not?5s@ 00000001801e3070     GuMidphaseRTree.obj
 0002:000050c0       ??_C@_0FE@NGJJCOMI@C?3?2Code?2PhysX?9106?41?9physx?95?44?42@ 00000001801e30c0     GuMidphaseRTree.obj
 0002:00005118       ??_7?$RayRTreeCallback@$0A@$00@@6BCallbackRaycast@RTree@Gu@physx@@@ 00000001801e3118     GuMidphaseRTree.obj
 0002:00005128       ??_7?$RayRTreeCallback@$0A@$00@@6BCallback@RTree@Gu@physx@@@ 00000001801e3128     GuMidphaseRTree.obj
 0002:00005140       ??_7?$RayRTreeCallback@$00$00@@6BCallbackRaycast@RTree@Gu@physx@@@ 00000001801e3140     GuMidphaseRTree.obj
 0002:00005150       ??_7?$RayRTreeCallback@$00$00@@6BCallback@RTree@Gu@physx@@@ 00000001801e3150     GuMidphaseRTree.obj
 0002:000051d0       __xmm@7f7fffff000000000000000000000000 00000001801e31d0     GuMidphaseRTree.obj
 0002:00005250       ??_7?$PxReportCallback@UPxGeomIndexPair@physx@@@physx@@6B@ 00000001801e3250     GuOverlapTestsMesh.obj
 0002:00005270       ??_C@_0EP@CEFGCJKJ@PxGeometryQuery?3?3overlap?$CI?$CJ?3?5onl@ 00000001801e3270     GuOverlapTestsMesh.obj
 0002:000052c0       ??_C@_0FH@CHDCAEAB@C?3?2Code?2PhysX?9106?41?9physx?95?44?42@ 00000001801e32c0     GuOverlapTestsMesh.obj
 0002:00005340       ?MN@RTreePage@Gu@physx@@2MB 00000001801e3340     GuRTree.obj
 0002:00005344       ?MX@RTreePage@Gu@physx@@2MB 00000001801e3344     GuRTree.obj
 0002:00005350       ??_C@_0EM@DDAPHCLE@C?3?2Code?2PhysX?9106?41?9physx?95?44?42@ 00000001801e3350     GuRTree.obj
 0002:00005410       ??_7SweepShapeMeshHitCallback@Gu@physx@@6B@ 00000001801e3410     GuSweepsMesh.obj
 0002:00005420       ??_7SweepCapsuleMeshHitCallback@Gu@physx@@6B@ 00000001801e3420     GuSweepsMesh.obj
 0002:00005430       ??_7SweepBoxMeshHitCallback@Gu@physx@@6B@ 00000001801e3430     GuSweepsMesh.obj
 0002:00005440       ??_7SweepConvexMeshHitCallback@Gu@physx@@6B@ 00000001801e3440     GuSweepsMesh.obj
 0002:00005470       ??_C@_0P@GGNFNHKF@PxTriangleMesh@ 00000001801e3470     GuTriangleMesh.obj
 0002:00005480       ??_C@_0EI@CKADJCNJ@C?3?2Code?2PhysX?9106?41?9physx?95?44?42@ 00000001801e3480     GuTriangleMesh.obj
 0002:000054c8       ??_7TriangleMesh@Gu@physx@@6B@ 00000001801e34c8     GuTriangleMesh.obj
 0002:000055a0       ??_C@_0DD@LOOPMCGG@PxTriangleMesh?3?3release?3?5double@ 00000001801e35a0     GuTriangleMesh.obj
 0002:000055e0       ??_C@_0FH@PMPAJDGI@PxTriangleMesh?3?3getVerticesForM@ 00000001801e35e0     GuTriangleMesh.obj
 0002:00005640       ??_C@_0FD@NIDMIOIB@C?3?2Code?2PhysX?9106?41?9physx?95?44?42@ 00000001801e3640     GuTriangleMesh.obj
 0002:000056a0       ??_C@_0EF@GMNFLDH@PxTriangleMesh?3?3refitBVH?$CI?$CJ?5is?5n@ 00000001801e36a0     GuTriangleMesh.obj
 0002:000056f0       __xmm@38383838383838383838383838383838 00000001801e36f0     GuTriangleMesh.obj
 0002:00005720       ??_C@_0BE@CNJKIINO@PxBVH34TriangleMesh@ 00000001801e3720     GuTriangleMeshBV4.obj
 0002:00005738       ??_7BV4TriangleMesh@Gu@physx@@6B@ 00000001801e3738     GuTriangleMeshBV4.obj
 0002:00005810       ??_C@_0EF@JLFNNPLP@BVH34?5trees?3?5refit?5operation?5on@ 00000001801e3810     GuTriangleMeshBV4.obj
 0002:00005860       ??_C@_0FG@FGDAPHLH@C?3?2Code?2PhysX?9106?41?9physx?95?44?42@ 00000001801e3860     GuTriangleMeshBV4.obj
 0002:000058b8       __real@3951b717            00000001801e38b8     GuTriangleMeshBV4.obj
 0002:000058e0       ??_C@_0BE@EIFHCCBO@PxBVH33TriangleMesh@ 00000001801e38e0     GuTriangleMeshRTree.obj
 0002:000058f8       ??_7RTreeTriangleMesh@Gu@physx@@6B@ 00000001801e38f8     GuTriangleMeshRTree.obj
 0002:000059d0       ??_7?$RefitCallback@G@physx@@6B@ 00000001801e39d0     GuTriangleMeshRTree.obj
 0002:000059e0       ??_7?$RefitCallback@I@physx@@6B@ 00000001801e39e0     GuTriangleMeshRTree.obj
 0002:00005a10       ??_C@_0EL@BJEFNHEO@C?3?2Code?2PhysX?9106?41?9physx?95?44?42@ 00000001801e3a10     GuBV32.obj
 0002:00005a80       ??_C@_0FA@NJFDBHOG@C?3?2Code?2PhysX?9106?41?9physx?95?44?42@ 00000001801e3a80     GuBV32Build.obj
 0002:00005af0       ??_C@_0BC@FDAIDHBP@PxTetrahedronMesh@ 00000001801e3af0     GuTetrahedronMesh.obj
 0002:00005b10       ??_C@_0EL@JNHDDHJN@C?3?2Code?2PhysX?9106?41?9physx?95?44?42@ 00000001801e3b10     GuTetrahedronMesh.obj
 0002:00005b60       ??_C@_0BC@FBICGJIB@PxSoftBodyAuxData@ 00000001801e3b60     GuTetrahedronMesh.obj
 0002:00005b78       ??_C@_0P@CLLFGFAA@PxSoftBodyMesh@ 00000001801e3b78     GuTetrahedronMesh.obj
 0002:00005b88       ??_7SoftBodyAuxData@Gu@physx@@6B@ 00000001801e3b88     GuTetrahedronMesh.obj
 0002:00005bd0       ??_7TetrahedronMesh@Gu@physx@@6B@ 00000001801e3bd0     GuTetrahedronMesh.obj
 0002:00005c48       ??_7BVTetrahedronMesh@Gu@physx@@6B@ 00000001801e3c48     GuTetrahedronMesh.obj
 0002:00005cc0       ??_7SoftBodyMesh@Gu@physx@@6B@ 00000001801e3cc0     GuTetrahedronMesh.obj
 0002:00005d40       ??_C@_0DG@JJNMDPMD@PxTetrahedronMesh?3?3release?3?5dou@ 00000001801e3d40     GuTetrahedronMesh.obj
 0002:00005d78       ??_C@_0DD@GGFGEPII@PxSoftBodyMesh?3?3release?3?5double@ 00000001801e3d78     GuTetrahedronMesh.obj
 0002:00005db0       ??_C@_0FG@LEHDBNCD@C?3?2Code?2PhysX?9106?41?9physx?95?44?42@ 00000001801e3db0     GuTetrahedronMesh.obj
 0002:00005e50       __xmm@00000000358637bd358637bd358637bd 00000001801e3e50     GuPCMContactBoxBox.obj
 0002:00005e60       __xmm@3f4ccccd3f4ccccd3f4ccccd3f4ccccd 00000001801e3e60     GuPCMContactBoxBox.obj
 0002:00005e70       __xmm@3f8003473f8003473f8003473f800347 00000001801e3e70     GuPCMContactBoxBox.obj
 0002:00005e80       __xmm@ffffffff00000000ffffffffffffffff 00000001801e3e80     GuPCMContactBoxBox.obj
 0002:00005eb0       ??_7?$LocalConvex@VConvexHullNoScaleV@Gu@physx@@@Gu@physx@@6B@ 00000001801e3eb0     GuPCMContactBoxConvex.obj
 0002:00005ee0       __xmm@3f3504f33f3504f33f3504f33f3504f3 00000001801e3ee0     GuPCMContactBoxConvex.obj
 0002:00005f30       __xmm@ffffffffffffffffffffffff00000000 00000001801e3f30     GuPCMContactCapsuleCapsule.obj
 0002:00005f60       __xmm@3fa000003fa000003fa000003fa00000 00000001801e3f60     GuPCMContactCapsuleConvex.obj
 0002:00005f90       ??_7PCMCapsuleVsHeightfieldContactGenerationCallback@@6B@ 00000001801e3f90     GuPCMContactCapsuleHeightField.obj
 0002:00005fa0       __real@3f7f3b64            00000001801e3fa0     GuPCMContactCapsuleHeightField.obj
 0002:00005ff0       __xmm@3f7ff9723f7ff9723f7ff9723f7ff972 00000001801e3ff0     GuPCMContactCapsuleMesh.obj
 0002:00006000       __xmm@3f7fffef3f7fffef3f7fffef3f7fffef 00000001801e4000     GuPCMContactCapsuleMesh.obj
 0002:00006010       __xmm@60ad78ec60ad78ec60ad78ec60ad78ec 00000001801e4010     GuPCMContactCapsuleMesh.obj
 0002:00006040       ??_7?$SupportLocalImpl@VTriangleV@Gu@physx@@@Gu@physx@@6B@ 00000001801e4040     GuPCMContactConvexCommon.obj
 0002:00006060       __xmm@3cf5c2803cf5c2803cf5c2803cf5c280 00000001801e4060     GuPCMContactConvexCommon.obj
 0002:00006070       __xmm@3f7851ec3f7851ec3f7851ec3f7851ec 00000001801e4070     GuPCMContactConvexCommon.obj
 0002:000060a0       ??_7?$RelativeConvex@VConvexHullNoScaleV@Gu@physx@@@Gu@physx@@6B@ 00000001801e40a0     GuPCMContactConvexConvex.obj
 0002:00006100       __xmm@3f19999a3f19999a3f19999a3f19999a 00000001801e4100     GuPCMContactConvexHeightField.obj
 0002:00006170       __xmm@3f34fdf43f34fdf43f34fdf43f34fdf4 00000001801e4170     GuPCMContactGenBoxConvex.obj
 0002:000061a0       __xmm@3f80a3d73f80a3d73f80a3d73f80a3d7 00000001801e41a0     GuPCMContactGenSphereCapsule.obj
 0002:000061b0       __xmm@bba3d70abba3d70abba3d70abba3d70a 00000001801e41b0     GuPCMContactGenSphereCapsule.obj
 0002:000061e0       __xmm@3f7ffd613f7ffd613f7ffd613f7ffd61 00000001801e41e0     GuPCMContactPlaneBox.obj
 0002:00006210       __real@3b23d70b            00000001801e4210     GuPCMContactPlaneCapsule.obj
 0002:00006220       __xmm@3ca3d70a3ca3d70a3ca3d70a3ca3d70a 00000001801e4220     GuPCMContactPlaneCapsule.obj
 0002:00006250       __xmm@3a03126f3a03126f3a03126f3a03126f 00000001801e4250     GuPCMContactPlaneConvex.obj
 0002:00006370       __xmm@3727c5ac3727c5ac3727c5ac3727c5ac 00000001801e4370     GuPCMContactSphereSphere.obj
 0002:000063a0       __xmm@3f7f06f73f7f06f73f7f06f73f7f06f7 00000001801e43a0     GuPCMContactCustomGeometry.obj
 0002:000063b0       ?gPCMBoxPolygonData@Gu@physx@@3QBEB 00000001801e43b0     GuPCMShapeConvex.obj
 0002:00006430       ?invalidateThresholds@Gu@physx@@3QBMB 00000001801e4430     GuPersistentContactManifold.obj
 0002:00006448       ?invalidateQuatThresholds@Gu@physx@@3QBMB 00000001801e4448     GuPersistentContactManifold.obj
 0002:00006460       ?invalidateThresholds2@Gu@physx@@3QBMB 00000001801e4460     GuPersistentContactManifold.obj
 0002:00006470       ?invalidateQuatThresholds2@Gu@physx@@3QBMB 00000001801e4470     GuPersistentContactManifold.obj
 0002:00006480       __xmm@00000000340000003400000034000000 00000001801e4480     GuPersistentContactManifold.obj
 0002:00006490       __xmm@ffffffffffffffff00000000ffffffff 00000001801e4490     GuPersistentContactManifold.obj
 0002:000064c0       __xmm@c1200000c1200000c1200000c1200000 00000001801e44c0     GuPCMContactGenUtil.obj
 0002:00006510       __real@b727c5ac            00000001801e4510     GuSweepBoxSphere.obj
 0002:00006580       ??_C@_0FH@OFBIGBFD@C?3?2Code?2PhysX?9106?41?9physx?95?44?42@ 00000001801e4580     GuSweepCapsuleBox.obj
 0002:00006620       __real@3f7fff58            00000001801e4620     GuSweepCapsuleTriangle.obj
 0002:00006690       ??_C@_0CH@DHJGKCPD@Gu?3?3computeBounds?3?5Unknown?5shap@ 00000001801e4690     GuBounds.obj
 0002:000066c0       ??_C@_0EI@OHBLDBJF@C?3?2Code?2PhysX?9106?41?9physx?95?44?42@ 00000001801e46c0     GuBounds.obj
 0002:00006708       __real@34800000            00000001801e4708     GuBounds.obj
 0002:0000670c       __real@3f7fffef            00000001801e470c     GuBounds.obj
 0002:00006710       __xmm@3f8147ae3f8147ae3f8147ae3f8147ae 00000001801e4710     GuBounds.obj
 0002:00006740       ??_C@_0EK@IJJNNKDI@C?3?2Code?2PhysX?9106?41?9physx?95?44?42@ 00000001801e4740     GuAABBTree.obj
 0002:00006790       __xmm@5a60b17f5a60b17f5a60b17f5a60b17f 00000001801e4790     GuAABBTree.obj
 0002:000067a0       __xmm@da60b17fda60b17fda60b17fda60b17f 00000001801e47a0     GuAABBTree.obj
 0002:00006810       ??_C@_0FF@ODPEKIGC@C?3?2Code?2PhysX?9106?41?9physx?95?44?42@ 00000001801e4810     GuIncrementalAABBTree.obj
 0002:00006870       ??_C@_0EC@CPAOHJBJ@C?3?2Code?2PhysX?9106?41?9physx?95?44?42@ 00000001801e4870     GuIncrementalAABBTree.obj
 0002:000068b4       __real@40400000            00000001801e48b4     GuIncrementalAABBTree.obj
 0002:000068c0       ??_C@_0EF@DIAOJDAG@C?3?2Code?2PhysX?9106?41?9physx?95?44?42@ 00000001801e48c0     GuSAH.obj
 0002:00006930       ??_7PxBVH@physx@@6B@       00000001801e4930     GuBVH.obj
 0002:000069a8       ??_C@_05OKJNPKBM@PxBVH@    00000001801e49a8     GuBVH.obj
 0002:000069b0       ??_C@_0DP@NHDOGLCB@C?3?2Code?2PhysX?9106?41?9physx?95?44?42@ 00000001801e49b0     GuBVH.obj
 0002:000069f0       ??_7RefCountable@Cm@physx@@6B@ 00000001801e49f0     GuBVH.obj
 0002:00006a00       ??_7BVH@Gu@physx@@6BPxBVH@2@@ 00000001801e4a00     GuBVH.obj
 0002:00006a78       ??_7BVH@Gu@physx@@6BRefCountable@Cm@2@@ 00000001801e4a78     GuBVH.obj
 0002:00006a90       ??_C@_0EF@CKGGAAPD@C?3?2Code?2PhysX?9106?41?9physx?95?44?42@ 00000001801e4a90     GuBVH.obj
 0002:00006ad8       ??_C@_0CK@HAIOEINI@PxBVH?3?3release?3?5double?5deletion@ 00000001801e4ad8     GuBVH.obj
 0002:00006b30       ??_C@_0FL@GIGCNOJA@C?3?2Code?2PhysX?9106?41?9physx?95?44?42@ 00000001801e4b30     GuIncrementalAABBPrunerCore.obj
 0002:00006b8c       __real@3f80a3d7            00000001801e4b8c     GuIncrementalAABBPrunerCore.obj
 0002:00006bb0       ??_7BasePruner@Gu@physx@@6B@ 00000001801e4bb0     GuIncrementalAABBPruner.obj
 0002:00006bc8       ??_7IncrementalAABBPruner@Gu@physx@@6B@ 00000001801e4bc8     GuIncrementalAABBPruner.obj
 0002:00006c50       ??_C@_0FH@POHCIEGO@C?3?2Code?2PhysX?9106?41?9physx?95?44?42@ 00000001801e4c50     GuIncrementalAABBPruner.obj
 0002:00006cd0       ??_C@_0EN@GAJPGIFA@C?3?2Code?2PhysX?9106?41?9physx?95?44?42@ 00000001801e4cd0     GuPruningPool.obj
 0002:00006d60       ??_7BucketPruner@Gu@physx@@6B@ 00000001801e4d60     GuBucketPruner.obj
 0002:00006df0       ??_C@_0EO@FHKIHDMG@C?3?2Code?2PhysX?9106?41?9physx?95?44?42@ 00000001801e4df0     GuBucketPruner.obj
 0002:00006e40       __real@bf13cd3a            00000001801e4e40     GuBucketPruner.obj
 0002:00006e50       __xmm@000000007e7fffff7e7fffff7e7fffff 00000001801e4e50     GuBucketPruner.obj
 0002:00006e60       __xmm@00000000fe7ffffffe7ffffffe7fffff 00000001801e4e60     GuBucketPruner.obj
 0002:00006e70       __xmm@3f13cd3a3f13cd3a3f13cd3a3f13cd3a 00000001801e4e70     GuBucketPruner.obj
 0002:00006e80       __xmm@bf13cd3abf13cd3abf13cd3a3f13cd3a 00000001801e4e80     GuBucketPruner.obj
 0002:00006e90       __xmm@bf8000003f8000003f800000bf800000 00000001801e4e90     GuBucketPruner.obj
 0002:00006ea0       __xmm@bf8000003f800000bf8000003f800000 00000001801e4ea0     GuBucketPruner.obj
 0002:00006eb0       __xmm@bf800000bf8000003f8000003f800000 00000001801e4eb0     GuBucketPruner.obj
 0002:00006ec0       __xmm@bf800000bf800000bf8000003f800000 00000001801e4ec0     GuBucketPruner.obj
 0002:00006ed0       ?mIndices@MaverickNode@Gu@physx@@2QBIB 00000001801e4ed0     GuMaverickNode.obj
 0002:00006f30       ??_C@_0FG@OADJNOMO@C?3?2Code?2PhysX?9106?41?9physx?95?44?42@ 00000001801e4f30     GuExtendedBucketPruner.obj
 0002:00006fb0       ??_7CompanionPruner@Gu@physx@@6B@ 00000001801e4fb0     GuSecondaryPruner.obj
 0002:00007030       ??_7CompanionPrunerBucket@@6B@ 00000001801e5030     GuSecondaryPruner.obj
 0002:000070b0       ??_7CompanionPrunerIncremental@@6B@ 00000001801e50b0     GuSecondaryPruner.obj
 0002:00007130       ??_7CompanionPrunerAABBTree@@6B@ 00000001801e5130     GuSecondaryPruner.obj
 0002:000071b0       ??_C@_0FB@IIEIMCCC@C?3?2Code?2PhysX?9106?41?9physx?95?44?42@ 00000001801e51b0     GuSecondaryPruner.obj
 0002:00007230       ??_7AABBPruner@Gu@physx@@6B@ 00000001801e5230     GuAABBPruner.obj
 0002:000072d0       ??_C@_0LA@IHBEIKND@SceneQuery?5static?5AABB?5Tree?5reb@ 00000001801e52d0     GuAABBPruner.obj
 0002:00007380       ??_C@_0EM@CNELMJ@C?3?2Code?2PhysX?9106?41?9physx?95?44?42@ 00000001801e5380     GuAABBPruner.obj
 0002:000073d0       ??_C@_0EP@LCPPHIIJ@C?3?2Code?2PhysX?9106?41?9physx?95?44?42@ 00000001801e53d0     GuActorShapeMap.obj
 0002:00007440       ??_C@_0BF@DNABLJAF@Invalid?5pruner?5index@ 00000001801e5440     GuQuerySystem.obj
 0002:00007460       ??_C@_0EN@DOPJJANK@C?3?2Code?2PhysX?9106?41?9physx?95?44?42@ 00000001801e5460     GuQuerySystem.obj
 0002:000074e0       ??_C@_0EE@IPFAAIPE@C?3?2Code?2PhysX?9106?41?9physx?95?44?42@ 00000001801e54e0     GuQuerySystem.obj
 0002:00007550       ??_C@_0EJ@OFMKGHBB@C?3?2Code?2PhysX?9106?41?9physx?95?44?42@ 00000001801e5550     GuFactory.obj
 0002:000075a0       ?reductionFactors@SubSortQuick@physx@@2QBMB 00000001801e55a0     GuRTreeCooking.obj
 0002:000075b0       ?stopAtTrisPerLeaf1@SubSortQuick@physx@@2QBIB 00000001801e55b0     GuRTreeCooking.obj
 0002:00007680       ??_C@_0FG@GONJEDL@C?3?2Code?2PhysX?9106?41?9physx?95?44?42@ 00000001801e5680     GuRTreeCooking.obj
 0002:000076d8       __real@41100000            00000001801e56d8     GuRTreeCooking.obj
 0002:000076dc       __real@41700000            00000001801e56dc     GuRTreeCooking.obj
 0002:000076e0       __real@42200000            00000001801e56e0     GuRTreeCooking.obj
 0002:000076f0       __xmm@00000004000000030000000200000001 00000001801e56f0     GuRTreeCooking.obj
 0002:00007700       __xmm@37800080378000803780008037800080 00000001801e5700     GuRTreeCooking.obj
 0002:00007730       ??_C@_0FE@BAOIFHLI@C?3?2Code?2PhysX?9106?41?9physx?95?44?42@ 00000001801e5730     GuCookingBVH.obj
 0002:00007788       ??_C@_0DL@JHPKHGFA@Cooking?3?3cookBVH?3?5user?9provided@ 00000001801e5788     GuCookingBVH.obj
 0002:000077c8       ??_C@_0DN@PLNPGFEB@Cooking?3?3createBVH?3?5user?9provid@ 00000001801e57c8     GuCookingBVH.obj
 0002:00007810       ??_C@_0EL@JCJBAPHL@Cooking?3?3cookHeightField?3?5user?9@ 00000001801e5810     GuCookingHF.obj
 0002:00007860       ??_C@_0FD@KEOCNBFH@C?3?2Code?2PhysX?9106?41?9physx?95?44?42@ 00000001801e5860     GuCookingHF.obj
 0002:000078c0       ??_C@_0EN@FCEPCAFC@Cooking?3?3createHeightField?3?5use@ 00000001801e58c0     GuCookingHF.obj
 0002:00007910       ??_C@_0EK@EKAIJEBL@Cooking?3?3cookConvexMesh?3?5user?9p@ 00000001801e5910     GuCookingConvexMesh.obj
 0002:00007960       ??_C@_0FA@GFFGAPML@Cooking?3?3cookConvexMesh?3?5provid@ 00000001801e5960     GuCookingConvexMesh.obj
 0002:000079b0       ??_C@_0EP@PKDCPNNO@Cooking?3?3cookConvexMesh?3?5provid@ 00000001801e59b0     GuCookingConvexMesh.obj
 0002:00007a00       ??_C@_0EO@LKFMMDE@Cooking?3?3cookConvexMesh?3?5user?9p@ 00000001801e5a00     GuCookingConvexMesh.obj
 0002:00007a50       ??_C@_0EL@KJEPJALG@Cooking?3?3cookConvexMesh?3?5user?9p@ 00000001801e5a50     GuCookingConvexMesh.obj
 0002:00007aa0       ??_C@_0FM@LHMEBKMM@Cooking?3?3cookConvexMesh?3?5GPU?9co@ 00000001801e5aa0     GuCookingConvexMesh.obj
 0002:00007b00       ??_C@_0FJ@FHCFFABE@Cooking?3?3cookConvexMesh?3?5GPU?9co@ 00000001801e5b00     GuCookingConvexMesh.obj
 0002:00007b60       ??_C@_0LM@CHONPBFM@Cooking?3?3cookConvexMesh?3?5GPU?9co@ 00000001801e5b60     GuCookingConvexMesh.obj
 0002:00007c20       ??_C@_0FL@HGKHKGIN@C?3?2Code?2PhysX?9106?41?9physx?95?44?42@ 00000001801e5c20     GuCookingConvexMesh.obj
 0002:00007ca0       ??_7TriangleMeshBuilder@physx@@6B@ 00000001801e5ca0     GuCookingTriangleMesh.obj
 0002:00007cc8       ??_7RTreeTriangleMeshBuilder@physx@@6B@ 00000001801e5cc8     GuCookingTriangleMesh.obj
 0002:00007cf0       ??_7BV4TriangleMeshBuilder@physx@@6B@ 00000001801e5cf0     GuCookingTriangleMesh.obj
 0002:00007d20       ??_C@_0FN@MEGNOFFK@C?3?2Code?2PhysX?9106?41?9physx?95?44?42@ 00000001801e5d20     GuCookingTriangleMesh.obj
 0002:00007d80       ??_C@_0EM@DBPINPE@TriangleMeshBuilder?3?3cleanMesh?3@ 00000001801e5d80     GuCookingTriangleMesh.obj
 0002:00007dd0       ??_C@_0EF@MLNDPEDJ@TriangleMeshBuilder?3?3cleanMesh?3@ 00000001801e5dd0     GuCookingTriangleMesh.obj
 0002:00007e20       ??_C@_0FJ@HHJLKGDF@TriangleMesh?3?5triangles?5are?5too@ 00000001801e5e20     GuCookingTriangleMesh.obj
 0002:00007e80       ??_C@_0CN@KGPHHHLK@TriangleMesh?3?5mesh?5is?5too?5big?5f@ 00000001801e5e80     GuCookingTriangleMesh.obj
 0002:00007eb0       ??_C@_0DD@CMJGDCNN@TriangleMesh?3?3loadFromDesc?3?5des@ 00000001801e5eb0     GuCookingTriangleMesh.obj
 0002:00007ef0       ??_C@_0ED@ILJJNHIP@TriangleMesh?3?3loadFromDesc?3?5mPa@ 00000001801e5ef0     GuCookingTriangleMesh.obj
 0002:00007f40       ??_C@_0EP@FHJBNFFH@Requesting?5SDF?5for?5mesh?5without@ 00000001801e5f40     GuCookingTriangleMesh.obj
 0002:00007f90       ??_C@_0BK@JIDHMMCE@BV4?5tree?5failed?5to?5build?4@ 00000001801e5f90     GuCookingTriangleMesh.obj
 0002:00007fb0       ??_C@_0BL@DHNECNBE@BV32?5tree?5failed?5to?5build?4@ 00000001801e5fb0     GuCookingTriangleMesh.obj
 0002:00007fd0       ??_7RTreeCookerRemap@@6B@  00000001801e5fd0     GuCookingTriangleMesh.obj
 0002:00007fe0       ??_C@_0FC@PJIHAFK@Cooking?3?3validateTriangleMesh?3?5@ 00000001801e5fe0     GuCookingTriangleMesh.obj
 0002:000080c0       ??_7PxCollisionTetrahedronMeshData@physx@@6B@ 00000001801e60c0     GuCookingTetrahedronMesh.obj
 0002:000080f0       ??_7PxSimulationTetrahedronMeshData@physx@@6B@ 00000001801e60f0     GuCookingTetrahedronMesh.obj
 0002:00008110       ??_7CollisionTetrahedronMeshData@Gu@physx@@6B@ 00000001801e6110     GuCookingTetrahedronMesh.obj
 0002:00008140       ??_7SimulationTetrahedronMeshData@Gu@physx@@6B@ 00000001801e6140     GuCookingTetrahedronMesh.obj
 0002:00008160       ??_C@_0GA@KPMKBEOA@C?3?2Code?2PhysX?9106?41?9physx?95?44?42@ 00000001801e6160     GuCookingTetrahedronMesh.obj
 0002:000081c0       ??_7?$LocalConvex@VTetrahedronV@Gu@physx@@@Gu@physx@@6B@ 00000001801e61c0     GuCookingTetrahedronMesh.obj
 0002:000081f0       ??_C@_0CD@OJGNHLOE@BV4_AABBTree?5tree?5failed?5to?5bui@ 00000001801e61f0     GuCookingTetrahedronMesh.obj
 0002:00008218       ??_C@_0DG@NCNIEEHB@TetrahedronMesh?3?3loadFromDesc?3?5@ 00000001801e6218     GuCookingTetrahedronMesh.obj
 0002:00008250       ??_C@_0EG@CJIFGLMC@TetrahedronMesh?3?3loadFromDesc?3?5@ 00000001801e6250     GuCookingTetrahedronMesh.obj
 0002:00008298       __real@be2aaaab            00000001801e6298     GuCookingTetrahedronMesh.obj
 0002:000082a0       __xmm@00000003000000030000000300000003 00000001801e62a0     GuCookingTetrahedronMesh.obj
 0002:000082d0       __real@3bc79ca10c924223    00000001801e62d0     GuCookingVolumeIntegration.obj
 0002:000082d8       __real@3f91111111111111    00000001801e62d8     GuCookingVolumeIntegration.obj
 0002:000082e0       __real@3fa5555555555555    00000001801e62e0     GuCookingVolumeIntegration.obj
 0002:000082e8       __real@3fa999999999999a    00000001801e62e8     GuCookingVolumeIntegration.obj
 0002:000082f0       __real@3fb5555555555555    00000001801e62f0     GuCookingVolumeIntegration.obj
 0002:000082f8       __real@3fc5555555555555    00000001801e62f8     GuCookingVolumeIntegration.obj
 0002:00008300       __real@3fe0000000000000    00000001801e6300     GuCookingVolumeIntegration.obj
 0002:00008308       __real@3ff0000000000000    00000001801e6308     GuCookingVolumeIntegration.obj
 0002:00008310       __real@4008000000000000    00000001801e6310     GuCookingVolumeIntegration.obj
 0002:00008318       __real@4010000000000000    00000001801e6318     GuCookingVolumeIntegration.obj
 0002:00008320       __real@bf91111111111111    00000001801e6320     GuCookingVolumeIntegration.obj
 0002:00008328       __real@bfa999999999999a    00000001801e6328     GuCookingVolumeIntegration.obj
 0002:00008330       __real@bfb5555555555555    00000001801e6330     GuCookingVolumeIntegration.obj
 0002:00008338       __real@bfc5555555555555    00000001801e6338     GuCookingVolumeIntegration.obj
 0002:00008340       __xmm@3c0888893c0888893c0888893c088889 00000001801e6340     GuCookingVolumeIntegration.obj
 0002:00008350       __xmm@3c8888893c8888893c8888893c888889 00000001801e6350     GuCookingVolumeIntegration.obj
 0002:00008360       __xmm@3d2aaaab3d2aaaab3d2aaaab3d2aaaab 00000001801e6360     GuCookingVolumeIntegration.obj
 0002:00008370       __xmm@3e2aaaab3e2aaaab3e2aaaab3e2aaaab 00000001801e6370     GuCookingVolumeIntegration.obj
 0002:00008380       __xmm@3f811111111111113f81111111111111 00000001801e6380     GuCookingVolumeIntegration.obj
 0002:00008390       __xmm@3f811111111111113f91111111111111 00000001801e6390     GuCookingVolumeIntegration.obj
 0002:000083a0       __xmm@3f911111111111113f91111111111111 00000001801e63a0     GuCookingVolumeIntegration.obj
 0002:000083b0       __xmm@3fa55555555555553fa5555555555555 00000001801e63b0     GuCookingVolumeIntegration.obj
 0002:000083c0       __xmm@3fa55555555555553fc5555555555555 00000001801e63c0     GuCookingVolumeIntegration.obj
 0002:000083d0       __xmm@3fd55555555555553fd5555555555555 00000001801e63d0     GuCookingVolumeIntegration.obj
 0002:000083e0       __xmm@3fe00000000000003fe0000000000000 00000001801e63e0     GuCookingVolumeIntegration.obj
 0002:000083f0       __xmm@7fffffffffffffff7fffffffffffffff 00000001801e63f0     GuCookingVolumeIntegration.obj
 0002:00008400       __xmm@80000000000000008000000000000000 00000001801e6400     GuCookingVolumeIntegration.obj
 0002:00008410       ??_7ConvexHullLib@physx@@6B@ 00000001801e6410     GuCookingQuickHullConvexHullLib.obj
 0002:00008430       ??_7QuickHullConvexHullLib@physx@@6B@ 00000001801e6430     GuCookingQuickHullConvexHullLib.obj
 0002:00008450       ??_C@_0GH@BAEBPFHP@C?3?2Code?2PhysX?9106?41?9physx?95?44?42@ 00000001801e6450     GuCookingQuickHullConvexHullLib.obj
 0002:000084c0       ??_C@_0GA@EPPAEJPM@QuickHullConvexHullLib?3?3findSim@ 00000001801e64c0     GuCookingQuickHullConvexHullLib.obj
 0002:00008520       ??_C@_0FB@NEBIJMML@QuickHullConvexHullLib?3?3findSim@ 00000001801e6520     GuCookingQuickHullConvexHullLib.obj
 0002:00008580       ??_C@_0FB@CLLCBEMM@QuickHullConvexHullLib?3?3findSim@ 00000001801e6580     GuCookingQuickHullConvexHullLib.obj
 0002:000085d4       __real@34c00000            00000001801e65d4     GuCookingQuickHullConvexHullLib.obj
 0002:000085d8       ??_C@_0DP@PJBJBEGF@Meshmerizer?3?3extractHullPolygon@ 00000001801e65d8     GuCookingConvexPolygonsBuilder.obj
 0002:00008620       ??_C@_0GG@BEJCAOFP@C?3?2Code?2PhysX?9106?41?9physx?95?44?42@ 00000001801e6620     GuCookingConvexPolygonsBuilder.obj
 0002:00008688       ??_C@_0DL@IAFKOCCK@ConvexHullBuilder?3?5convex?5hull?5@ 00000001801e6688     GuCookingConvexPolygonsBuilder.obj
 0002:000086d0       ??_C@_0GF@OJLJHAMH@ConvexHullBuilder?3?3CreateTriang@ 00000001801e66d0     GuCookingConvexPolygonsBuilder.obj
 0002:00008760       ??_C@_0DF@LLFJIJGM@Gu?3?3ConvexMesh?3?3loadFromDesc?3?5d@ 00000001801e6760     GuCookingConvexMeshBuilder.obj
 0002:000087a0       ??_C@_0HK@JOGKIEAA@Gu?3?3ConvexMesh?3?5Mesh?5has?5a?5nega@ 00000001801e67a0     GuCookingConvexMeshBuilder.obj
 0002:00008820       ??_C@_0DH@NJPPHFFD@Gu?3?3ConvexMesh?3?5Error?5computing@ 00000001801e6820     GuCookingConvexMeshBuilder.obj
 0002:00008858       ??_C@_0DJ@LJDLGLDJ@Gu?3?3ConvexMesh?3?3loadConvexHull?3@ 00000001801e6858     GuCookingConvexMeshBuilder.obj
 0002:000088a0       ??_C@_0HJ@KJANPPOE@ConvexMeshBuilder?3?3computeHullP@ 00000001801e68a0     GuCookingConvexMeshBuilder.obj
 0002:00008920       ??_C@_0GC@LHOKEIKG@C?3?2Code?2PhysX?9106?41?9physx?95?44?42@ 00000001801e6920     GuCookingConvexMeshBuilder.obj
 0002:00008988       ??_C@_0O@JMAGMMGG@PxHullPolygon@ 00000001801e6988     GuCookingConvexMeshBuilder.obj
 0002:00008998       __real@3f13cd3a            00000001801e6998     GuCookingConvexMeshBuilder.obj
 0002:000089c0       ??_C@_0GA@NOENEEPL@C?3?2Code?2PhysX?9106?41?9physx?95?44?42@ 00000001801e69c0     GuCookingConvexHullUtils.obj
 0002:00008a20       __real@3e20d97c            00000001801e6a20     GuCookingConvexHullUtils.obj
 0002:00008a30       ??_C@_0FO@EJMAPOMK@C?3?2Code?2PhysX?9106?41?9physx?95?44?42@ 00000001801e6a30     GuCookingConvexHullLib.obj
 0002:00008a90       ??_C@_0JE@PABBNGEL@ConvexHullLib?3?3cleanupVertices?3@ 00000001801e6a90     GuCookingConvexHullLib.obj
 0002:00008b50       ??_C@_0GC@HJEOOIPD@C?3?2Code?2PhysX?9106?41?9physx?95?44?42@ 00000001801e6b50     GuCookingConvexHullBuilder.obj
 0002:00008bc0       ??_C@_0EB@DCEIFDGC@ConvexHullBuilder?3?3init?3?5convex@ 00000001801e6bc0     GuCookingConvexHullBuilder.obj
 0002:00008c10       ??_C@_0FM@KICBLCBH@Gu?3?3ConvexMesh?3?3checkHullPolygo@ 00000001801e6c10     GuCookingConvexHullBuilder.obj
 0002:00008c70       ??_C@_0GO@HBFIOGLL@Gu?3?3ConvexMesh?3?3checkHullPolygo@ 00000001801e6c70     GuCookingConvexHullBuilder.obj
 0002:00008ce0       ??_C@_0HF@OLJFBIEL@ConvexHullBuilder?3?5convex?5hull?5@ 00000001801e6ce0     GuCookingConvexHullBuilder.obj
 0002:00008d60       ??_C@_0OG@JNHFOIL@ConvexHullBuilder?3?5convex?5hull?5@ 00000001801e6d60     GuCookingConvexHullBuilder.obj
 0002:00008e50       ??_C@_0EJ@NIOIBAKH@Cooking?3?3cookConvexMesh?3?5non?9ma@ 00000001801e6e50     GuCookingConvexHullBuilder.obj
 0002:00008ec0       ??_C@_0GF@IDKLIBAP@C?3?2Code?2PhysX?9106?41?9physx?95?44?42@ 00000001801e6ec0     GuCookingBigConvexDataBuilder.obj
 0002:00008f30       __sz_PhysXFoundation_64_dll 00000001801e6f30     PhysXFoundation_64:PhysXFoundation_64.dll
 0002:00008f48       ??_C@_1BK@DBDEIDLH@?$AAK?$AAE?$AAR?$AAN?$AAE?$AAL?$AA3?$AA2?$AA?4?$AAD?$AAL?$AAL@ 00000001801e6f48     Delayimp:delayhlp.obj
 0002:00008f68       ??_C@_0BI@OMNLIJDB@AcquireSRWLockExclusive@ 00000001801e6f68     Delayimp:delayhlp.obj
 0002:00008f80       ??_C@_0BI@HMIEPCNJ@ReleaseSRWLockExclusive@ 00000001801e6f80     Delayimp:delayhlp.obj
 0002:00008f98       __pfnDliFailureHook2       00000001801e6f98     Delayimp:delayhk1.obj
 0002:00008fa0       __bChangeProtectionOfWholeDloadSection 00000001801e6fa0     Delayimp:delaygv1.obj
 0002:00008fb0       ??_7type_info@@6B@         00000001801e6fb0     LIBCMT:std_type_info_static.obj
 0002:00009020       _pDefaultRawDllMain        00000001801e7020     LIBCMT:dll_dllmain.obj
 0002:00009020       _pRawDllMain               00000001801e7020     LIBCMT:dll_dllmain.obj
 0002:00009030       _load_config_used          00000001801e7030     LIBCMT:loadcfg.obj
 0002:00009170       _pDestructExceptionObject  00000001801e7170     libvcruntime:ehhelpers.obj
 0002:00009890       ??_C@_08EHJDFFNH@__based?$CI@ 00000001801e7890     libvcruntime:undname.obj
 0002:000098a0       ??_C@_07KOLFKCDI@__cdecl@  00000001801e78a0     libvcruntime:undname.obj
 0002:000098a8       ??_C@_08GHMPAG@__pascal@   00000001801e78a8     libvcruntime:undname.obj
 0002:000098b8       ??_C@_09IFJBGAPI@__stdcall@ 00000001801e78b8     libvcruntime:undname.obj
 0002:000098c8       ??_C@_0L@NPHFGOKO@__thiscall@ 00000001801e78c8     libvcruntime:undname.obj
 0002:000098d8       ??_C@_0L@JMKHOMEK@__fastcall@ 00000001801e78d8     libvcruntime:undname.obj
 0002:000098e8       ??_C@_0N@BCKKPABJ@__vectorcall@ 00000001801e78e8     libvcruntime:undname.obj
 0002:000098f8       ??_C@_09HIJEGCPM@__clrcall@ 00000001801e78f8     libvcruntime:undname.obj
 0002:00009904       ??_C@_06GHPCKEAG@__eabi@   00000001801e7904     libvcruntime:undname.obj
 0002:00009910       ??_C@_09IOPIDJLG@__swift_1@ 00000001801e7910     libvcruntime:undname.obj
 0002:00009920       ??_C@_09KFNFGKHF@__swift_2@ 00000001801e7920     libvcruntime:undname.obj
 0002:00009930       ??_C@_09LMMOFLDE@__swift_3@ 00000001801e7930     libvcruntime:undname.obj
 0002:00009940       ??_C@_07JOMMBBKO@__ptr64@  00000001801e7940     libvcruntime:undname.obj
 0002:00009948       ??_C@_0L@PILCLIHE@__restrict@ 00000001801e7948     libvcruntime:undname.obj
 0002:00009958       ??_C@_0M@GFIIJFMG@__unaligned@ 00000001801e7958     libvcruntime:undname.obj
 0002:00009968       ??_C@_09DHDLOLLB@restrict?$CI@ 00000001801e7968     libvcruntime:undname.obj
 0002:00009974       ??_C@_04NIHEBCM@?5new@     00000001801e7974     libvcruntime:undname.obj
 0002:00009980       ??_C@_07FPCDHGMM@?5delete@ 00000001801e7980     libvcruntime:undname.obj
 0002:00009988       ??_C@_01NEMOKFLO@?$DN@     00000001801e7988     libvcruntime:undname.obj
 0002:0000998c       ??_C@_02GPIOPFAK@?$DO?$DO@ 00000001801e798c     libvcruntime:undname.obj
 0002:00009990       ??_C@_02FODMEDOG@?$DM?$DM@ 00000001801e7990     libvcruntime:undname.obj
 0002:00009994       ??_C@_01DCLJPIOD@?$CB@     00000001801e7994     libvcruntime:undname.obj
 0002:00009998       ??_C@_02EGOFBIJA@?$DN?$DN@ 00000001801e7998     libvcruntime:undname.obj
 0002:0000999c       ??_C@_02FDNJECIE@?$CB?$DN@ 00000001801e799c     libvcruntime:undname.obj
 0002:000099a0       ??_C@_02GPECMEKF@?$FL?$FN@ 00000001801e79a0     libvcruntime:undname.obj
 0002:000099a8       ??_C@_08LHJFAFGD@operator@ 00000001801e79a8     libvcruntime:undname.obj
 0002:000099b4       ??_C@_02HBOOOICD@?9?$DO@   00000001801e79b4     libvcruntime:undname.obj
 0002:000099b8       ??_C@_01NBENCBCI@?$CK@     00000001801e79b8     libvcruntime:undname.obj
 0002:000099bc       ??_C@_02ECNGHCIF@?$CL?$CL@ 00000001801e79bc     libvcruntime:undname.obj
 0002:000099c0       ??_C@_02BAABKJLB@?9?9@     00000001801e79c0     libvcruntime:undname.obj
 0002:000099c4       ??_C@_01JOAMLHOP@?9@       00000001801e79c4     libvcruntime:undname.obj
 0002:000099c8       ??_C@_01MIFGBAGJ@?$CL@     00000001801e79c8     libvcruntime:undname.obj
 0002:000099cc       ??_C@_01HNPIGOCE@?$CG@     00000001801e79cc     libvcruntime:undname.obj
 0002:000099d0       ??_C@_03MNHNFDLC@?9?$DO?$CK@ 00000001801e79d0     libvcruntime:undname.obj
 0002:000099d4       ??_C@_01KMDKNFGN@?1@       00000001801e79d4     libvcruntime:undname.obj
 0002:000099d8       ??_C@_01FGNFDNOH@?$CF@     00000001801e79d8     libvcruntime:undname.obj
 0002:000099dc       ??_C@_01MNNFJEPP@?$DM@     00000001801e79dc     libvcruntime:undname.obj
 0002:000099e0       ??_C@_02EHCHHCKH@?$DM?$DN@ 00000001801e79e0     libvcruntime:undname.obj
 0002:000099e4       ??_C@_01PPODPGHN@?$DO@     00000001801e79e4     libvcruntime:undname.obj
 0002:000099e8       ??_C@_02EEKDKGMJ@?$DO?$DN@ 00000001801e79e8     libvcruntime:undname.obj
 0002:000099ec       ??_C@_01IHBHIGKO@?0@       00000001801e79ec     libvcruntime:undname.obj
 0002:000099f0       ??_C@_02HCKGKOFO@?$CI?$CJ@ 00000001801e79f0     libvcruntime:undname.obj
 0002:000099f4       ??_C@_01PJKLJHI@?$HO@      00000001801e79f4     libvcruntime:undname.obj
 0002:000099f8       ??_C@_01JKBOJNNK@?$FO@     00000001801e79f8     libvcruntime:undname.obj
 0002:000099fc       ??_C@_01DNKMNLPK@?$HM@     00000001801e79fc     libvcruntime:undname.obj
 0002:00009a00       ??_C@_02PPKAJPJL@?$CG?$CG@ 00000001801e7a00     libvcruntime:undname.obj
 0002:00009a04       ??_C@_02NONPIBCD@?$HM?$HM@ 00000001801e7a04     libvcruntime:undname.obj
 0002:00009a08       ??_C@_02FPIMKNGF@?$CK?$DN@ 00000001801e7a08     libvcruntime:undname.obj
 0002:00009a0c       ??_C@_02FOEOMHFC@?$CL?$DN@ 00000001801e7a0c     libvcruntime:undname.obj
 0002:00009a10       ??_C@_02FKMDLLOA@?9?$DN@   00000001801e7a10     libvcruntime:undname.obj
 0002:00009a14       ??_C@_02FJEHGPIO@?1?$DN@   00000001801e7a14     libvcruntime:undname.obj
 0002:00009a18       ??_C@_02FENAOKFI@?$CF?$DN@ 00000001801e7a18     libvcruntime:undname.obj
 0002:00009a1c       ??_C@_03IKFCCPFF@?$DO?$DO?$DN@ 00000001801e7a1c     libvcruntime:undname.obj
 0002:00009a20       ??_C@_03CDNPDDLA@?$DM?$DM?$DN@ 00000001801e7a20     libvcruntime:undname.obj
 0002:00009a24       ??_C@_02FGJGFEAB@?$CG?$DN@ 00000001801e7a24     libvcruntime:undname.obj
 0002:00009a28       ??_C@_02DHLNPPGH@?$HM?$DN@ 00000001801e7a28     libvcruntime:undname.obj
 0002:00009a2c       ??_C@_02MHEGNOJ@?$FO?$DN@  00000001801e7a2c     libvcruntime:undname.obj
 0002:00009a30       ??_C@_09IFPLHPGF@?$GAvftable?8@ 00000001801e7a30     libvcruntime:undname.obj
 0002:00009a40       ??_C@_09BLBHBJP@?$GAvbtable?8@ 00000001801e7a40     libvcruntime:undname.obj
 0002:00009a50       ??_C@_07FEEIOKP@?$GAvcall?8@ 00000001801e7a50     libvcruntime:undname.obj
 0002:00009a58       ??_C@_08LLFFHHDJ@?$GAtypeof?8@ 00000001801e7a58     libvcruntime:undname.obj
 0002:00009a68       ??_C@_0BF@KDPPACIK@?$GAlocal?5static?5guard?8@ 00000001801e7a68     libvcruntime:undname.obj
 0002:00009a80       ??_C@_08OBABFOLI@?$GAstring?8@ 00000001801e7a80     libvcruntime:undname.obj
 0002:00009a90       ??_C@_0BD@JDLKDPAB@?$GAvbase?5destructor?8@ 00000001801e7a90     libvcruntime:undname.obj
 0002:00009aa8       ??_C@_0BN@DEGPLNFK@?$GAvector?5deleting?5destructor?8@ 00000001801e7aa8     libvcruntime:undname.obj
 0002:00009ac8       ??_C@_0BO@OBMKPJIG@?$GAdefault?5constructor?5closure?8@ 00000001801e7ac8     libvcruntime:undname.obj
 0002:00009ae8       ??_C@_0BN@IMDCHIKM@?$GAscalar?5deleting?5destructor?8@ 00000001801e7ae8     libvcruntime:undname.obj
 0002:00009b08       ??_C@_0BO@PFGOCPJJ@?$GAvector?5constructor?5iterator?8@ 00000001801e7b08     libvcruntime:undname.obj
 0002:00009b28       ??_C@_0BN@LFPFMEDL@?$GAvector?5destructor?5iterator?8@ 00000001801e7b28     libvcruntime:undname.obj
 0002:00009b48       ??_C@_0CE@IKBNEHA@?$GAvector?5vbase?5constructor?5itera@ 00000001801e7b48     libvcruntime:undname.obj
 0002:00009b70       ??_C@_0BL@NILFHHPC@?$GAvirtual?5displacement?5map?8@ 00000001801e7b70     libvcruntime:undname.obj
 0002:00009b90       ??_C@_0CB@JONCMFFK@?$GAeh?5vector?5constructor?5iterator@ 00000001801e7b90     libvcruntime:undname.obj
 0002:00009bb8       ??_C@_0CA@GCEOPDGL@?$GAeh?5vector?5destructor?5iterator?8@ 00000001801e7bb8     libvcruntime:undname.obj
 0002:00009bd8       ??_C@_0CH@OOJPLCPH@?$GAeh?5vector?5vbase?5constructor?5it@ 00000001801e7bd8     libvcruntime:undname.obj
 0002:00009c00       ??_C@_0BL@LLKPOHJI@?$GAcopy?5constructor?5closure?8@ 00000001801e7c00     libvcruntime:undname.obj
 0002:00009c20       ??_C@_0BA@KBCDOMBN@?$GAudt?5returning?8@ 00000001801e7c20     libvcruntime:undname.obj
 0002:00009c30       ??_C@_03KLGMFNMG@?$GAEH@   00000001801e7c30     libvcruntime:undname.obj
 0002:00009c34       ??_C@_05KHLCHHI@?$GARTTI@  00000001801e7c34     libvcruntime:undname.obj
 0002:00009c40       ??_C@_0BA@KKLDJDLB@?$GAlocal?5vftable?8@ 00000001801e7c40     libvcruntime:undname.obj
 0002:00009c50       ??_C@_0CE@IIHCMGGL@?$GAlocal?5vftable?5constructor?5clos@ 00000001801e7c50     libvcruntime:undname.obj
 0002:00009c74       ??_C@_06FHBGPFGH@?5new?$FL?$FN@ 00000001801e7c74     libvcruntime:undname.obj
 0002:00009c80       ??_C@_09LBNFPBCA@?5delete?$FL?$FN@ 00000001801e7c80     libvcruntime:undname.obj
 0002:00009c90       ??_C@_0P@HJKNJFNN@?$GAomni?5callsig?8@ 00000001801e7c90     libvcruntime:undname.obj
 0002:00009ca0       ??_C@_0BL@CNOONJFP@?$GAplacement?5delete?5closure?8@ 00000001801e7ca0     libvcruntime:undname.obj
 0002:00009cc0       ??_C@_0BN@CKNJLHMB@?$GAplacement?5delete?$FL?$FN?5closure?8@ 00000001801e7cc0     libvcruntime:undname.obj
 0002:00009ce0       ??_C@_0CG@CFDHKGGD@?$GAmanaged?5vector?5constructor?5ite@ 00000001801e7ce0     libvcruntime:undname.obj
 0002:00009d08       ??_C@_0CF@IMGKMJNO@?$GAmanaged?5vector?5destructor?5iter@ 00000001801e7d08     libvcruntime:undname.obj
 0002:00009d30       ??_C@_0CG@HLDDJMAG@?$GAeh?5vector?5copy?5constructor?5ite@ 00000001801e7d30     libvcruntime:undname.obj
 0002:00009d58       ??_C@_0CM@FCBBDIGB@?$GAeh?5vector?5vbase?5copy?5construct@ 00000001801e7d58     libvcruntime:undname.obj
 0002:00009d88       ??_C@_0BL@CLIPGLGB@?$GAdynamic?5initializer?5for?5?8@ 00000001801e7d88     libvcruntime:undname.obj
 0002:00009da8       ??_C@_0CB@PDBIFEP@?$GAdynamic?5atexit?5destructor?5for?5@ 00000001801e7da8     libvcruntime:undname.obj
 0002:00009dd0       ??_C@_0CD@CGAJBKEJ@?$GAvector?5copy?5constructor?5iterat@ 00000001801e7dd0     libvcruntime:undname.obj
 0002:00009df8       ??_C@_0CJ@GJELGAMM@?$GAvector?5vbase?5copy?5constructor?5@ 00000001801e7df8     libvcruntime:undname.obj
 0002:00009e28       ??_C@_0CL@FGIJHLCE@?$GAmanaged?5vector?5copy?5constructo@ 00000001801e7e28     libvcruntime:undname.obj
 0002:00009e58       ??_C@_0BM@PMGGMLDN@?$GAlocal?5static?5thread?5guard?8@ 00000001801e7e58     libvcruntime:undname.obj
 0002:00009e78       ??_C@_0N@BDNMDMOL@operator?5?$CC?$CC?5@ 00000001801e7e78     libvcruntime:undname.obj
 0002:00009e88       ??_C@_0BC@GGEBGALA@operator?5co_await@ 00000001801e7e88     libvcruntime:undname.obj
 0002:00009ea0       ??_C@_0M@GAAIMMOH@operator?$DM?$DN?$DO@ 00000001801e7ea0     libvcruntime:undname.obj
 0002:00009eb0       ??_C@_0BC@DAFEJGAK@?5Type?5Descriptor?8@ 00000001801e7eb0     libvcruntime:undname.obj
 0002:00009ec8       ??_C@_0BM@LDKODKLH@?5Base?5Class?5Descriptor?5at?5?$CI@ 00000001801e7ec8     libvcruntime:undname.obj
 0002:00009ee8       ??_C@_0BD@LGICGFMM@?5Base?5Class?5Array?8@ 00000001801e7ee8     libvcruntime:undname.obj
 0002:00009f00       ??_C@_0BN@MECKDCOJ@?5Class?5Hierarchy?5Descriptor?8@ 00000001801e7f00     libvcruntime:undname.obj
 0002:00009f20       ??_C@_0BK@CFCOFLF@?5Complete?5Object?5Locator?8@ 00000001801e7f20     libvcruntime:undname.obj
 0002:00009f40       ??_C@_0BG@JNJLAMPM@?$GAanonymous?5namespace?8@ 00000001801e7f40     libvcruntime:undname.obj
 0002:00009f58       ??_C@_04HEJADOOB@CV?3?5@   00000001801e7f58     libvcruntime:undname.obj
 0002:00009f60       ??_C@_02MOLJINC@?3?3@      00000001801e7f60     libvcruntime:undname.obj
 0002:00009f68       ??_C@_0BE@JAEOCHPE@template?9parameter?9@ 00000001801e7f68     libvcruntime:undname.obj
 0002:00009f80       ??_C@_0BF@LNLGBBNL@?$GAtemplate?9parameter?9@ 00000001801e7f80     libvcruntime:undname.obj
 0002:00009f98       ??_C@_0O@KHGCOMHP@generic?9type?9@ 00000001801e7f98     libvcruntime:undname.obj
 0002:00009fa8       ??_C@_0P@ODDENDLM@?$GAgeneric?9type?9@ 00000001801e7fa8     libvcruntime:undname.obj
 0002:00009fb8       ??_C@_02OHHJMEON@?8?8@     00000001801e7fb8     libvcruntime:undname.obj
 0002:00009fc0       ??_C@_0BN@IBLMMFAP@?$GAnon?9type?9template?9parameter@ 00000001801e7fc0     libvcruntime:undname.obj
 0002:00009fe0       ??_C@_03DLDNIBIK@?$CFlf@   00000001801e7fe0     libvcruntime:undname.obj
 0002:00009fe4       ??_C@_04OFALKAJ@?$DP?$DP_C@ 00000001801e7fe4     libvcruntime:undname.obj
 0002:00009fec       ??_C@_03KHICJKCI@?4?4?4@   00000001801e7fec     libvcruntime:undname.obj
 0002:00009ff0       ??_C@_04HIBGFPH@NULL@      00000001801e7ff0     libvcruntime:undname.obj
 0002:00009ff8       ??_C@_02DPKJAMEF@?$CFd@    00000001801e7ff8     libvcruntime:undname.obj
 0002:0000a000       ??_C@_0BK@IHCCFNEL@?$GAtemplate?9type?9parameter?9@ 00000001801e8000     libvcruntime:undname.obj
 0002:0000a020       ??_C@_0BK@OFCNNNKO@?$GAgeneric?9class?9parameter?9@ 00000001801e8020     libvcruntime:undname.obj
 0002:0000a040       ??_C@_0BL@NGJBLFIL@?$GAgeneric?9method?9parameter?9@ 00000001801e8040     libvcruntime:undname.obj
 0002:0000a060       ??_C@_07OHNGEDJK@nullptr@  00000001801e8060     libvcruntime:undname.obj
 0002:0000a068       ??_C@_06COJIGPIB@lambda@   00000001801e8068     libvcruntime:undname.obj
 0002:0000a070       ??_C@_0BE@EODMJLIF@?$GAtemplate?9parameter@ 00000001801e8070     libvcruntime:undname.obj
 0002:0000a084       ??_C@_03OPGICMGF@?$HN?8?5@ 00000001801e8084     libvcruntime:undname.obj
 0002:0000a088       ??_C@_02IGFCGPIL@?$HN?8@   00000001801e8088     libvcruntime:undname.obj
 0002:0000a090       ??_C@_0N@CBHHHENL@?$GAvtordispex?$HL@ 00000001801e8090     libvcruntime:undname.obj
 0002:0000a0a0       ??_C@_0L@GHPFDFH@?$GAvtordisp?$HL@ 00000001801e80a0     libvcruntime:undname.obj
 0002:0000a0b0       ??_C@_0L@HNGCOGAE@?$GAadjustor?$HL@ 00000001801e80b0     libvcruntime:undname.obj
 0002:0000a0c0       ??_C@_0CB@KJDOOODE@?$GAlocal?5static?5destructor?5helper@ 00000001801e80c0     libvcruntime:undname.obj
 0002:0000a0e8       ??_C@_0DB@ILEFOCIJ@?$GAtemplate?5static?5data?5member?5co@ 00000001801e80e8     libvcruntime:undname.obj
 0002:0000a120       ??_C@_0DA@HGFJFBBE@?$GAtemplate?5static?5data?5member?5de@ 00000001801e8120     libvcruntime:undname.obj
 0002:0000a150       ??_C@_07PGOEDBHP@static?5@ 00000001801e8150     libvcruntime:undname.obj
 0002:0000a158       ??_C@_08NIEOINHE@virtual?5@ 00000001801e8158     libvcruntime:undname.obj
 0002:0000a168       ??_C@_09LAPHOOG@private?3?5@ 00000001801e8168     libvcruntime:undname.obj
 0002:0000a178       ??_C@_0M@GAIFPFIP@protected?3?5@ 00000001801e8178     libvcruntime:undname.obj
 0002:0000a188       ??_C@_08GPDDCMKI@public?3?5@ 00000001801e8188     libvcruntime:undname.obj
 0002:0000a198       ??_C@_08KJLFOPNE@?$FLthunk?$FN?3@ 00000001801e8198     libvcruntime:undname.obj
 0002:0000a1a8       ??_C@_0M@DHNBOJMP@extern?5?$CCC?$CC?5@ 00000001801e81a8     libvcruntime:undname.obj
 0002:0000a1b4       ??_C@_02KCKGHPCA@?$CJ?5@   00000001801e81b4     libvcruntime:undname.obj
 0002:0000a1b8       ??_C@_05CIHEBHNO@char?5@   00000001801e81b8     libvcruntime:undname.obj
 0002:0000a1c0       ??_C@_06EHJMALKF@short?5@  00000001801e81c0     libvcruntime:undname.obj
 0002:0000a1c8       ??_C@_04LAHKHJMA@int?5@    00000001801e81c8     libvcruntime:undname.obj
 0002:0000a1d0       ??_C@_05CJIMAING@long?5@   00000001801e81d0     libvcruntime:undname.obj
 0002:0000a1d8       ??_C@_09EBBEKKIH@unsigned?5@ 00000001801e81d8     libvcruntime:undname.obj
 0002:0000a1e4       ??_C@_05BEFAKPML@void?5@   00000001801e81e4     libvcruntime:undname.obj
 0002:0000a1f0       ??_C@_09GAIEOBLP@volatile?5@ 00000001801e81f0     libvcruntime:undname.obj
 0002:0000a200       ??_C@_08PABEKFH@volatile@  00000001801e8200     libvcruntime:undname.obj
 0002:0000a210       ??_C@_0BA@LKIJLKPP@std?3?3nullptr_t?5@ 00000001801e8210     libvcruntime:undname.obj
 0002:0000a220       ??_C@_0P@GCOCNKDM@std?3?3nullptr_t@ 00000001801e8220     libvcruntime:undname.obj
 0002:0000a230       ??_C@_0L@EGPHHEKN@?$DMellipsis?$DO@ 00000001801e8230     libvcruntime:undname.obj
 0002:0000a23c       ??_C@_04EENFHACM@?0?4?4?4@ 00000001801e823c     libvcruntime:undname.obj
 0002:0000a248       ??_C@_0M@ELJOJFFH@?0?$DMellipsis?$DO@ 00000001801e8248     libvcruntime:undname.obj
 0002:0000a258       ??_C@_09DNHFEOJI@?5noexcept@ 00000001801e8258     libvcruntime:undname.obj
 0002:0000a264       ??_C@_03PBJBJNON@cpu@      00000001801e8264     libvcruntime:undname.obj
 0002:0000a268       ??_C@_03DCBBJBAA@amp@      00000001801e8268     libvcruntime:undname.obj
 0002:0000a26c       ??_C@_02KEGNLNML@?0?5@     00000001801e826c     libvcruntime:undname.obj
 0002:0000a270       ??_C@_04ENMBGAPA@char@     00000001801e8270     libvcruntime:undname.obj
 0002:0000a278       ??_C@_05BFKKPKCG@short@    00000001801e8278     libvcruntime:undname.obj
 0002:0000a280       ??_C@_03JBIPMCLC@int@      00000001801e8280     libvcruntime:undname.obj
 0002:0000a284       ??_C@_04GOKPGOLB@long@     00000001801e8284     libvcruntime:undname.obj
 0002:0000a28c       ??_C@_06BNJCAIGJ@double@   00000001801e828c     libvcruntime:undname.obj
 0002:0000a294       ??_C@_06EBGKOKIG@__int8@   00000001801e8294     libvcruntime:undname.obj
 0002:0000a2a0       ??_C@_07ICFHOGAF@__int16@  00000001801e82a0     libvcruntime:undname.obj
 0002:0000a2a8       ??_C@_07OFLPPHGP@__int32@  00000001801e82a8     libvcruntime:undname.obj
 0002:0000a2b0       ??_C@_07LFCOJCAC@__int64@  00000001801e82b0     libvcruntime:undname.obj
 0002:0000a2b8       ??_C@_08GAHOLHEO@__int128@ 00000001801e82b8     libvcruntime:undname.obj
 0002:0000a2c8       ??_C@_09EEKGDCPH@?$DMunknown?$DO@ 00000001801e82c8     libvcruntime:undname.obj
 0002:0000a2d8       ??_C@_07CFHGOPCN@char8_t@  00000001801e82d8     libvcruntime:undname.obj
 0002:0000a2e0       ??_C@_08HBIPOFJB@char16_t@ 00000001801e82e0     libvcruntime:undname.obj
 0002:0000a2f0       ??_C@_08IECNCBKG@char32_t@ 00000001801e82f0     libvcruntime:undname.obj
 0002:0000a300       ??_C@_07CLGGIAMF@wchar_t@  00000001801e8300     libvcruntime:undname.obj
 0002:0000a308       ??_C@_04HAPDLBFF@auto@     00000001801e8308     libvcruntime:undname.obj
 0002:0000a310       ??_C@_0P@LHCGKIGK@decltype?$CIauto?$CJ@ 00000001801e8310     libvcruntime:undname.obj
 0002:0000a320       ??_C@_05PCNBGHCF@this?5@   00000001801e8320     libvcruntime:undname.obj
 0002:0000a328       ??_C@_06GCICPBLB@__w64?5@  00000001801e8328     libvcruntime:undname.obj
 0002:0000a330       ??_C@_07NFANNNEC@UNKNOWN@  00000001801e8330     libvcruntime:undname.obj
 0002:0000a338       ??_C@_07EDHNAJHC@signed?5@ 00000001801e8338     libvcruntime:undname.obj
 0002:0000a340       ??_C@_05BNCCCJPP@const@    00000001801e8340     libvcruntime:undname.obj
 0002:0000a348       ??_C@_09EFNPDFFP@?5volatile@ 00000001801e8348     libvcruntime:undname.obj
 0002:0000a358       ??_C@_0P@GCIFDJCJ@?$GAunknown?5ecsu?8@ 00000001801e8358     libvcruntime:undname.obj
 0002:0000a368       ??_C@_06MOJHIBMG@union?5@  00000001801e8368     libvcruntime:undname.obj
 0002:0000a370       ??_C@_07DIBCDNGL@struct?5@ 00000001801e8370     libvcruntime:undname.obj
 0002:0000a378       ??_C@_06LJBABKPM@class?5@  00000001801e8378     libvcruntime:undname.obj
 0002:0000a380       ??_C@_08KOFANOFK@coclass?5@ 00000001801e8380     libvcruntime:undname.obj
 0002:0000a390       ??_C@_0N@DLIEFKNA@cointerface?5@ 00000001801e8390     libvcruntime:undname.obj
 0002:0000a3a0       ??_C@_05LJGMCFOG@enum?5@   00000001801e83a0     libvcruntime:undname.obj
 0002:0000a3a8       ??_C@_06LIJLOJAG@const?5@  00000001801e83a8     libvcruntime:undname.obj
 0002:0000a3b0       ??_C@_02KJPKDIBN@?$CG?5@   00000001801e83b0     libvcruntime:undname.obj
 0002:0000a3b4       ??_C@_03PCKGMOPB@?$CG?$CG?5@ 00000001801e83b4     libvcruntime:undname.obj
 0002:0000a3b8       ??_C@_0M@EALIELKG@cli?3?3array?$DM@ 00000001801e83b8     libvcruntime:undname.obj
 0002:0000a3c8       ??_C@_0O@GKABPPIF@cli?3?3pin_ptr?$DM@ 00000001801e83c8     libvcruntime:undname.obj
 0002:0000a3d8       ??_C@_02GOGNNPBN@?$CJ?$FL@ 00000001801e83d8     libvcruntime:undname.obj
 0002:0000a3dc       ??_C@_06EEGAIFAK@?$HLflat?$HN@ 00000001801e83dc     libvcruntime:undname.obj
 0002:0000a3e4       ??_C@_05JIBOFOHK@?$HLfor?5@ 00000001801e83e4     libvcruntime:undname.obj
 0002:0000a3ec       ??_C@_02MDINNEEG@s?5@      00000001801e83ec     libvcruntime:undname.obj
 0002:0000a3f8       ??_7charNode@@6B@          00000001801e83f8     libvcruntime:undname.obj
 0002:0000a420       ??_7pcharNode@@6B@         00000001801e8420     libvcruntime:undname.obj
 0002:0000a448       ??_7pDNameNode@@6B@        00000001801e8448     libvcruntime:undname.obj
 0002:0000a470       ??_7DNameStatusNode@@6B@   00000001801e8470     libvcruntime:undname.obj
 0002:0000a498       ??_7pairNode@@6B@          00000001801e8498     libvcruntime:undname.obj
 0002:0000a5c0       ??_C@_04OKOHEJBO@?5?$DP?$DP?5@ 00000001801e85c0     libvcruntime:undname.obj
 0002:0000a5d0       ?nodes@?1??make@DNameStatusNode@@SAPEBV2@W4DNameStatus@@@Z@4QBV2@B 00000001801e85d0     libvcruntime:undname.obj
 0002:0000a610       ?s_negLengthTab@FH4@@3QBCB 00000001801e8610     libvcruntime:risctrnsctrl.obj
 0002:0000a620       ?s_shiftTab@FH4@@3QBEB     00000001801e8620     libvcruntime:risctrnsctrl.obj
 0002:0000a780       ??_C@_1DM@KHCHBNEB@?$AAa?$AAp?$AAi?$AA?9?$AAm?$AAs?$AA?9?$AAw?$AAi?$AAn?$AA?9?$AAc?$AAo?$AAr?$AAe@ 00000001801e8780     libvcruntime:winapi_downlevel.obj
 0002:0000a7c0       ??_C@_1DK@LPPGFMPP@?$AAa?$AAp?$AAi?$AA?9?$AAm?$AAs?$AA?9?$AAw?$AAi?$AAn?$AA?9?$AAc?$AAo?$AAr?$AAe@ 00000001801e87c0     libvcruntime:winapi_downlevel.obj
 0002:0000a800       ??_C@_1BC@GDMECMAK@?$AAk?$AAe?$AAr?$AAn?$AAe?$AAl?$AA3?$AA2@ 00000001801e8800     libvcruntime:winapi_downlevel.obj
 0002:0000a818       ??_C@_1BA@PFFKHIOG@?$AAa?$AAp?$AAi?$AA?9?$AAm?$AAs?$AA?9@ 00000001801e8818     libvcruntime:winapi_downlevel.obj
 0002:0000a830       ??_C@_08KNHFBNJ@FlsAlloc@  00000001801e8830     libvcruntime:winapi_downlevel.obj
 0002:0000a848       ??_C@_07PEJMOBNF@FlsFree@  00000001801e8848     libvcruntime:winapi_downlevel.obj
 0002:0000a858       ??_C@_0M@GDNOONDI@FlsGetValue@ 00000001801e8858     libvcruntime:winapi_downlevel.obj
 0002:0000a870       ??_C@_0M@JCPCPOEF@FlsSetValue@ 00000001801e8870     libvcruntime:winapi_downlevel.obj
 0002:0000a888       ??_C@_0BM@HCFOFFN@InitializeCriticalSectionEx@ 00000001801e8888     libvcruntime:winapi_downlevel.obj
 0002:0000a8b0       ??_7exception@std@@6B@     00000001801e88b0     libvcruntime:frame.obj
 0002:0000a8c0       ??_C@_0BC@EOODALEL@Unknown?5exception@ 00000001801e88c0     libvcruntime:frame.obj
 0002:0000a8e0       ??_7bad_exception@std@@6B@ 00000001801e88e0     libvcruntime:frame.obj
 0002:0000a8f0       ??_C@_0O@DPKOEFFH@bad?5exception@ 00000001801e88f0     libvcruntime:frame.obj
 0002:0000ac40       ?standard_lookup_table_spectre@__crt_stdio_output@@3V?$spectre_mitigated_lookup_table@Ustate_transition_pair@__crt_stdio_output@@$0IA@@1@B 00000001801e8c40     libucrt:output.obj
 0002:0000ad40       ?format_validation_lookup_table_spectre@__crt_stdio_output@@3V?$spectre_mitigated_lookup_table@Ustate_transition_pair@__crt_stdio_output@@$0IA@@1@B 00000001801e8d40     libucrt:output.obj
 0002:0000ae40       ??_C@_1O@CEDCILHN@?$AA?$CI?$AAn?$AAu?$AAl?$AAl?$AA?$CJ@ 00000001801e8e40     libucrt:output.obj
 0002:0000ae50       ??_C@_06OJHGLDPL@?$CInull?$CJ@ 00000001801e8e50     libucrt:output.obj
 0002:0000bee8       __real@3f1a36e2eb1c432d    00000001801e9ee8     libucrt:atan2f.obj
 0002:0000bef0       __real@3f490fdb            00000001801e9ef0     libucrt:atan2f.obj
 0002:0000bef8       __real@3fb0000000000000    00000001801e9ef8     libucrt:atan2f.obj
 0002:0000bf00       __real@3fc2492482bd6be1    00000001801e9f00     libucrt:atan2f.obj
 0002:0000bf08       __real@3fc90fdb            00000001801e9f08     libucrt:atan2f.obj
 0002:0000bf10       __real@3fc99999999643a3    00000001801e9f10     libucrt:atan2f.obj
 0002:0000bf18       __real@3fd5555555550877    00000001801e9f18     libucrt:atan2f.obj
 0002:0000bf20       __real@3fd5555555555538    00000001801e9f20     libucrt:atan2f.obj
 0002:0000bf28       __real@3ff921fb54442d18    00000001801e9f28     libucrt:atan2f.obj
 0002:0000bf30       __real@400921fb54442d18    00000001801e9f30     libucrt:atan2f.obj
 0002:0000bf38       __real@4016cbe4            00000001801e9f38     libucrt:atan2f.obj
 0002:0000bf3c       __real@40490fdb            00000001801e9f3c     libucrt:atan2f.obj
 0002:0000bf40       __real@4070000000000000    00000001801e9f40     libucrt:atan2f.obj
 0002:0000bf48       __real@bf490fdb            00000001801e9f48     libucrt:atan2f.obj
 0002:0000bf4c       __real@bfc90fdb            00000001801e9f4c     libucrt:atan2f.obj
 0002:0000bf50       __real@c016cbe4            00000001801e9f50     libucrt:atan2f.obj
